
Controller.elf:     file format elf32-littlearm

Sections:
Idx Name          Size      VMA       LMA       File off  Algn
  0 .isr_vector   0000010c  08000000  08000000  00001000  2**0
                  CONTENTS, ALLOC, LOAD, READONLY, DATA
  1 .text         000094b4  08000110  08000110  00001110  2**3
                  CONTENTS, ALLOC, LOAD, READONLY, CODE
  2 .rodata       00000abc  080095c8  080095c8  0000a5c8  2**3
                  CONTENTS, ALLOC, LOAD, READONLY, DATA
  3 .ARM.extab    00000000  0800a084  0800a084  0000c22c  2**0
                  CONTENTS, READONLY
  4 .ARM          00000008  0800a084  0800a084  0000b084  2**2
                  CONTENTS, ALLOC, LOAD, READONLY, DATA
  5 .preinit_array 00000000  0800a08c  0800a08c  0000c22c  2**0
                  CONTENTS, ALLOC, LOAD, DATA
  6 .init_array   00000004  0800a08c  0800a08c  0000b08c  2**2
                  CONTENTS, ALLOC, LOAD, READONLY, DATA
  7 .fini_array   00000004  0800a090  0800a090  0000b090  2**2
                  CONTENTS, ALLOC, LOAD, READONLY, DATA
  8 .data         0000022c  20000000  0800a094  0000c000  2**2
                  CONTENTS, ALLOC, LOAD, DATA
  9 .bss          00000d64  2000022c  0800a2c0  0000c22c  2**2
                  ALLOC
 10 ._user_heap_stack 00000600  20000f90  0800a2c0  0000cf90  2**0
                  ALLOC
 11 .ARM.attributes 00000029  00000000  00000000  0000c22c  2**0
                  CONTENTS, READONLY
 12 .comment      00000043  00000000  00000000  0000c255  2**0
                  CONTENTS, READONLY
 13 .debug_frame  00001434  00000000  00000000  0000c298  2**2
                  CONTENTS, READONLY, DEBUGGING, OCTETS

Disassembly of section .text:

08000110 <__do_global_dtors_aux>:
 8000110:	b510      	push	{r4, lr}
 8000112:	4c05      	ldr	r4, [pc, #20]	@ (8000128 <__do_global_dtors_aux+0x18>)
 8000114:	7823      	ldrb	r3, [r4, #0]
 8000116:	b933      	cbnz	r3, 8000126 <__do_global_dtors_aux+0x16>
 8000118:	4b04      	ldr	r3, [pc, #16]	@ (800012c <__do_global_dtors_aux+0x1c>)
 800011a:	b113      	cbz	r3, 8000122 <__do_global_dtors_aux+0x12>
 800011c:	4804      	ldr	r0, [pc, #16]	@ (8000130 <__do_global_dtors_aux+0x20>)
 800011e:	f3af 8000 	nop.w
 8000122:	2301      	movs	r3, #1
 8000124:	7023      	strb	r3, [r4, #0]
 8000126:	bd10      	pop	{r4, pc}
 8000128:	2000022c 	.word	0x2000022c
 800012c:	00000000 	.word	0x00000000
 8000130:	080095ac 	.word	0x080095ac

08000134 <frame_dummy>:
 8000134:	b508      	push	{r3, lr}
 8000136:	4b03      	ldr	r3, [pc, #12]	@ (8000144 <frame_dummy+0x10>)
 8000138:	b11b      	cbz	r3, 8000142 <frame_dummy+0xe>
 800013a:	4903      	ldr	r1, [pc, #12]	@ (8000148 <frame_dummy+0x14>)
 800013c:	4803      	ldr	r0, [pc, #12]	@ (800014c <frame_dummy+0x18>)
 800013e:	f3af 8000 	nop.w
 8000142:	bd08      	pop	{r3, pc}
 8000144:	00000000 	.word	0x00000000
 8000148:	20000230 	.word	0x20000230
 800014c:	080095ac 	.word	0x080095ac

08000150 <strlen>:
 8000150:	4603      	mov	r3, r0
 8000152:	f813 2b01 	ldrb.w	r2, [r3], #1
 8000156:	2a00      	cmp	r2, #0
 8000158:	d1fb      	bne.n	8000152 <strlen+0x2>
 800015a:	1a18      	subs	r0, r3, r0
 800015c:	3801      	subs	r0, #1
 800015e:	4770      	bx	lr

08000160 <__aeabi_drsub>:
 8000160:	f081 4100 	eor.w	r1, r1, #2147483648	@ 0x80000000
 8000164:	e002      	b.n	800016c <__adddf3>
 8000166:	bf00      	nop

08000168 <__aeabi_dsub>:
 8000168:	f083 4300 	eor.w	r3, r3, #2147483648	@ 0x80000000

0800016c <__adddf3>:
 800016c:	b530      	push	{r4, r5, lr}
 800016e:	ea4f 0441 	mov.w	r4, r1, lsl #1
 8000172:	ea4f 0543 	mov.w	r5, r3, lsl #1
 8000176:	ea94 0f05 	teq	r4, r5
 800017a:	bf08      	it	eq
 800017c:	ea90 0f02 	teqeq	r0, r2
 8000180:	bf1f      	itttt	ne
 8000182:	ea54 0c00 	orrsne.w	ip, r4, r0
 8000186:	ea55 0c02 	orrsne.w	ip, r5, r2
 800018a:	ea7f 5c64 	mvnsne.w	ip, r4, asr #21
 800018e:	ea7f 5c65 	mvnsne.w	ip, r5, asr #21
 8000192:	f000 80e2 	beq.w	800035a <__adddf3+0x1ee>
 8000196:	ea4f 5454 	mov.w	r4, r4, lsr #21
 800019a:	ebd4 5555 	rsbs	r5, r4, r5, lsr #21
 800019e:	bfb8      	it	lt
 80001a0:	426d      	neglt	r5, r5
 80001a2:	dd0c      	ble.n	80001be <__adddf3+0x52>
 80001a4:	442c      	add	r4, r5
 80001a6:	ea80 0202 	eor.w	r2, r0, r2
 80001aa:	ea81 0303 	eor.w	r3, r1, r3
 80001ae:	ea82 0000 	eor.w	r0, r2, r0
 80001b2:	ea83 0101 	eor.w	r1, r3, r1
 80001b6:	ea80 0202 	eor.w	r2, r0, r2
 80001ba:	ea81 0303 	eor.w	r3, r1, r3
 80001be:	2d36      	cmp	r5, #54	@ 0x36
 80001c0:	bf88      	it	hi
 80001c2:	bd30      	pophi	{r4, r5, pc}
 80001c4:	f011 4f00 	tst.w	r1, #2147483648	@ 0x80000000
 80001c8:	ea4f 3101 	mov.w	r1, r1, lsl #12
 80001cc:	f44f 1c80 	mov.w	ip, #1048576	@ 0x100000
 80001d0:	ea4c 3111 	orr.w	r1, ip, r1, lsr #12
 80001d4:	d002      	beq.n	80001dc <__adddf3+0x70>
 80001d6:	4240      	negs	r0, r0
 80001d8:	eb61 0141 	sbc.w	r1, r1, r1, lsl #1
 80001dc:	f013 4f00 	tst.w	r3, #2147483648	@ 0x80000000
 80001e0:	ea4f 3303 	mov.w	r3, r3, lsl #12
 80001e4:	ea4c 3313 	orr.w	r3, ip, r3, lsr #12
 80001e8:	d002      	beq.n	80001f0 <__adddf3+0x84>
 80001ea:	4252      	negs	r2, r2
 80001ec:	eb63 0343 	sbc.w	r3, r3, r3, lsl #1
 80001f0:	ea94 0f05 	teq	r4, r5
 80001f4:	f000 80a7 	beq.w	8000346 <__adddf3+0x1da>
 80001f8:	f1a4 0401 	sub.w	r4, r4, #1
 80001fc:	f1d5 0e20 	rsbs	lr, r5, #32
 8000200:	db0d      	blt.n	800021e <__adddf3+0xb2>
 8000202:	fa02 fc0e 	lsl.w	ip, r2, lr
 8000206:	fa22 f205 	lsr.w	r2, r2, r5
 800020a:	1880      	adds	r0, r0, r2
 800020c:	f141 0100 	adc.w	r1, r1, #0
 8000210:	fa03 f20e 	lsl.w	r2, r3, lr
 8000214:	1880      	adds	r0, r0, r2
 8000216:	fa43 f305 	asr.w	r3, r3, r5
 800021a:	4159      	adcs	r1, r3
 800021c:	e00e      	b.n	800023c <__adddf3+0xd0>
 800021e:	f1a5 0520 	sub.w	r5, r5, #32
 8000222:	f10e 0e20 	add.w	lr, lr, #32
 8000226:	2a01      	cmp	r2, #1
 8000228:	fa03 fc0e 	lsl.w	ip, r3, lr
 800022c:	bf28      	it	cs
 800022e:	f04c 0c02 	orrcs.w	ip, ip, #2
 8000232:	fa43 f305 	asr.w	r3, r3, r5
 8000236:	18c0      	adds	r0, r0, r3
 8000238:	eb51 71e3 	adcs.w	r1, r1, r3, asr #31
 800023c:	f001 4500 	and.w	r5, r1, #2147483648	@ 0x80000000
 8000240:	d507      	bpl.n	8000252 <__adddf3+0xe6>
 8000242:	f04f 0e00 	mov.w	lr, #0
 8000246:	f1dc 0c00 	rsbs	ip, ip, #0
 800024a:	eb7e 0000 	sbcs.w	r0, lr, r0
 800024e:	eb6e 0101 	sbc.w	r1, lr, r1
 8000252:	f5b1 1f80 	cmp.w	r1, #1048576	@ 0x100000
 8000256:	d31b      	bcc.n	8000290 <__adddf3+0x124>
 8000258:	f5b1 1f00 	cmp.w	r1, #2097152	@ 0x200000
 800025c:	d30c      	bcc.n	8000278 <__adddf3+0x10c>
 800025e:	0849      	lsrs	r1, r1, #1
 8000260:	ea5f 0030 	movs.w	r0, r0, rrx
 8000264:	ea4f 0c3c 	mov.w	ip, ip, rrx
 8000268:	f104 0401 	add.w	r4, r4, #1
 800026c:	ea4f 5244 	mov.w	r2, r4, lsl #21
 8000270:	f512 0f80 	cmn.w	r2, #4194304	@ 0x400000
 8000274:	f080 809a 	bcs.w	80003ac <__adddf3+0x240>
 8000278:	f1bc 4f00 	cmp.w	ip, #2147483648	@ 0x80000000
 800027c:	bf08      	it	eq
 800027e:	ea5f 0c50 	movseq.w	ip, r0, lsr #1
 8000282:	f150 0000 	adcs.w	r0, r0, #0
 8000286:	eb41 5104 	adc.w	r1, r1, r4, lsl #20
 800028a:	ea41 0105 	orr.w	r1, r1, r5
 800028e:	bd30      	pop	{r4, r5, pc}
 8000290:	ea5f 0c4c 	movs.w	ip, ip, lsl #1
 8000294:	4140      	adcs	r0, r0
 8000296:	eb41 0101 	adc.w	r1, r1, r1
 800029a:	3c01      	subs	r4, #1
 800029c:	bf28      	it	cs
 800029e:	f5b1 1f80 	cmpcs.w	r1, #1048576	@ 0x100000
 80002a2:	d2e9      	bcs.n	8000278 <__adddf3+0x10c>
 80002a4:	f091 0f00 	teq	r1, #0
 80002a8:	bf04      	itt	eq
 80002aa:	4601      	moveq	r1, r0
 80002ac:	2000      	moveq	r0, #0
 80002ae:	fab1 f381 	clz	r3, r1
 80002b2:	bf08      	it	eq
 80002b4:	3320      	addeq	r3, #32
 80002b6:	f1a3 030b 	sub.w	r3, r3, #11
 80002ba:	f1b3 0220 	subs.w	r2, r3, #32
 80002be:	da0c      	bge.n	80002da <__adddf3+0x16e>
 80002c0:	320c      	adds	r2, #12
 80002c2:	dd08      	ble.n	80002d6 <__adddf3+0x16a>
 80002c4:	f102 0c14 	add.w	ip, r2, #20
 80002c8:	f1c2 020c 	rsb	r2, r2, #12
 80002cc:	fa01 f00c 	lsl.w	r0, r1, ip
 80002d0:	fa21 f102 	lsr.w	r1, r1, r2
 80002d4:	e00c      	b.n	80002f0 <__adddf3+0x184>
 80002d6:	f102 0214 	add.w	r2, r2, #20
 80002da:	bfd8      	it	le
 80002dc:	f1c2 0c20 	rsble	ip, r2, #32
 80002e0:	fa01 f102 	lsl.w	r1, r1, r2
 80002e4:	fa20 fc0c 	lsr.w	ip, r0, ip
 80002e8:	bfdc      	itt	le
 80002ea:	ea41 010c 	orrle.w	r1, r1, ip
 80002ee:	4090      	lslle	r0, r2
 80002f0:	1ae4      	subs	r4, r4, r3
 80002f2:	bfa2      	ittt	ge
 80002f4:	eb01 5104 	addge.w	r1, r1, r4, lsl #20
 80002f8:	4329      	orrge	r1, r5
 80002fa:	bd30      	popge	{r4, r5, pc}
 80002fc:	ea6f 0404 	mvn.w	r4, r4
 8000300:	3c1f      	subs	r4, #31
 8000302:	da1c      	bge.n	800033e <__adddf3+0x1d2>
 8000304:	340c      	adds	r4, #12
 8000306:	dc0e      	bgt.n	8000326 <__adddf3+0x1ba>
 8000308:	f104 0414 	add.w	r4, r4, #20
 800030c:	f1c4 0220 	rsb	r2, r4, #32
 8000310:	fa20 f004 	lsr.w	r0, r0, r4
 8000314:	fa01 f302 	lsl.w	r3, r1, r2
 8000318:	ea40 0003 	orr.w	r0, r0, r3
 800031c:	fa21 f304 	lsr.w	r3, r1, r4
 8000320:	ea45 0103 	orr.w	r1, r5, r3
 8000324:	bd30      	pop	{r4, r5, pc}
 8000326:	f1c4 040c 	rsb	r4, r4, #12
 800032a:	f1c4 0220 	rsb	r2, r4, #32
 800032e:	fa20 f002 	lsr.w	r0, r0, r2
 8000332:	fa01 f304 	lsl.w	r3, r1, r4
 8000336:	ea40 0003 	orr.w	r0, r0, r3
 800033a:	4629      	mov	r1, r5
 800033c:	bd30      	pop	{r4, r5, pc}
 800033e:	fa21 f004 	lsr.w	r0, r1, r4
 8000342:	4629      	mov	r1, r5
 8000344:	bd30      	pop	{r4, r5, pc}
 8000346:	f094 0f00 	teq	r4, #0
 800034a:	f483 1380 	eor.w	r3, r3, #1048576	@ 0x100000
 800034e:	bf06      	itte	eq
 8000350:	f481 1180 	eoreq.w	r1, r1, #1048576	@ 0x100000
 8000354:	3401      	addeq	r4, #1
 8000356:	3d01      	subne	r5, #1
 8000358:	e74e      	b.n	80001f8 <__adddf3+0x8c>
 800035a:	ea7f 5c64 	mvns.w	ip, r4, asr #21
 800035e:	bf18      	it	ne
 8000360:	ea7f 5c65 	mvnsne.w	ip, r5, asr #21
 8000364:	d029      	beq.n	80003ba <__adddf3+0x24e>
 8000366:	ea94 0f05 	teq	r4, r5
 800036a:	bf08      	it	eq
 800036c:	ea90 0f02 	teqeq	r0, r2
 8000370:	d005      	beq.n	800037e <__adddf3+0x212>
 8000372:	ea54 0c00 	orrs.w	ip, r4, r0
 8000376:	bf04      	itt	eq
 8000378:	4619      	moveq	r1, r3
 800037a:	4610      	moveq	r0, r2
 800037c:	bd30      	pop	{r4, r5, pc}
 800037e:	ea91 0f03 	teq	r1, r3
 8000382:	bf1e      	ittt	ne
 8000384:	2100      	movne	r1, #0
 8000386:	2000      	movne	r0, #0
 8000388:	bd30      	popne	{r4, r5, pc}
 800038a:	ea5f 5c54 	movs.w	ip, r4, lsr #21
 800038e:	d105      	bne.n	800039c <__adddf3+0x230>
 8000390:	0040      	lsls	r0, r0, #1
 8000392:	4149      	adcs	r1, r1
 8000394:	bf28      	it	cs
 8000396:	f041 4100 	orrcs.w	r1, r1, #2147483648	@ 0x80000000
 800039a:	bd30      	pop	{r4, r5, pc}
 800039c:	f514 0480 	adds.w	r4, r4, #4194304	@ 0x400000
 80003a0:	bf3c      	itt	cc
 80003a2:	f501 1180 	addcc.w	r1, r1, #1048576	@ 0x100000
 80003a6:	bd30      	popcc	{r4, r5, pc}
 80003a8:	f001 4500 	and.w	r5, r1, #2147483648	@ 0x80000000
 80003ac:	f045 41fe 	orr.w	r1, r5, #2130706432	@ 0x7f000000
 80003b0:	f441 0170 	orr.w	r1, r1, #15728640	@ 0xf00000
 80003b4:	f04f 0000 	mov.w	r0, #0
 80003b8:	bd30      	pop	{r4, r5, pc}
 80003ba:	ea7f 5c64 	mvns.w	ip, r4, asr #21
 80003be:	bf1a      	itte	ne
 80003c0:	4619      	movne	r1, r3
 80003c2:	4610      	movne	r0, r2
 80003c4:	ea7f 5c65 	mvnseq.w	ip, r5, asr #21
 80003c8:	bf1c      	itt	ne
 80003ca:	460b      	movne	r3, r1
 80003cc:	4602      	movne	r2, r0
 80003ce:	ea50 3401 	orrs.w	r4, r0, r1, lsl #12
 80003d2:	bf06      	itte	eq
 80003d4:	ea52 3503 	orrseq.w	r5, r2, r3, lsl #12
 80003d8:	ea91 0f03 	teqeq	r1, r3
 80003dc:	f441 2100 	orrne.w	r1, r1, #524288	@ 0x80000
 80003e0:	bd30      	pop	{r4, r5, pc}
 80003e2:	bf00      	nop

080003e4 <__aeabi_ui2d>:
 80003e4:	f090 0f00 	teq	r0, #0
 80003e8:	bf04      	itt	eq
 80003ea:	2100      	moveq	r1, #0
 80003ec:	4770      	bxeq	lr
 80003ee:	b530      	push	{r4, r5, lr}
 80003f0:	f44f 6480 	mov.w	r4, #1024	@ 0x400
 80003f4:	f104 0432 	add.w	r4, r4, #50	@ 0x32
 80003f8:	f04f 0500 	mov.w	r5, #0
 80003fc:	f04f 0100 	mov.w	r1, #0
 8000400:	e750      	b.n	80002a4 <__adddf3+0x138>
 8000402:	bf00      	nop

08000404 <__aeabi_i2d>:
 8000404:	f090 0f00 	teq	r0, #0
 8000408:	bf04      	itt	eq
 800040a:	2100      	moveq	r1, #0
 800040c:	4770      	bxeq	lr
 800040e:	b530      	push	{r4, r5, lr}
 8000410:	f44f 6480 	mov.w	r4, #1024	@ 0x400
 8000414:	f104 0432 	add.w	r4, r4, #50	@ 0x32
 8000418:	f010 4500 	ands.w	r5, r0, #2147483648	@ 0x80000000
 800041c:	bf48      	it	mi
 800041e:	4240      	negmi	r0, r0
 8000420:	f04f 0100 	mov.w	r1, #0
 8000424:	e73e      	b.n	80002a4 <__adddf3+0x138>
 8000426:	bf00      	nop

08000428 <__aeabi_f2d>:
 8000428:	0042      	lsls	r2, r0, #1
 800042a:	ea4f 01e2 	mov.w	r1, r2, asr #3
 800042e:	ea4f 0131 	mov.w	r1, r1, rrx
 8000432:	ea4f 7002 	mov.w	r0, r2, lsl #28
 8000436:	bf1f      	itttt	ne
 8000438:	f012 437f 	andsne.w	r3, r2, #4278190080	@ 0xff000000
 800043c:	f093 4f7f 	teqne	r3, #4278190080	@ 0xff000000
 8000440:	f081 5160 	eorne.w	r1, r1, #939524096	@ 0x38000000
 8000444:	4770      	bxne	lr
 8000446:	f032 427f 	bics.w	r2, r2, #4278190080	@ 0xff000000
 800044a:	bf08      	it	eq
 800044c:	4770      	bxeq	lr
 800044e:	f093 4f7f 	teq	r3, #4278190080	@ 0xff000000
 8000452:	bf04      	itt	eq
 8000454:	f441 2100 	orreq.w	r1, r1, #524288	@ 0x80000
 8000458:	4770      	bxeq	lr
 800045a:	b530      	push	{r4, r5, lr}
 800045c:	f44f 7460 	mov.w	r4, #896	@ 0x380
 8000460:	f001 4500 	and.w	r5, r1, #2147483648	@ 0x80000000
 8000464:	f021 4100 	bic.w	r1, r1, #2147483648	@ 0x80000000
 8000468:	e71c      	b.n	80002a4 <__adddf3+0x138>
 800046a:	bf00      	nop

0800046c <__aeabi_ul2d>:
 800046c:	ea50 0201 	orrs.w	r2, r0, r1
 8000470:	bf08      	it	eq
 8000472:	4770      	bxeq	lr
 8000474:	b530      	push	{r4, r5, lr}
 8000476:	f04f 0500 	mov.w	r5, #0
 800047a:	e00a      	b.n	8000492 <__aeabi_l2d+0x16>

0800047c <__aeabi_l2d>:
 800047c:	ea50 0201 	orrs.w	r2, r0, r1
 8000480:	bf08      	it	eq
 8000482:	4770      	bxeq	lr
 8000484:	b530      	push	{r4, r5, lr}
 8000486:	f011 4500 	ands.w	r5, r1, #2147483648	@ 0x80000000
 800048a:	d502      	bpl.n	8000492 <__aeabi_l2d+0x16>
 800048c:	4240      	negs	r0, r0
 800048e:	eb61 0141 	sbc.w	r1, r1, r1, lsl #1
 8000492:	f44f 6480 	mov.w	r4, #1024	@ 0x400
 8000496:	f104 0432 	add.w	r4, r4, #50	@ 0x32
 800049a:	ea5f 5c91 	movs.w	ip, r1, lsr #22
 800049e:	f43f aed8 	beq.w	8000252 <__adddf3+0xe6>
 80004a2:	f04f 0203 	mov.w	r2, #3
 80004a6:	ea5f 0cdc 	movs.w	ip, ip, lsr #3
 80004aa:	bf18      	it	ne
 80004ac:	3203      	addne	r2, #3
 80004ae:	ea5f 0cdc 	movs.w	ip, ip, lsr #3
 80004b2:	bf18      	it	ne
 80004b4:	3203      	addne	r2, #3
 80004b6:	eb02 02dc 	add.w	r2, r2, ip, lsr #3
 80004ba:	f1c2 0320 	rsb	r3, r2, #32
 80004be:	fa00 fc03 	lsl.w	ip, r0, r3
 80004c2:	fa20 f002 	lsr.w	r0, r0, r2
 80004c6:	fa01 fe03 	lsl.w	lr, r1, r3
 80004ca:	ea40 000e 	orr.w	r0, r0, lr
 80004ce:	fa21 f102 	lsr.w	r1, r1, r2
 80004d2:	4414      	add	r4, r2
 80004d4:	e6bd      	b.n	8000252 <__adddf3+0xe6>
 80004d6:	bf00      	nop

080004d8 <__aeabi_dmul>:
 80004d8:	b570      	push	{r4, r5, r6, lr}
 80004da:	f04f 0cff 	mov.w	ip, #255	@ 0xff
 80004de:	f44c 6ce0 	orr.w	ip, ip, #1792	@ 0x700
 80004e2:	ea1c 5411 	ands.w	r4, ip, r1, lsr #20
 80004e6:	bf1d      	ittte	ne
 80004e8:	ea1c 5513 	andsne.w	r5, ip, r3, lsr #20
 80004ec:	ea94 0f0c 	teqne	r4, ip
 80004f0:	ea95 0f0c 	teqne	r5, ip
 80004f4:	f000 f8de 	bleq	80006b4 <__aeabi_dmul+0x1dc>
 80004f8:	442c      	add	r4, r5
 80004fa:	ea81 0603 	eor.w	r6, r1, r3
 80004fe:	ea21 514c 	bic.w	r1, r1, ip, lsl #21
 8000502:	ea23 534c 	bic.w	r3, r3, ip, lsl #21
 8000506:	ea50 3501 	orrs.w	r5, r0, r1, lsl #12
 800050a:	bf18      	it	ne
 800050c:	ea52 3503 	orrsne.w	r5, r2, r3, lsl #12
 8000510:	f441 1180 	orr.w	r1, r1, #1048576	@ 0x100000
 8000514:	f443 1380 	orr.w	r3, r3, #1048576	@ 0x100000
 8000518:	d038      	beq.n	800058c <__aeabi_dmul+0xb4>
 800051a:	fba0 ce02 	umull	ip, lr, r0, r2
 800051e:	f04f 0500 	mov.w	r5, #0
 8000522:	fbe1 e502 	umlal	lr, r5, r1, r2
 8000526:	f006 4200 	and.w	r2, r6, #2147483648	@ 0x80000000
 800052a:	fbe0 e503 	umlal	lr, r5, r0, r3
 800052e:	f04f 0600 	mov.w	r6, #0
 8000532:	fbe1 5603 	umlal	r5, r6, r1, r3
 8000536:	f09c 0f00 	teq	ip, #0
 800053a:	bf18      	it	ne
 800053c:	f04e 0e01 	orrne.w	lr, lr, #1
 8000540:	f1a4 04ff 	sub.w	r4, r4, #255	@ 0xff
 8000544:	f5b6 7f00 	cmp.w	r6, #512	@ 0x200
 8000548:	f564 7440 	sbc.w	r4, r4, #768	@ 0x300
 800054c:	d204      	bcs.n	8000558 <__aeabi_dmul+0x80>
 800054e:	ea5f 0e4e 	movs.w	lr, lr, lsl #1
 8000552:	416d      	adcs	r5, r5
 8000554:	eb46 0606 	adc.w	r6, r6, r6
 8000558:	ea42 21c6 	orr.w	r1, r2, r6, lsl #11
 800055c:	ea41 5155 	orr.w	r1, r1, r5, lsr #21
 8000560:	ea4f 20c5 	mov.w	r0, r5, lsl #11
 8000564:	ea40 505e 	orr.w	r0, r0, lr, lsr #21
 8000568:	ea4f 2ece 	mov.w	lr, lr, lsl #11
 800056c:	f1b4 0cfd 	subs.w	ip, r4, #253	@ 0xfd
 8000570:	bf88      	it	hi
 8000572:	f5bc 6fe0 	cmphi.w	ip, #1792	@ 0x700
 8000576:	d81e      	bhi.n	80005b6 <__aeabi_dmul+0xde>
 8000578:	f1be 4f00 	cmp.w	lr, #2147483648	@ 0x80000000
 800057c:	bf08      	it	eq
 800057e:	ea5f 0e50 	movseq.w	lr, r0, lsr #1
 8000582:	f150 0000 	adcs.w	r0, r0, #0
 8000586:	eb41 5104 	adc.w	r1, r1, r4, lsl #20
 800058a:	bd70      	pop	{r4, r5, r6, pc}
 800058c:	f006 4600 	and.w	r6, r6, #2147483648	@ 0x80000000
 8000590:	ea46 0101 	orr.w	r1, r6, r1
 8000594:	ea40 0002 	orr.w	r0, r0, r2
 8000598:	ea81 0103 	eor.w	r1, r1, r3
 800059c:	ebb4 045c 	subs.w	r4, r4, ip, lsr #1
 80005a0:	bfc2      	ittt	gt
 80005a2:	ebd4 050c 	rsbsgt	r5, r4, ip
 80005a6:	ea41 5104 	orrgt.w	r1, r1, r4, lsl #20
 80005aa:	bd70      	popgt	{r4, r5, r6, pc}
 80005ac:	f441 1180 	orr.w	r1, r1, #1048576	@ 0x100000
 80005b0:	f04f 0e00 	mov.w	lr, #0
 80005b4:	3c01      	subs	r4, #1
 80005b6:	f300 80ab 	bgt.w	8000710 <__aeabi_dmul+0x238>
 80005ba:	f114 0f36 	cmn.w	r4, #54	@ 0x36
 80005be:	bfde      	ittt	le
 80005c0:	2000      	movle	r0, #0
 80005c2:	f001 4100 	andle.w	r1, r1, #2147483648	@ 0x80000000
 80005c6:	bd70      	pople	{r4, r5, r6, pc}
 80005c8:	f1c4 0400 	rsb	r4, r4, #0
 80005cc:	3c20      	subs	r4, #32
 80005ce:	da35      	bge.n	800063c <__aeabi_dmul+0x164>
 80005d0:	340c      	adds	r4, #12
 80005d2:	dc1b      	bgt.n	800060c <__aeabi_dmul+0x134>
 80005d4:	f104 0414 	add.w	r4, r4, #20
 80005d8:	f1c4 0520 	rsb	r5, r4, #32
 80005dc:	fa00 f305 	lsl.w	r3, r0, r5
 80005e0:	fa20 f004 	lsr.w	r0, r0, r4
 80005e4:	fa01 f205 	lsl.w	r2, r1, r5
 80005e8:	ea40 0002 	orr.w	r0, r0, r2
 80005ec:	f001 4200 	and.w	r2, r1, #2147483648	@ 0x80000000
 80005f0:	f021 4100 	bic.w	r1, r1, #2147483648	@ 0x80000000
 80005f4:	eb10 70d3 	adds.w	r0, r0, r3, lsr #31
 80005f8:	fa21 f604 	lsr.w	r6, r1, r4
 80005fc:	eb42 0106 	adc.w	r1, r2, r6
 8000600:	ea5e 0e43 	orrs.w	lr, lr, r3, lsl #1
 8000604:	bf08      	it	eq
 8000606:	ea20 70d3 	biceq.w	r0, r0, r3, lsr #31
 800060a:	bd70      	pop	{r4, r5, r6, pc}
 800060c:	f1c4 040c 	rsb	r4, r4, #12
 8000610:	f1c4 0520 	rsb	r5, r4, #32
 8000614:	fa00 f304 	lsl.w	r3, r0, r4
 8000618:	fa20 f005 	lsr.w	r0, r0, r5
 800061c:	fa01 f204 	lsl.w	r2, r1, r4
 8000620:	ea40 0002 	orr.w	r0, r0, r2
 8000624:	f001 4100 	and.w	r1, r1, #2147483648	@ 0x80000000
 8000628:	eb10 70d3 	adds.w	r0, r0, r3, lsr #31
 800062c:	f141 0100 	adc.w	r1, r1, #0
 8000630:	ea5e 0e43 	orrs.w	lr, lr, r3, lsl #1
 8000634:	bf08      	it	eq
 8000636:	ea20 70d3 	biceq.w	r0, r0, r3, lsr #31
 800063a:	bd70      	pop	{r4, r5, r6, pc}
 800063c:	f1c4 0520 	rsb	r5, r4, #32
 8000640:	fa00 f205 	lsl.w	r2, r0, r5
 8000644:	ea4e 0e02 	orr.w	lr, lr, r2
 8000648:	fa20 f304 	lsr.w	r3, r0, r4
 800064c:	fa01 f205 	lsl.w	r2, r1, r5
 8000650:	ea43 0302 	orr.w	r3, r3, r2
 8000654:	fa21 f004 	lsr.w	r0, r1, r4
 8000658:	f001 4100 	and.w	r1, r1, #2147483648	@ 0x80000000
 800065c:	fa21 f204 	lsr.w	r2, r1, r4
 8000660:	ea20 0002 	bic.w	r0, r0, r2
 8000664:	eb00 70d3 	add.w	r0, r0, r3, lsr #31
 8000668:	ea5e 0e43 	orrs.w	lr, lr, r3, lsl #1
 800066c:	bf08      	it	eq
 800066e:	ea20 70d3 	biceq.w	r0, r0, r3, lsr #31
 8000672:	bd70      	pop	{r4, r5, r6, pc}
 8000674:	f094 0f00 	teq	r4, #0
 8000678:	d10f      	bne.n	800069a <__aeabi_dmul+0x1c2>
 800067a:	f001 4600 	and.w	r6, r1, #2147483648	@ 0x80000000
 800067e:	0040      	lsls	r0, r0, #1
 8000680:	eb41 0101 	adc.w	r1, r1, r1
 8000684:	f411 1f80 	tst.w	r1, #1048576	@ 0x100000
 8000688:	bf08      	it	eq
 800068a:	3c01      	subeq	r4, #1
 800068c:	d0f7      	beq.n	800067e <__aeabi_dmul+0x1a6>
 800068e:	ea41 0106 	orr.w	r1, r1, r6
 8000692:	f095 0f00 	teq	r5, #0
 8000696:	bf18      	it	ne
 8000698:	4770      	bxne	lr
 800069a:	f003 4600 	and.w	r6, r3, #2147483648	@ 0x80000000
 800069e:	0052      	lsls	r2, r2, #1
 80006a0:	eb43 0303 	adc.w	r3, r3, r3
 80006a4:	f413 1f80 	tst.w	r3, #1048576	@ 0x100000
 80006a8:	bf08      	it	eq
 80006aa:	3d01      	subeq	r5, #1
 80006ac:	d0f7      	beq.n	800069e <__aeabi_dmul+0x1c6>
 80006ae:	ea43 0306 	orr.w	r3, r3, r6
 80006b2:	4770      	bx	lr
 80006b4:	ea94 0f0c 	teq	r4, ip
 80006b8:	ea0c 5513 	and.w	r5, ip, r3, lsr #20
 80006bc:	bf18      	it	ne
 80006be:	ea95 0f0c 	teqne	r5, ip
 80006c2:	d00c      	beq.n	80006de <__aeabi_dmul+0x206>
 80006c4:	ea50 0641 	orrs.w	r6, r0, r1, lsl #1
 80006c8:	bf18      	it	ne
 80006ca:	ea52 0643 	orrsne.w	r6, r2, r3, lsl #1
 80006ce:	d1d1      	bne.n	8000674 <__aeabi_dmul+0x19c>
 80006d0:	ea81 0103 	eor.w	r1, r1, r3
 80006d4:	f001 4100 	and.w	r1, r1, #2147483648	@ 0x80000000
 80006d8:	f04f 0000 	mov.w	r0, #0
 80006dc:	bd70      	pop	{r4, r5, r6, pc}
 80006de:	ea50 0641 	orrs.w	r6, r0, r1, lsl #1
 80006e2:	bf06      	itte	eq
 80006e4:	4610      	moveq	r0, r2
 80006e6:	4619      	moveq	r1, r3
 80006e8:	ea52 0643 	orrsne.w	r6, r2, r3, lsl #1
 80006ec:	d019      	beq.n	8000722 <__aeabi_dmul+0x24a>
 80006ee:	ea94 0f0c 	teq	r4, ip
 80006f2:	d102      	bne.n	80006fa <__aeabi_dmul+0x222>
 80006f4:	ea50 3601 	orrs.w	r6, r0, r1, lsl #12
 80006f8:	d113      	bne.n	8000722 <__aeabi_dmul+0x24a>
 80006fa:	ea95 0f0c 	teq	r5, ip
 80006fe:	d105      	bne.n	800070c <__aeabi_dmul+0x234>
 8000700:	ea52 3603 	orrs.w	r6, r2, r3, lsl #12
 8000704:	bf1c      	itt	ne
 8000706:	4610      	movne	r0, r2
 8000708:	4619      	movne	r1, r3
 800070a:	d10a      	bne.n	8000722 <__aeabi_dmul+0x24a>
 800070c:	ea81 0103 	eor.w	r1, r1, r3
 8000710:	f001 4100 	and.w	r1, r1, #2147483648	@ 0x80000000
 8000714:	f041 41fe 	orr.w	r1, r1, #2130706432	@ 0x7f000000
 8000718:	f441 0170 	orr.w	r1, r1, #15728640	@ 0xf00000
 800071c:	f04f 0000 	mov.w	r0, #0
 8000720:	bd70      	pop	{r4, r5, r6, pc}
 8000722:	f041 41fe 	orr.w	r1, r1, #2130706432	@ 0x7f000000
 8000726:	f441 0178 	orr.w	r1, r1, #16252928	@ 0xf80000
 800072a:	bd70      	pop	{r4, r5, r6, pc}

0800072c <__aeabi_ddiv>:
 800072c:	b570      	push	{r4, r5, r6, lr}
 800072e:	f04f 0cff 	mov.w	ip, #255	@ 0xff
 8000732:	f44c 6ce0 	orr.w	ip, ip, #1792	@ 0x700
 8000736:	ea1c 5411 	ands.w	r4, ip, r1, lsr #20
 800073a:	bf1d      	ittte	ne
 800073c:	ea1c 5513 	andsne.w	r5, ip, r3, lsr #20
 8000740:	ea94 0f0c 	teqne	r4, ip
 8000744:	ea95 0f0c 	teqne	r5, ip
 8000748:	f000 f8a7 	bleq	800089a <__aeabi_ddiv+0x16e>
 800074c:	eba4 0405 	sub.w	r4, r4, r5
 8000750:	ea81 0e03 	eor.w	lr, r1, r3
 8000754:	ea52 3503 	orrs.w	r5, r2, r3, lsl #12
 8000758:	ea4f 3101 	mov.w	r1, r1, lsl #12
 800075c:	f000 8088 	beq.w	8000870 <__aeabi_ddiv+0x144>
 8000760:	ea4f 3303 	mov.w	r3, r3, lsl #12
 8000764:	f04f 5580 	mov.w	r5, #268435456	@ 0x10000000
 8000768:	ea45 1313 	orr.w	r3, r5, r3, lsr #4
 800076c:	ea43 6312 	orr.w	r3, r3, r2, lsr #24
 8000770:	ea4f 2202 	mov.w	r2, r2, lsl #8
 8000774:	ea45 1511 	orr.w	r5, r5, r1, lsr #4
 8000778:	ea45 6510 	orr.w	r5, r5, r0, lsr #24
 800077c:	ea4f 2600 	mov.w	r6, r0, lsl #8
 8000780:	f00e 4100 	and.w	r1, lr, #2147483648	@ 0x80000000
 8000784:	429d      	cmp	r5, r3
 8000786:	bf08      	it	eq
 8000788:	4296      	cmpeq	r6, r2
 800078a:	f144 04fd 	adc.w	r4, r4, #253	@ 0xfd
 800078e:	f504 7440 	add.w	r4, r4, #768	@ 0x300
 8000792:	d202      	bcs.n	800079a <__aeabi_ddiv+0x6e>
 8000794:	085b      	lsrs	r3, r3, #1
 8000796:	ea4f 0232 	mov.w	r2, r2, rrx
 800079a:	1ab6      	subs	r6, r6, r2
 800079c:	eb65 0503 	sbc.w	r5, r5, r3
 80007a0:	085b      	lsrs	r3, r3, #1
 80007a2:	ea4f 0232 	mov.w	r2, r2, rrx
 80007a6:	f44f 1080 	mov.w	r0, #1048576	@ 0x100000
 80007aa:	f44f 2c00 	mov.w	ip, #524288	@ 0x80000
 80007ae:	ebb6 0e02 	subs.w	lr, r6, r2
 80007b2:	eb75 0e03 	sbcs.w	lr, r5, r3
 80007b6:	bf22      	ittt	cs
 80007b8:	1ab6      	subcs	r6, r6, r2
 80007ba:	4675      	movcs	r5, lr
 80007bc:	ea40 000c 	orrcs.w	r0, r0, ip
 80007c0:	085b      	lsrs	r3, r3, #1
 80007c2:	ea4f 0232 	mov.w	r2, r2, rrx
 80007c6:	ebb6 0e02 	subs.w	lr, r6, r2
 80007ca:	eb75 0e03 	sbcs.w	lr, r5, r3
 80007ce:	bf22      	ittt	cs
 80007d0:	1ab6      	subcs	r6, r6, r2
 80007d2:	4675      	movcs	r5, lr
 80007d4:	ea40 005c 	orrcs.w	r0, r0, ip, lsr #1
 80007d8:	085b      	lsrs	r3, r3, #1
 80007da:	ea4f 0232 	mov.w	r2, r2, rrx
 80007de:	ebb6 0e02 	subs.w	lr, r6, r2
 80007e2:	eb75 0e03 	sbcs.w	lr, r5, r3
 80007e6:	bf22      	ittt	cs
 80007e8:	1ab6      	subcs	r6, r6, r2
 80007ea:	4675      	movcs	r5, lr
 80007ec:	ea40 009c 	orrcs.w	r0, r0, ip, lsr #2
 80007f0:	085b      	lsrs	r3, r3, #1
 80007f2:	ea4f 0232 	mov.w	r2, r2, rrx
 80007f6:	ebb6 0e02 	subs.w	lr, r6, r2
 80007fa:	eb75 0e03 	sbcs.w	lr, r5, r3
 80007fe:	bf22      	ittt	cs
 8000800:	1ab6      	subcs	r6, r6, r2
 8000802:	4675      	movcs	r5, lr
 8000804:	ea40 00dc 	orrcs.w	r0, r0, ip, lsr #3
 8000808:	ea55 0e06 	orrs.w	lr, r5, r6
 800080c:	d018      	beq.n	8000840 <__aeabi_ddiv+0x114>
 800080e:	ea4f 1505 	mov.w	r5, r5, lsl #4
 8000812:	ea45 7516 	orr.w	r5, r5, r6, lsr #28
 8000816:	ea4f 1606 	mov.w	r6, r6, lsl #4
 800081a:	ea4f 03c3 	mov.w	r3, r3, lsl #3
 800081e:	ea43 7352 	orr.w	r3, r3, r2, lsr #29
 8000822:	ea4f 02c2 	mov.w	r2, r2, lsl #3
 8000826:	ea5f 1c1c 	movs.w	ip, ip, lsr #4
 800082a:	d1c0      	bne.n	80007ae <__aeabi_ddiv+0x82>
 800082c:	f411 1f80 	tst.w	r1, #1048576	@ 0x100000
 8000830:	d10b      	bne.n	800084a <__aeabi_ddiv+0x11e>
 8000832:	ea41 0100 	orr.w	r1, r1, r0
 8000836:	f04f 0000 	mov.w	r0, #0
 800083a:	f04f 4c00 	mov.w	ip, #2147483648	@ 0x80000000
 800083e:	e7b6      	b.n	80007ae <__aeabi_ddiv+0x82>
 8000840:	f411 1f80 	tst.w	r1, #1048576	@ 0x100000
 8000844:	bf04      	itt	eq
 8000846:	4301      	orreq	r1, r0
 8000848:	2000      	moveq	r0, #0
 800084a:	f1b4 0cfd 	subs.w	ip, r4, #253	@ 0xfd
 800084e:	bf88      	it	hi
 8000850:	f5bc 6fe0 	cmphi.w	ip, #1792	@ 0x700
 8000854:	f63f aeaf 	bhi.w	80005b6 <__aeabi_dmul+0xde>
 8000858:	ebb5 0c03 	subs.w	ip, r5, r3
 800085c:	bf04      	itt	eq
 800085e:	ebb6 0c02 	subseq.w	ip, r6, r2
 8000862:	ea5f 0c50 	movseq.w	ip, r0, lsr #1
 8000866:	f150 0000 	adcs.w	r0, r0, #0
 800086a:	eb41 5104 	adc.w	r1, r1, r4, lsl #20
 800086e:	bd70      	pop	{r4, r5, r6, pc}
 8000870:	f00e 4e00 	and.w	lr, lr, #2147483648	@ 0x80000000
 8000874:	ea4e 3111 	orr.w	r1, lr, r1, lsr #12
 8000878:	eb14 045c 	adds.w	r4, r4, ip, lsr #1
 800087c:	bfc2      	ittt	gt
 800087e:	ebd4 050c 	rsbsgt	r5, r4, ip
 8000882:	ea41 5104 	orrgt.w	r1, r1, r4, lsl #20
 8000886:	bd70      	popgt	{r4, r5, r6, pc}
 8000888:	f441 1180 	orr.w	r1, r1, #1048576	@ 0x100000
 800088c:	f04f 0e00 	mov.w	lr, #0
 8000890:	3c01      	subs	r4, #1
 8000892:	e690      	b.n	80005b6 <__aeabi_dmul+0xde>
 8000894:	ea45 0e06 	orr.w	lr, r5, r6
 8000898:	e68d      	b.n	80005b6 <__aeabi_dmul+0xde>
 800089a:	ea0c 5513 	and.w	r5, ip, r3, lsr #20
 800089e:	ea94 0f0c 	teq	r4, ip
 80008a2:	bf08      	it	eq
 80008a4:	ea95 0f0c 	teqeq	r5, ip
 80008a8:	f43f af3b 	beq.w	8000722 <__aeabi_dmul+0x24a>
 80008ac:	ea94 0f0c 	teq	r4, ip
 80008b0:	d10a      	bne.n	80008c8 <__aeabi_ddiv+0x19c>
 80008b2:	ea50 3401 	orrs.w	r4, r0, r1, lsl #12
 80008b6:	f47f af34 	bne.w	8000722 <__aeabi_dmul+0x24a>
 80008ba:	ea95 0f0c 	teq	r5, ip
 80008be:	f47f af25 	bne.w	800070c <__aeabi_dmul+0x234>
 80008c2:	4610      	mov	r0, r2
 80008c4:	4619      	mov	r1, r3
 80008c6:	e72c      	b.n	8000722 <__aeabi_dmul+0x24a>
 80008c8:	ea95 0f0c 	teq	r5, ip
 80008cc:	d106      	bne.n	80008dc <__aeabi_ddiv+0x1b0>
 80008ce:	ea52 3503 	orrs.w	r5, r2, r3, lsl #12
 80008d2:	f43f aefd 	beq.w	80006d0 <__aeabi_dmul+0x1f8>
 80008d6:	4610      	mov	r0, r2
 80008d8:	4619      	mov	r1, r3
 80008da:	e722      	b.n	8000722 <__aeabi_dmul+0x24a>
 80008dc:	ea50 0641 	orrs.w	r6, r0, r1, lsl #1
 80008e0:	bf18      	it	ne
 80008e2:	ea52 0643 	orrsne.w	r6, r2, r3, lsl #1
 80008e6:	f47f aec5 	bne.w	8000674 <__aeabi_dmul+0x19c>
 80008ea:	ea50 0441 	orrs.w	r4, r0, r1, lsl #1
 80008ee:	f47f af0d 	bne.w	800070c <__aeabi_dmul+0x234>
 80008f2:	ea52 0543 	orrs.w	r5, r2, r3, lsl #1
 80008f6:	f47f aeeb 	bne.w	80006d0 <__aeabi_dmul+0x1f8>
 80008fa:	e712      	b.n	8000722 <__aeabi_dmul+0x24a>

080008fc <__gedf2>:
 80008fc:	f04f 3cff 	mov.w	ip, #4294967295
 8000900:	e006      	b.n	8000910 <__cmpdf2+0x4>
 8000902:	bf00      	nop

08000904 <__ledf2>:
 8000904:	f04f 0c01 	mov.w	ip, #1
 8000908:	e002      	b.n	8000910 <__cmpdf2+0x4>
 800090a:	bf00      	nop

0800090c <__cmpdf2>:
 800090c:	f04f 0c01 	mov.w	ip, #1
 8000910:	f84d cd04 	str.w	ip, [sp, #-4]!
 8000914:	ea4f 0c41 	mov.w	ip, r1, lsl #1
 8000918:	ea7f 5c6c 	mvns.w	ip, ip, asr #21
 800091c:	ea4f 0c43 	mov.w	ip, r3, lsl #1
 8000920:	bf18      	it	ne
 8000922:	ea7f 5c6c 	mvnsne.w	ip, ip, asr #21
 8000926:	d01b      	beq.n	8000960 <__cmpdf2+0x54>
 8000928:	b001      	add	sp, #4
 800092a:	ea50 0c41 	orrs.w	ip, r0, r1, lsl #1
 800092e:	bf0c      	ite	eq
 8000930:	ea52 0c43 	orrseq.w	ip, r2, r3, lsl #1
 8000934:	ea91 0f03 	teqne	r1, r3
 8000938:	bf02      	ittt	eq
 800093a:	ea90 0f02 	teqeq	r0, r2
 800093e:	2000      	moveq	r0, #0
 8000940:	4770      	bxeq	lr
 8000942:	f110 0f00 	cmn.w	r0, #0
 8000946:	ea91 0f03 	teq	r1, r3
 800094a:	bf58      	it	pl
 800094c:	4299      	cmppl	r1, r3
 800094e:	bf08      	it	eq
 8000950:	4290      	cmpeq	r0, r2
 8000952:	bf2c      	ite	cs
 8000954:	17d8      	asrcs	r0, r3, #31
 8000956:	ea6f 70e3 	mvncc.w	r0, r3, asr #31
 800095a:	f040 0001 	orr.w	r0, r0, #1
 800095e:	4770      	bx	lr
 8000960:	ea4f 0c41 	mov.w	ip, r1, lsl #1
 8000964:	ea7f 5c6c 	mvns.w	ip, ip, asr #21
 8000968:	d102      	bne.n	8000970 <__cmpdf2+0x64>
 800096a:	ea50 3c01 	orrs.w	ip, r0, r1, lsl #12
 800096e:	d107      	bne.n	8000980 <__cmpdf2+0x74>
 8000970:	ea4f 0c43 	mov.w	ip, r3, lsl #1
 8000974:	ea7f 5c6c 	mvns.w	ip, ip, asr #21
 8000978:	d1d6      	bne.n	8000928 <__cmpdf2+0x1c>
 800097a:	ea52 3c03 	orrs.w	ip, r2, r3, lsl #12
 800097e:	d0d3      	beq.n	8000928 <__cmpdf2+0x1c>
 8000980:	f85d 0b04 	ldr.w	r0, [sp], #4
 8000984:	4770      	bx	lr
 8000986:	bf00      	nop

08000988 <__aeabi_cdrcmple>:
 8000988:	4684      	mov	ip, r0
 800098a:	4610      	mov	r0, r2
 800098c:	4662      	mov	r2, ip
 800098e:	468c      	mov	ip, r1
 8000990:	4619      	mov	r1, r3
 8000992:	4663      	mov	r3, ip
 8000994:	e000      	b.n	8000998 <__aeabi_cdcmpeq>
 8000996:	bf00      	nop

08000998 <__aeabi_cdcmpeq>:
 8000998:	b501      	push	{r0, lr}
 800099a:	f7ff ffb7 	bl	800090c <__cmpdf2>
 800099e:	2800      	cmp	r0, #0
 80009a0:	bf48      	it	mi
 80009a2:	f110 0f00 	cmnmi.w	r0, #0
 80009a6:	bd01      	pop	{r0, pc}

080009a8 <__aeabi_dcmpeq>:
 80009a8:	f84d ed08 	str.w	lr, [sp, #-8]!
 80009ac:	f7ff fff4 	bl	8000998 <__aeabi_cdcmpeq>
 80009b0:	bf0c      	ite	eq
 80009b2:	2001      	moveq	r0, #1
 80009b4:	2000      	movne	r0, #0
 80009b6:	f85d fb08 	ldr.w	pc, [sp], #8
 80009ba:	bf00      	nop

080009bc <__aeabi_dcmplt>:
 80009bc:	f84d ed08 	str.w	lr, [sp, #-8]!
 80009c0:	f7ff ffea 	bl	8000998 <__aeabi_cdcmpeq>
 80009c4:	bf34      	ite	cc
 80009c6:	2001      	movcc	r0, #1
 80009c8:	2000      	movcs	r0, #0
 80009ca:	f85d fb08 	ldr.w	pc, [sp], #8
 80009ce:	bf00      	nop

080009d0 <__aeabi_dcmple>:
 80009d0:	f84d ed08 	str.w	lr, [sp, #-8]!
 80009d4:	f7ff ffe0 	bl	8000998 <__aeabi_cdcmpeq>
 80009d8:	bf94      	ite	ls
 80009da:	2001      	movls	r0, #1
 80009dc:	2000      	movhi	r0, #0
 80009de:	f85d fb08 	ldr.w	pc, [sp], #8
 80009e2:	bf00      	nop

080009e4 <__aeabi_dcmpge>:
 80009e4:	f84d ed08 	str.w	lr, [sp, #-8]!
 80009e8:	f7ff ffce 	bl	8000988 <__aeabi_cdrcmple>
 80009ec:	bf94      	ite	ls
 80009ee:	2001      	movls	r0, #1
 80009f0:	2000      	movhi	r0, #0
 80009f2:	f85d fb08 	ldr.w	pc, [sp], #8
 80009f6:	bf00      	nop

080009f8 <__aeabi_dcmpgt>:
 80009f8:	f84d ed08 	str.w	lr, [sp, #-8]!
 80009fc:	f7ff ffc4 	bl	8000988 <__aeabi_cdrcmple>
 8000a00:	bf34      	ite	cc
 8000a02:	2001      	movcc	r0, #1
 8000a04:	2000      	movcs	r0, #0
 8000a06:	f85d fb08 	ldr.w	pc, [sp], #8
 8000a0a:	bf00      	nop

08000a0c <__aeabi_dcmpun>:
 8000a0c:	ea4f 0c41 	mov.w	ip, r1, lsl #1
 8000a10:	ea7f 5c6c 	mvns.w	ip, ip, asr #21
 8000a14:	d102      	bne.n	8000a1c <__aeabi_dcmpun+0x10>
 8000a16:	ea50 3c01 	orrs.w	ip, r0, r1, lsl #12
 8000a1a:	d10a      	bne.n	8000a32 <__aeabi_dcmpun+0x26>
 8000a1c:	ea4f 0c43 	mov.w	ip, r3, lsl #1
 8000a20:	ea7f 5c6c 	mvns.w	ip, ip, asr #21
 8000a24:	d102      	bne.n	8000a2c <__aeabi_dcmpun+0x20>
 8000a26:	ea52 3c03 	orrs.w	ip, r2, r3, lsl #12
 8000a2a:	d102      	bne.n	8000a32 <__aeabi_dcmpun+0x26>
 8000a2c:	f04f 0000 	mov.w	r0, #0
 8000a30:	4770      	bx	lr
 8000a32:	f04f 0001 	mov.w	r0, #1
 8000a36:	4770      	bx	lr

08000a38 <__aeabi_d2iz>:
 8000a38:	ea4f 0241 	mov.w	r2, r1, lsl #1
 8000a3c:	f512 1200 	adds.w	r2, r2, #2097152	@ 0x200000
 8000a40:	d215      	bcs.n	8000a6e <__aeabi_d2iz+0x36>
 8000a42:	d511      	bpl.n	8000a68 <__aeabi_d2iz+0x30>
 8000a44:	f46f 7378 	mvn.w	r3, #992	@ 0x3e0
 8000a48:	ebb3 5262 	subs.w	r2, r3, r2, asr #21
 8000a4c:	d912      	bls.n	8000a74 <__aeabi_d2iz+0x3c>
 8000a4e:	ea4f 23c1 	mov.w	r3, r1, lsl #11
 8000a52:	f043 4300 	orr.w	r3, r3, #2147483648	@ 0x80000000
 8000a56:	ea43 5350 	orr.w	r3, r3, r0, lsr #21
 8000a5a:	f011 4f00 	tst.w	r1, #2147483648	@ 0x80000000
 8000a5e:	fa23 f002 	lsr.w	r0, r3, r2
 8000a62:	bf18      	it	ne
 8000a64:	4240      	negne	r0, r0
 8000a66:	4770      	bx	lr
 8000a68:	f04f 0000 	mov.w	r0, #0
 8000a6c:	4770      	bx	lr
 8000a6e:	ea50 3001 	orrs.w	r0, r0, r1, lsl #12
 8000a72:	d105      	bne.n	8000a80 <__aeabi_d2iz+0x48>
 8000a74:	f011 4000 	ands.w	r0, r1, #2147483648	@ 0x80000000
 8000a78:	bf08      	it	eq
 8000a7a:	f06f 4000 	mvneq.w	r0, #2147483648	@ 0x80000000
 8000a7e:	4770      	bx	lr
 8000a80:	f04f 0000 	mov.w	r0, #0
 8000a84:	4770      	bx	lr
 8000a86:	bf00      	nop

08000a88 <__aeabi_d2f>:
 8000a88:	ea4f 0241 	mov.w	r2, r1, lsl #1
 8000a8c:	f1b2 43e0 	subs.w	r3, r2, #1879048192	@ 0x70000000
 8000a90:	bf24      	itt	cs
 8000a92:	f5b3 1c00 	subscs.w	ip, r3, #2097152	@ 0x200000
 8000a96:	f1dc 5cfe 	rsbscs	ip, ip, #532676608	@ 0x1fc00000
 8000a9a:	d90d      	bls.n	8000ab8 <__aeabi_d2f+0x30>
 8000a9c:	f001 4c00 	and.w	ip, r1, #2147483648	@ 0x80000000
 8000aa0:	ea4f 02c0 	mov.w	r2, r0, lsl #3
 8000aa4:	ea4c 7050 	orr.w	r0, ip, r0, lsr #29
 8000aa8:	f1b2 4f00 	cmp.w	r2, #2147483648	@ 0x80000000
 8000aac:	eb40 0083 	adc.w	r0, r0, r3, lsl #2
 8000ab0:	bf08      	it	eq
 8000ab2:	f020 0001 	biceq.w	r0, r0, #1
 8000ab6:	4770      	bx	lr
 8000ab8:	f011 4f80 	tst.w	r1, #1073741824	@ 0x40000000
 8000abc:	d121      	bne.n	8000b02 <__aeabi_d2f+0x7a>
 8000abe:	f113 7238 	adds.w	r2, r3, #48234496	@ 0x2e00000
 8000ac2:	bfbc      	itt	lt
 8000ac4:	f001 4000 	andlt.w	r0, r1, #2147483648	@ 0x80000000
 8000ac8:	4770      	bxlt	lr
 8000aca:	f441 1180 	orr.w	r1, r1, #1048576	@ 0x100000
 8000ace:	ea4f 5252 	mov.w	r2, r2, lsr #21
 8000ad2:	f1c2 0218 	rsb	r2, r2, #24
 8000ad6:	f1c2 0c20 	rsb	ip, r2, #32
 8000ada:	fa10 f30c 	lsls.w	r3, r0, ip
 8000ade:	fa20 f002 	lsr.w	r0, r0, r2
 8000ae2:	bf18      	it	ne
 8000ae4:	f040 0001 	orrne.w	r0, r0, #1
 8000ae8:	ea4f 23c1 	mov.w	r3, r1, lsl #11
 8000aec:	ea4f 23d3 	mov.w	r3, r3, lsr #11
 8000af0:	fa03 fc0c 	lsl.w	ip, r3, ip
 8000af4:	ea40 000c 	orr.w	r0, r0, ip
 8000af8:	fa23 f302 	lsr.w	r3, r3, r2
 8000afc:	ea4f 0343 	mov.w	r3, r3, lsl #1
 8000b00:	e7cc      	b.n	8000a9c <__aeabi_d2f+0x14>
 8000b02:	ea7f 5362 	mvns.w	r3, r2, asr #21
 8000b06:	d107      	bne.n	8000b18 <__aeabi_d2f+0x90>
 8000b08:	ea50 3301 	orrs.w	r3, r0, r1, lsl #12
 8000b0c:	bf1e      	ittt	ne
 8000b0e:	f04f 40fe 	movne.w	r0, #2130706432	@ 0x7f000000
 8000b12:	f440 0040 	orrne.w	r0, r0, #12582912	@ 0xc00000
 8000b16:	4770      	bxne	lr
 8000b18:	f001 4000 	and.w	r0, r1, #2147483648	@ 0x80000000
 8000b1c:	f040 40fe 	orr.w	r0, r0, #2130706432	@ 0x7f000000
 8000b20:	f440 0000 	orr.w	r0, r0, #8388608	@ 0x800000
 8000b24:	4770      	bx	lr
 8000b26:	bf00      	nop

08000b28 <__aeabi_frsub>:
 8000b28:	f080 4000 	eor.w	r0, r0, #2147483648	@ 0x80000000
 8000b2c:	e002      	b.n	8000b34 <__addsf3>
 8000b2e:	bf00      	nop

08000b30 <__aeabi_fsub>:
 8000b30:	f081 4100 	eor.w	r1, r1, #2147483648	@ 0x80000000

08000b34 <__addsf3>:
 8000b34:	0042      	lsls	r2, r0, #1
 8000b36:	bf1f      	itttt	ne
 8000b38:	ea5f 0341 	movsne.w	r3, r1, lsl #1
 8000b3c:	ea92 0f03 	teqne	r2, r3
 8000b40:	ea7f 6c22 	mvnsne.w	ip, r2, asr #24
 8000b44:	ea7f 6c23 	mvnsne.w	ip, r3, asr #24
 8000b48:	d06a      	beq.n	8000c20 <__addsf3+0xec>
 8000b4a:	ea4f 6212 	mov.w	r2, r2, lsr #24
 8000b4e:	ebd2 6313 	rsbs	r3, r2, r3, lsr #24
 8000b52:	bfc1      	itttt	gt
 8000b54:	18d2      	addgt	r2, r2, r3
 8000b56:	4041      	eorgt	r1, r0
 8000b58:	4048      	eorgt	r0, r1
 8000b5a:	4041      	eorgt	r1, r0
 8000b5c:	bfb8      	it	lt
 8000b5e:	425b      	neglt	r3, r3
 8000b60:	2b19      	cmp	r3, #25
 8000b62:	bf88      	it	hi
 8000b64:	4770      	bxhi	lr
 8000b66:	f010 4f00 	tst.w	r0, #2147483648	@ 0x80000000
 8000b6a:	f440 0000 	orr.w	r0, r0, #8388608	@ 0x800000
 8000b6e:	f020 407f 	bic.w	r0, r0, #4278190080	@ 0xff000000
 8000b72:	bf18      	it	ne
 8000b74:	4240      	negne	r0, r0
 8000b76:	f011 4f00 	tst.w	r1, #2147483648	@ 0x80000000
 8000b7a:	f441 0100 	orr.w	r1, r1, #8388608	@ 0x800000
 8000b7e:	f021 417f 	bic.w	r1, r1, #4278190080	@ 0xff000000
 8000b82:	bf18      	it	ne
 8000b84:	4249      	negne	r1, r1
 8000b86:	ea92 0f03 	teq	r2, r3
 8000b8a:	d03f      	beq.n	8000c0c <__addsf3+0xd8>
 8000b8c:	f1a2 0201 	sub.w	r2, r2, #1
 8000b90:	fa41 fc03 	asr.w	ip, r1, r3
 8000b94:	eb10 000c 	adds.w	r0, r0, ip
 8000b98:	f1c3 0320 	rsb	r3, r3, #32
 8000b9c:	fa01 f103 	lsl.w	r1, r1, r3
 8000ba0:	f000 4300 	and.w	r3, r0, #2147483648	@ 0x80000000
 8000ba4:	d502      	bpl.n	8000bac <__addsf3+0x78>
 8000ba6:	4249      	negs	r1, r1
 8000ba8:	eb60 0040 	sbc.w	r0, r0, r0, lsl #1
 8000bac:	f5b0 0f00 	cmp.w	r0, #8388608	@ 0x800000
 8000bb0:	d313      	bcc.n	8000bda <__addsf3+0xa6>
 8000bb2:	f1b0 7f80 	cmp.w	r0, #16777216	@ 0x1000000
 8000bb6:	d306      	bcc.n	8000bc6 <__addsf3+0x92>
 8000bb8:	0840      	lsrs	r0, r0, #1
 8000bba:	ea4f 0131 	mov.w	r1, r1, rrx
 8000bbe:	f102 0201 	add.w	r2, r2, #1
 8000bc2:	2afe      	cmp	r2, #254	@ 0xfe
 8000bc4:	d251      	bcs.n	8000c6a <__addsf3+0x136>
 8000bc6:	f1b1 4f00 	cmp.w	r1, #2147483648	@ 0x80000000
 8000bca:	eb40 50c2 	adc.w	r0, r0, r2, lsl #23
 8000bce:	bf08      	it	eq
 8000bd0:	f020 0001 	biceq.w	r0, r0, #1
 8000bd4:	ea40 0003 	orr.w	r0, r0, r3
 8000bd8:	4770      	bx	lr
 8000bda:	0049      	lsls	r1, r1, #1
 8000bdc:	eb40 0000 	adc.w	r0, r0, r0
 8000be0:	3a01      	subs	r2, #1
 8000be2:	bf28      	it	cs
 8000be4:	f5b0 0f00 	cmpcs.w	r0, #8388608	@ 0x800000
 8000be8:	d2ed      	bcs.n	8000bc6 <__addsf3+0x92>
 8000bea:	fab0 fc80 	clz	ip, r0
 8000bee:	f1ac 0c08 	sub.w	ip, ip, #8
 8000bf2:	ebb2 020c 	subs.w	r2, r2, ip
 8000bf6:	fa00 f00c 	lsl.w	r0, r0, ip
 8000bfa:	bfaa      	itet	ge
 8000bfc:	eb00 50c2 	addge.w	r0, r0, r2, lsl #23
 8000c00:	4252      	neglt	r2, r2
 8000c02:	4318      	orrge	r0, r3
 8000c04:	bfbc      	itt	lt
 8000c06:	40d0      	lsrlt	r0, r2
 8000c08:	4318      	orrlt	r0, r3
 8000c0a:	4770      	bx	lr
 8000c0c:	f092 0f00 	teq	r2, #0
 8000c10:	f481 0100 	eor.w	r1, r1, #8388608	@ 0x800000
 8000c14:	bf06      	itte	eq
 8000c16:	f480 0000 	eoreq.w	r0, r0, #8388608	@ 0x800000
 8000c1a:	3201      	addeq	r2, #1
 8000c1c:	3b01      	subne	r3, #1
 8000c1e:	e7b5      	b.n	8000b8c <__addsf3+0x58>
 8000c20:	ea4f 0341 	mov.w	r3, r1, lsl #1
 8000c24:	ea7f 6c22 	mvns.w	ip, r2, asr #24
 8000c28:	bf18      	it	ne
 8000c2a:	ea7f 6c23 	mvnsne.w	ip, r3, asr #24
 8000c2e:	d021      	beq.n	8000c74 <__addsf3+0x140>
 8000c30:	ea92 0f03 	teq	r2, r3
 8000c34:	d004      	beq.n	8000c40 <__addsf3+0x10c>
 8000c36:	f092 0f00 	teq	r2, #0
 8000c3a:	bf08      	it	eq
 8000c3c:	4608      	moveq	r0, r1
 8000c3e:	4770      	bx	lr
 8000c40:	ea90 0f01 	teq	r0, r1
 8000c44:	bf1c      	itt	ne
 8000c46:	2000      	movne	r0, #0
 8000c48:	4770      	bxne	lr
 8000c4a:	f012 4f7f 	tst.w	r2, #4278190080	@ 0xff000000
 8000c4e:	d104      	bne.n	8000c5a <__addsf3+0x126>
 8000c50:	0040      	lsls	r0, r0, #1
 8000c52:	bf28      	it	cs
 8000c54:	f040 4000 	orrcs.w	r0, r0, #2147483648	@ 0x80000000
 8000c58:	4770      	bx	lr
 8000c5a:	f112 7200 	adds.w	r2, r2, #33554432	@ 0x2000000
 8000c5e:	bf3c      	itt	cc
 8000c60:	f500 0000 	addcc.w	r0, r0, #8388608	@ 0x800000
 8000c64:	4770      	bxcc	lr
 8000c66:	f000 4300 	and.w	r3, r0, #2147483648	@ 0x80000000
 8000c6a:	f043 40fe 	orr.w	r0, r3, #2130706432	@ 0x7f000000
 8000c6e:	f440 0000 	orr.w	r0, r0, #8388608	@ 0x800000
 8000c72:	4770      	bx	lr
 8000c74:	ea7f 6222 	mvns.w	r2, r2, asr #24
 8000c78:	bf16      	itet	ne
 8000c7a:	4608      	movne	r0, r1
 8000c7c:	ea7f 6323 	mvnseq.w	r3, r3, asr #24
 8000c80:	4601      	movne	r1, r0
 8000c82:	0242      	lsls	r2, r0, #9
 8000c84:	bf06      	itte	eq
 8000c86:	ea5f 2341 	movseq.w	r3, r1, lsl #9
 8000c8a:	ea90 0f01 	teqeq	r0, r1
 8000c8e:	f440 0080 	orrne.w	r0, r0, #4194304	@ 0x400000
 8000c92:	4770      	bx	lr

08000c94 <__aeabi_ui2f>:
 8000c94:	f04f 0300 	mov.w	r3, #0
 8000c98:	e004      	b.n	8000ca4 <__aeabi_i2f+0x8>
 8000c9a:	bf00      	nop

08000c9c <__aeabi_i2f>:
 8000c9c:	f010 4300 	ands.w	r3, r0, #2147483648	@ 0x80000000
 8000ca0:	bf48      	it	mi
 8000ca2:	4240      	negmi	r0, r0
 8000ca4:	ea5f 0c00 	movs.w	ip, r0
 8000ca8:	bf08      	it	eq
 8000caa:	4770      	bxeq	lr
 8000cac:	f043 4396 	orr.w	r3, r3, #1258291200	@ 0x4b000000
 8000cb0:	4601      	mov	r1, r0
 8000cb2:	f04f 0000 	mov.w	r0, #0
 8000cb6:	e01c      	b.n	8000cf2 <__aeabi_l2f+0x2a>

08000cb8 <__aeabi_ul2f>:
 8000cb8:	ea50 0201 	orrs.w	r2, r0, r1
 8000cbc:	bf08      	it	eq
 8000cbe:	4770      	bxeq	lr
 8000cc0:	f04f 0300 	mov.w	r3, #0
 8000cc4:	e00a      	b.n	8000cdc <__aeabi_l2f+0x14>
 8000cc6:	bf00      	nop

08000cc8 <__aeabi_l2f>:
 8000cc8:	ea50 0201 	orrs.w	r2, r0, r1
 8000ccc:	bf08      	it	eq
 8000cce:	4770      	bxeq	lr
 8000cd0:	f011 4300 	ands.w	r3, r1, #2147483648	@ 0x80000000
 8000cd4:	d502      	bpl.n	8000cdc <__aeabi_l2f+0x14>
 8000cd6:	4240      	negs	r0, r0
 8000cd8:	eb61 0141 	sbc.w	r1, r1, r1, lsl #1
 8000cdc:	ea5f 0c01 	movs.w	ip, r1
 8000ce0:	bf02      	ittt	eq
 8000ce2:	4684      	moveq	ip, r0
 8000ce4:	4601      	moveq	r1, r0
 8000ce6:	2000      	moveq	r0, #0
 8000ce8:	f043 43b6 	orr.w	r3, r3, #1526726656	@ 0x5b000000
 8000cec:	bf08      	it	eq
 8000cee:	f1a3 5380 	subeq.w	r3, r3, #268435456	@ 0x10000000
 8000cf2:	f5a3 0300 	sub.w	r3, r3, #8388608	@ 0x800000
 8000cf6:	fabc f28c 	clz	r2, ip
 8000cfa:	3a08      	subs	r2, #8
 8000cfc:	eba3 53c2 	sub.w	r3, r3, r2, lsl #23
 8000d00:	db10      	blt.n	8000d24 <__aeabi_l2f+0x5c>
 8000d02:	fa01 fc02 	lsl.w	ip, r1, r2
 8000d06:	4463      	add	r3, ip
 8000d08:	fa00 fc02 	lsl.w	ip, r0, r2
 8000d0c:	f1c2 0220 	rsb	r2, r2, #32
 8000d10:	f1bc 4f00 	cmp.w	ip, #2147483648	@ 0x80000000
 8000d14:	fa20 f202 	lsr.w	r2, r0, r2
 8000d18:	eb43 0002 	adc.w	r0, r3, r2
 8000d1c:	bf08      	it	eq
 8000d1e:	f020 0001 	biceq.w	r0, r0, #1
 8000d22:	4770      	bx	lr
 8000d24:	f102 0220 	add.w	r2, r2, #32
 8000d28:	fa01 fc02 	lsl.w	ip, r1, r2
 8000d2c:	f1c2 0220 	rsb	r2, r2, #32
 8000d30:	ea50 004c 	orrs.w	r0, r0, ip, lsl #1
 8000d34:	fa21 f202 	lsr.w	r2, r1, r2
 8000d38:	eb43 0002 	adc.w	r0, r3, r2
 8000d3c:	bf08      	it	eq
 8000d3e:	ea20 70dc 	biceq.w	r0, r0, ip, lsr #31
 8000d42:	4770      	bx	lr

08000d44 <__aeabi_fmul>:
 8000d44:	f04f 0cff 	mov.w	ip, #255	@ 0xff
 8000d48:	ea1c 52d0 	ands.w	r2, ip, r0, lsr #23
 8000d4c:	bf1e      	ittt	ne
 8000d4e:	ea1c 53d1 	andsne.w	r3, ip, r1, lsr #23
 8000d52:	ea92 0f0c 	teqne	r2, ip
 8000d56:	ea93 0f0c 	teqne	r3, ip
 8000d5a:	d06f      	beq.n	8000e3c <__aeabi_fmul+0xf8>
 8000d5c:	441a      	add	r2, r3
 8000d5e:	ea80 0c01 	eor.w	ip, r0, r1
 8000d62:	0240      	lsls	r0, r0, #9
 8000d64:	bf18      	it	ne
 8000d66:	ea5f 2141 	movsne.w	r1, r1, lsl #9
 8000d6a:	d01e      	beq.n	8000daa <__aeabi_fmul+0x66>
 8000d6c:	f04f 6300 	mov.w	r3, #134217728	@ 0x8000000
 8000d70:	ea43 1050 	orr.w	r0, r3, r0, lsr #5
 8000d74:	ea43 1151 	orr.w	r1, r3, r1, lsr #5
 8000d78:	fba0 3101 	umull	r3, r1, r0, r1
 8000d7c:	f00c 4000 	and.w	r0, ip, #2147483648	@ 0x80000000
 8000d80:	f5b1 0f00 	cmp.w	r1, #8388608	@ 0x800000
 8000d84:	bf3e      	ittt	cc
 8000d86:	0049      	lslcc	r1, r1, #1
 8000d88:	ea41 71d3 	orrcc.w	r1, r1, r3, lsr #31
 8000d8c:	005b      	lslcc	r3, r3, #1
 8000d8e:	ea40 0001 	orr.w	r0, r0, r1
 8000d92:	f162 027f 	sbc.w	r2, r2, #127	@ 0x7f
 8000d96:	2afd      	cmp	r2, #253	@ 0xfd
 8000d98:	d81d      	bhi.n	8000dd6 <__aeabi_fmul+0x92>
 8000d9a:	f1b3 4f00 	cmp.w	r3, #2147483648	@ 0x80000000
 8000d9e:	eb40 50c2 	adc.w	r0, r0, r2, lsl #23
 8000da2:	bf08      	it	eq
 8000da4:	f020 0001 	biceq.w	r0, r0, #1
 8000da8:	4770      	bx	lr
 8000daa:	f090 0f00 	teq	r0, #0
 8000dae:	f00c 4c00 	and.w	ip, ip, #2147483648	@ 0x80000000
 8000db2:	bf08      	it	eq
 8000db4:	0249      	lsleq	r1, r1, #9
 8000db6:	ea4c 2050 	orr.w	r0, ip, r0, lsr #9
 8000dba:	ea40 2051 	orr.w	r0, r0, r1, lsr #9
 8000dbe:	3a7f      	subs	r2, #127	@ 0x7f
 8000dc0:	bfc2      	ittt	gt
 8000dc2:	f1d2 03ff 	rsbsgt	r3, r2, #255	@ 0xff
 8000dc6:	ea40 50c2 	orrgt.w	r0, r0, r2, lsl #23
 8000dca:	4770      	bxgt	lr
 8000dcc:	f440 0000 	orr.w	r0, r0, #8388608	@ 0x800000
 8000dd0:	f04f 0300 	mov.w	r3, #0
 8000dd4:	3a01      	subs	r2, #1
 8000dd6:	dc5d      	bgt.n	8000e94 <__aeabi_fmul+0x150>
 8000dd8:	f112 0f19 	cmn.w	r2, #25
 8000ddc:	bfdc      	itt	le
 8000dde:	f000 4000 	andle.w	r0, r0, #2147483648	@ 0x80000000
 8000de2:	4770      	bxle	lr
 8000de4:	f1c2 0200 	rsb	r2, r2, #0
 8000de8:	0041      	lsls	r1, r0, #1
 8000dea:	fa21 f102 	lsr.w	r1, r1, r2
 8000dee:	f1c2 0220 	rsb	r2, r2, #32
 8000df2:	fa00 fc02 	lsl.w	ip, r0, r2
 8000df6:	ea5f 0031 	movs.w	r0, r1, rrx
 8000dfa:	f140 0000 	adc.w	r0, r0, #0
 8000dfe:	ea53 034c 	orrs.w	r3, r3, ip, lsl #1
 8000e02:	bf08      	it	eq
 8000e04:	ea20 70dc 	biceq.w	r0, r0, ip, lsr #31
 8000e08:	4770      	bx	lr
 8000e0a:	f092 0f00 	teq	r2, #0
 8000e0e:	f000 4c00 	and.w	ip, r0, #2147483648	@ 0x80000000
 8000e12:	bf02      	ittt	eq
 8000e14:	0040      	lsleq	r0, r0, #1
 8000e16:	f410 0f00 	tsteq.w	r0, #8388608	@ 0x800000
 8000e1a:	3a01      	subeq	r2, #1
 8000e1c:	d0f9      	beq.n	8000e12 <__aeabi_fmul+0xce>
 8000e1e:	ea40 000c 	orr.w	r0, r0, ip
 8000e22:	f093 0f00 	teq	r3, #0
 8000e26:	f001 4c00 	and.w	ip, r1, #2147483648	@ 0x80000000
 8000e2a:	bf02      	ittt	eq
 8000e2c:	0049      	lsleq	r1, r1, #1
 8000e2e:	f411 0f00 	tsteq.w	r1, #8388608	@ 0x800000
 8000e32:	3b01      	subeq	r3, #1
 8000e34:	d0f9      	beq.n	8000e2a <__aeabi_fmul+0xe6>
 8000e36:	ea41 010c 	orr.w	r1, r1, ip
 8000e3a:	e78f      	b.n	8000d5c <__aeabi_fmul+0x18>
 8000e3c:	ea0c 53d1 	and.w	r3, ip, r1, lsr #23
 8000e40:	ea92 0f0c 	teq	r2, ip
 8000e44:	bf18      	it	ne
 8000e46:	ea93 0f0c 	teqne	r3, ip
 8000e4a:	d00a      	beq.n	8000e62 <__aeabi_fmul+0x11e>
 8000e4c:	f030 4c00 	bics.w	ip, r0, #2147483648	@ 0x80000000
 8000e50:	bf18      	it	ne
 8000e52:	f031 4c00 	bicsne.w	ip, r1, #2147483648	@ 0x80000000
 8000e56:	d1d8      	bne.n	8000e0a <__aeabi_fmul+0xc6>
 8000e58:	ea80 0001 	eor.w	r0, r0, r1
 8000e5c:	f000 4000 	and.w	r0, r0, #2147483648	@ 0x80000000
 8000e60:	4770      	bx	lr
 8000e62:	f090 0f00 	teq	r0, #0
 8000e66:	bf17      	itett	ne
 8000e68:	f090 4f00 	teqne	r0, #2147483648	@ 0x80000000
 8000e6c:	4608      	moveq	r0, r1
 8000e6e:	f091 0f00 	teqne	r1, #0
 8000e72:	f091 4f00 	teqne	r1, #2147483648	@ 0x80000000
 8000e76:	d014      	beq.n	8000ea2 <__aeabi_fmul+0x15e>
 8000e78:	ea92 0f0c 	teq	r2, ip
 8000e7c:	d101      	bne.n	8000e82 <__aeabi_fmul+0x13e>
 8000e7e:	0242      	lsls	r2, r0, #9
 8000e80:	d10f      	bne.n	8000ea2 <__aeabi_fmul+0x15e>
 8000e82:	ea93 0f0c 	teq	r3, ip
 8000e86:	d103      	bne.n	8000e90 <__aeabi_fmul+0x14c>
 8000e88:	024b      	lsls	r3, r1, #9
 8000e8a:	bf18      	it	ne
 8000e8c:	4608      	movne	r0, r1
 8000e8e:	d108      	bne.n	8000ea2 <__aeabi_fmul+0x15e>
 8000e90:	ea80 0001 	eor.w	r0, r0, r1
 8000e94:	f000 4000 	and.w	r0, r0, #2147483648	@ 0x80000000
 8000e98:	f040 40fe 	orr.w	r0, r0, #2130706432	@ 0x7f000000
 8000e9c:	f440 0000 	orr.w	r0, r0, #8388608	@ 0x800000
 8000ea0:	4770      	bx	lr
 8000ea2:	f040 40fe 	orr.w	r0, r0, #2130706432	@ 0x7f000000
 8000ea6:	f440 0040 	orr.w	r0, r0, #12582912	@ 0xc00000
 8000eaa:	4770      	bx	lr

08000eac <__aeabi_fdiv>:
 8000eac:	f04f 0cff 	mov.w	ip, #255	@ 0xff
 8000eb0:	ea1c 52d0 	ands.w	r2, ip, r0, lsr #23
 8000eb4:	bf1e      	ittt	ne
 8000eb6:	ea1c 53d1 	andsne.w	r3, ip, r1, lsr #23
 8000eba:	ea92 0f0c 	teqne	r2, ip
 8000ebe:	ea93 0f0c 	teqne	r3, ip
 8000ec2:	d069      	beq.n	8000f98 <__aeabi_fdiv+0xec>
 8000ec4:	eba2 0203 	sub.w	r2, r2, r3
 8000ec8:	ea80 0c01 	eor.w	ip, r0, r1
 8000ecc:	0249      	lsls	r1, r1, #9
 8000ece:	ea4f 2040 	mov.w	r0, r0, lsl #9
 8000ed2:	d037      	beq.n	8000f44 <__aeabi_fdiv+0x98>
 8000ed4:	f04f 5380 	mov.w	r3, #268435456	@ 0x10000000
 8000ed8:	ea43 1111 	orr.w	r1, r3, r1, lsr #4
 8000edc:	ea43 1310 	orr.w	r3, r3, r0, lsr #4
 8000ee0:	f00c 4000 	and.w	r0, ip, #2147483648	@ 0x80000000
 8000ee4:	428b      	cmp	r3, r1
 8000ee6:	bf38      	it	cc
 8000ee8:	005b      	lslcc	r3, r3, #1
 8000eea:	f142 027d 	adc.w	r2, r2, #125	@ 0x7d
 8000eee:	f44f 0c00 	mov.w	ip, #8388608	@ 0x800000
 8000ef2:	428b      	cmp	r3, r1
 8000ef4:	bf24      	itt	cs
 8000ef6:	1a5b      	subcs	r3, r3, r1
 8000ef8:	ea40 000c 	orrcs.w	r0, r0, ip
 8000efc:	ebb3 0f51 	cmp.w	r3, r1, lsr #1
 8000f00:	bf24      	itt	cs
 8000f02:	eba3 0351 	subcs.w	r3, r3, r1, lsr #1
 8000f06:	ea40 005c 	orrcs.w	r0, r0, ip, lsr #1
 8000f0a:	ebb3 0f91 	cmp.w	r3, r1, lsr #2
 8000f0e:	bf24      	itt	cs
 8000f10:	eba3 0391 	subcs.w	r3, r3, r1, lsr #2
 8000f14:	ea40 009c 	orrcs.w	r0, r0, ip, lsr #2
 8000f18:	ebb3 0fd1 	cmp.w	r3, r1, lsr #3
 8000f1c:	bf24      	itt	cs
 8000f1e:	eba3 03d1 	subcs.w	r3, r3, r1, lsr #3
 8000f22:	ea40 00dc 	orrcs.w	r0, r0, ip, lsr #3
 8000f26:	011b      	lsls	r3, r3, #4
 8000f28:	bf18      	it	ne
 8000f2a:	ea5f 1c1c 	movsne.w	ip, ip, lsr #4
 8000f2e:	d1e0      	bne.n	8000ef2 <__aeabi_fdiv+0x46>
 8000f30:	2afd      	cmp	r2, #253	@ 0xfd
 8000f32:	f63f af50 	bhi.w	8000dd6 <__aeabi_fmul+0x92>
 8000f36:	428b      	cmp	r3, r1
 8000f38:	eb40 50c2 	adc.w	r0, r0, r2, lsl #23
 8000f3c:	bf08      	it	eq
 8000f3e:	f020 0001 	biceq.w	r0, r0, #1
 8000f42:	4770      	bx	lr
 8000f44:	f00c 4c00 	and.w	ip, ip, #2147483648	@ 0x80000000
 8000f48:	ea4c 2050 	orr.w	r0, ip, r0, lsr #9
 8000f4c:	327f      	adds	r2, #127	@ 0x7f
 8000f4e:	bfc2      	ittt	gt
 8000f50:	f1d2 03ff 	rsbsgt	r3, r2, #255	@ 0xff
 8000f54:	ea40 50c2 	orrgt.w	r0, r0, r2, lsl #23
 8000f58:	4770      	bxgt	lr
 8000f5a:	f440 0000 	orr.w	r0, r0, #8388608	@ 0x800000
 8000f5e:	f04f 0300 	mov.w	r3, #0
 8000f62:	3a01      	subs	r2, #1
 8000f64:	e737      	b.n	8000dd6 <__aeabi_fmul+0x92>
 8000f66:	f092 0f00 	teq	r2, #0
 8000f6a:	f000 4c00 	and.w	ip, r0, #2147483648	@ 0x80000000
 8000f6e:	bf02      	ittt	eq
 8000f70:	0040      	lsleq	r0, r0, #1
 8000f72:	f410 0f00 	tsteq.w	r0, #8388608	@ 0x800000
 8000f76:	3a01      	subeq	r2, #1
 8000f78:	d0f9      	beq.n	8000f6e <__aeabi_fdiv+0xc2>
 8000f7a:	ea40 000c 	orr.w	r0, r0, ip
 8000f7e:	f093 0f00 	teq	r3, #0
 8000f82:	f001 4c00 	and.w	ip, r1, #2147483648	@ 0x80000000
 8000f86:	bf02      	ittt	eq
 8000f88:	0049      	lsleq	r1, r1, #1
 8000f8a:	f411 0f00 	tsteq.w	r1, #8388608	@ 0x800000
 8000f8e:	3b01      	subeq	r3, #1
 8000f90:	d0f9      	beq.n	8000f86 <__aeabi_fdiv+0xda>
 8000f92:	ea41 010c 	orr.w	r1, r1, ip
 8000f96:	e795      	b.n	8000ec4 <__aeabi_fdiv+0x18>
 8000f98:	ea0c 53d1 	and.w	r3, ip, r1, lsr #23
 8000f9c:	ea92 0f0c 	teq	r2, ip
 8000fa0:	d108      	bne.n	8000fb4 <__aeabi_fdiv+0x108>
 8000fa2:	0242      	lsls	r2, r0, #9
 8000fa4:	f47f af7d 	bne.w	8000ea2 <__aeabi_fmul+0x15e>
 8000fa8:	ea93 0f0c 	teq	r3, ip
 8000fac:	f47f af70 	bne.w	8000e90 <__aeabi_fmul+0x14c>
 8000fb0:	4608      	mov	r0, r1
 8000fb2:	e776      	b.n	8000ea2 <__aeabi_fmul+0x15e>
 8000fb4:	ea93 0f0c 	teq	r3, ip
 8000fb8:	d104      	bne.n	8000fc4 <__aeabi_fdiv+0x118>
 8000fba:	024b      	lsls	r3, r1, #9
 8000fbc:	f43f af4c 	beq.w	8000e58 <__aeabi_fmul+0x114>
 8000fc0:	4608      	mov	r0, r1
 8000fc2:	e76e      	b.n	8000ea2 <__aeabi_fmul+0x15e>
 8000fc4:	f030 4c00 	bics.w	ip, r0, #2147483648	@ 0x80000000
 8000fc8:	bf18      	it	ne
 8000fca:	f031 4c00 	bicsne.w	ip, r1, #2147483648	@ 0x80000000
 8000fce:	d1ca      	bne.n	8000f66 <__aeabi_fdiv+0xba>
 8000fd0:	f030 4200 	bics.w	r2, r0, #2147483648	@ 0x80000000
 8000fd4:	f47f af5c 	bne.w	8000e90 <__aeabi_fmul+0x14c>
 8000fd8:	f031 4300 	bics.w	r3, r1, #2147483648	@ 0x80000000
 8000fdc:	f47f af3c 	bne.w	8000e58 <__aeabi_fmul+0x114>
 8000fe0:	e75f      	b.n	8000ea2 <__aeabi_fmul+0x15e>
 8000fe2:	bf00      	nop

08000fe4 <__gesf2>:
 8000fe4:	f04f 3cff 	mov.w	ip, #4294967295
 8000fe8:	e006      	b.n	8000ff8 <__cmpsf2+0x4>
 8000fea:	bf00      	nop

08000fec <__lesf2>:
 8000fec:	f04f 0c01 	mov.w	ip, #1
 8000ff0:	e002      	b.n	8000ff8 <__cmpsf2+0x4>
 8000ff2:	bf00      	nop

08000ff4 <__cmpsf2>:
 8000ff4:	f04f 0c01 	mov.w	ip, #1
 8000ff8:	f84d cd04 	str.w	ip, [sp, #-4]!
 8000ffc:	ea4f 0240 	mov.w	r2, r0, lsl #1
 8001000:	ea4f 0341 	mov.w	r3, r1, lsl #1
 8001004:	ea7f 6c22 	mvns.w	ip, r2, asr #24
 8001008:	bf18      	it	ne
 800100a:	ea7f 6c23 	mvnsne.w	ip, r3, asr #24
 800100e:	d011      	beq.n	8001034 <__cmpsf2+0x40>
 8001010:	b001      	add	sp, #4
 8001012:	ea52 0c53 	orrs.w	ip, r2, r3, lsr #1
 8001016:	bf18      	it	ne
 8001018:	ea90 0f01 	teqne	r0, r1
 800101c:	bf58      	it	pl
 800101e:	ebb2 0003 	subspl.w	r0, r2, r3
 8001022:	bf88      	it	hi
 8001024:	17c8      	asrhi	r0, r1, #31
 8001026:	bf38      	it	cc
 8001028:	ea6f 70e1 	mvncc.w	r0, r1, asr #31
 800102c:	bf18      	it	ne
 800102e:	f040 0001 	orrne.w	r0, r0, #1
 8001032:	4770      	bx	lr
 8001034:	ea7f 6c22 	mvns.w	ip, r2, asr #24
 8001038:	d102      	bne.n	8001040 <__cmpsf2+0x4c>
 800103a:	ea5f 2c40 	movs.w	ip, r0, lsl #9
 800103e:	d105      	bne.n	800104c <__cmpsf2+0x58>
 8001040:	ea7f 6c23 	mvns.w	ip, r3, asr #24
 8001044:	d1e4      	bne.n	8001010 <__cmpsf2+0x1c>
 8001046:	ea5f 2c41 	movs.w	ip, r1, lsl #9
 800104a:	d0e1      	beq.n	8001010 <__cmpsf2+0x1c>
 800104c:	f85d 0b04 	ldr.w	r0, [sp], #4
 8001050:	4770      	bx	lr
 8001052:	bf00      	nop

08001054 <__aeabi_cfrcmple>:
 8001054:	4684      	mov	ip, r0
 8001056:	4608      	mov	r0, r1
 8001058:	4661      	mov	r1, ip
 800105a:	e7ff      	b.n	800105c <__aeabi_cfcmpeq>

0800105c <__aeabi_cfcmpeq>:
 800105c:	b50f      	push	{r0, r1, r2, r3, lr}
 800105e:	f7ff ffc9 	bl	8000ff4 <__cmpsf2>
 8001062:	2800      	cmp	r0, #0
 8001064:	bf48      	it	mi
 8001066:	f110 0f00 	cmnmi.w	r0, #0
 800106a:	bd0f      	pop	{r0, r1, r2, r3, pc}

0800106c <__aeabi_fcmpeq>:
 800106c:	f84d ed08 	str.w	lr, [sp, #-8]!
 8001070:	f7ff fff4 	bl	800105c <__aeabi_cfcmpeq>
 8001074:	bf0c      	ite	eq
 8001076:	2001      	moveq	r0, #1
 8001078:	2000      	movne	r0, #0
 800107a:	f85d fb08 	ldr.w	pc, [sp], #8
 800107e:	bf00      	nop

08001080 <__aeabi_fcmplt>:
 8001080:	f84d ed08 	str.w	lr, [sp, #-8]!
 8001084:	f7ff ffea 	bl	800105c <__aeabi_cfcmpeq>
 8001088:	bf34      	ite	cc
 800108a:	2001      	movcc	r0, #1
 800108c:	2000      	movcs	r0, #0
 800108e:	f85d fb08 	ldr.w	pc, [sp], #8
 8001092:	bf00      	nop

08001094 <__aeabi_fcmple>:
 8001094:	f84d ed08 	str.w	lr, [sp, #-8]!
 8001098:	f7ff ffe0 	bl	800105c <__aeabi_cfcmpeq>
 800109c:	bf94      	ite	ls
 800109e:	2001      	movls	r0, #1
 80010a0:	2000      	movhi	r0, #0
 80010a2:	f85d fb08 	ldr.w	pc, [sp], #8
 80010a6:	bf00      	nop

080010a8 <__aeabi_fcmpge>:
 80010a8:	f84d ed08 	str.w	lr, [sp, #-8]!
 80010ac:	f7ff ffd2 	bl	8001054 <__aeabi_cfrcmple>
 80010b0:	bf94      	ite	ls
 80010b2:	2001      	movls	r0, #1
 80010b4:	2000      	movhi	r0, #0
 80010b6:	f85d fb08 	ldr.w	pc, [sp], #8
 80010ba:	bf00      	nop

080010bc <__aeabi_fcmpgt>:
 80010bc:	f84d ed08 	str.w	lr, [sp, #-8]!
 80010c0:	f7ff ffc8 	bl	8001054 <__aeabi_cfrcmple>
 80010c4:	bf34      	ite	cc
 80010c6:	2001      	movcc	r0, #1
 80010c8:	2000      	movcs	r0, #0
 80010ca:	f85d fb08 	ldr.w	pc, [sp], #8
 80010ce:	bf00      	nop

080010d0 <__aeabi_f2iz>:
 80010d0:	ea4f 0240 	mov.w	r2, r0, lsl #1
 80010d4:	f1b2 4ffe 	cmp.w	r2, #2130706432	@ 0x7f000000
 80010d8:	d30f      	bcc.n	80010fa <__aeabi_f2iz+0x2a>
 80010da:	f04f 039e 	mov.w	r3, #158	@ 0x9e
 80010de:	ebb3 6212 	subs.w	r2, r3, r2, lsr #24
 80010e2:	d90d      	bls.n	8001100 <__aeabi_f2iz+0x30>
 80010e4:	ea4f 2300 	mov.w	r3, r0, lsl #8
 80010e8:	f043 4300 	orr.w	r3, r3, #2147483648	@ 0x80000000
 80010ec:	f010 4f00 	tst.w	r0, #2147483648	@ 0x80000000
 80010f0:	fa23 f002 	lsr.w	r0, r3, r2
 80010f4:	bf18      	it	ne
 80010f6:	4240      	negne	r0, r0
 80010f8:	4770      	bx	lr
 80010fa:	f04f 0000 	mov.w	r0, #0
 80010fe:	4770      	bx	lr
 8001100:	f112 0f61 	cmn.w	r2, #97	@ 0x61
 8001104:	d101      	bne.n	800110a <__aeabi_f2iz+0x3a>
 8001106:	0242      	lsls	r2, r0, #9
 8001108:	d105      	bne.n	8001116 <__aeabi_f2iz+0x46>
 800110a:	f010 4000 	ands.w	r0, r0, #2147483648	@ 0x80000000
 800110e:	bf08      	it	eq
 8001110:	f06f 4000 	mvneq.w	r0, #2147483648	@ 0x80000000
 8001114:	4770      	bx	lr
 8001116:	f04f 0000 	mov.w	r0, #0
 800111a:	4770      	bx	lr

0800111c <__aeabi_f2uiz>:
 800111c:	0042      	lsls	r2, r0, #1
 800111e:	d20e      	bcs.n	800113e <__aeabi_f2uiz+0x22>
 8001120:	f1b2 4ffe 	cmp.w	r2, #2130706432	@ 0x7f000000
 8001124:	d30b      	bcc.n	800113e <__aeabi_f2uiz+0x22>
 8001126:	f04f 039e 	mov.w	r3, #158	@ 0x9e
 800112a:	ebb3 6212 	subs.w	r2, r3, r2, lsr #24
 800112e:	d409      	bmi.n	8001144 <__aeabi_f2uiz+0x28>
 8001130:	ea4f 2300 	mov.w	r3, r0, lsl #8
 8001134:	f043 4300 	orr.w	r3, r3, #2147483648	@ 0x80000000
 8001138:	fa23 f002 	lsr.w	r0, r3, r2
 800113c:	4770      	bx	lr
 800113e:	f04f 0000 	mov.w	r0, #0
 8001142:	4770      	bx	lr
 8001144:	f112 0f61 	cmn.w	r2, #97	@ 0x61
 8001148:	d101      	bne.n	800114e <__aeabi_f2uiz+0x32>
 800114a:	0242      	lsls	r2, r0, #9
 800114c:	d102      	bne.n	8001154 <__aeabi_f2uiz+0x38>
 800114e:	f04f 30ff 	mov.w	r0, #4294967295
 8001152:	4770      	bx	lr
 8001154:	f04f 0000 	mov.w	r0, #0
 8001158:	4770      	bx	lr
 800115a:	bf00      	nop

0800115c <HX711_Init>:
 800115c:	6083      	str	r3, [r0, #8]
 800115e:	f8bd 3000 	ldrh.w	r3, [sp]
 8001162:	6001      	str	r1, [r0, #0]
 8001164:	8183      	strh	r3, [r0, #12]
 8001166:	2300      	movs	r3, #0
 8001168:	6103      	str	r3, [r0, #16]
 800116a:	9b01      	ldr	r3, [sp, #4]
 800116c:	8082      	strh	r2, [r0, #4]
 800116e:	6143      	str	r3, [r0, #20]
 8001170:	4770      	bx	lr
	...

08001174 <HX711_Read>:
 8001174:	b570      	push	{r4, r5, r6, lr}
 8001176:	4604      	mov	r4, r0
 8001178:	460d      	mov	r5, r1
 800117a:	f002 fd13 	bl	8003ba4 <HAL_GetTick>
 800117e:	4e24      	ldr	r6, [pc, #144]	@ (8001210 <HX711_Read+0x9c>)
 8001180:	6030      	str	r0, [r6, #0]
 8001182:	88a1      	ldrh	r1, [r4, #4]
 8001184:	6820      	ldr	r0, [r4, #0]
 8001186:	f003 fa07 	bl	8004598 <HAL_GPIO_ReadPin>
 800118a:	2801      	cmp	r0, #1
 800118c:	d037      	beq.n	80011fe <HX711_Read+0x8a>
 800118e:	2200      	movs	r2, #0
 8001190:	4d20      	ldr	r5, [pc, #128]	@ (8001214 <HX711_Read+0xa0>)
 8001192:	89a1      	ldrh	r1, [r4, #12]
 8001194:	68a0      	ldr	r0, [r4, #8]
 8001196:	602a      	str	r2, [r5, #0]
 8001198:	2618      	movs	r6, #24
 800119a:	f003 fa03 	bl	80045a4 <HAL_GPIO_WritePin>
 800119e:	2201      	movs	r2, #1
 80011a0:	89a1      	ldrh	r1, [r4, #12]
 80011a2:	68a0      	ldr	r0, [r4, #8]
 80011a4:	f003 f9fe 	bl	80045a4 <HAL_GPIO_WritePin>
 80011a8:	682b      	ldr	r3, [r5, #0]
 80011aa:	88a1      	ldrh	r1, [r4, #4]
 80011ac:	005b      	lsls	r3, r3, #1
 80011ae:	6820      	ldr	r0, [r4, #0]
 80011b0:	602b      	str	r3, [r5, #0]
 80011b2:	f003 f9f1 	bl	8004598 <HAL_GPIO_ReadPin>
 80011b6:	2801      	cmp	r0, #1
 80011b8:	bf08      	it	eq
 80011ba:	682b      	ldreq	r3, [r5, #0]
 80011bc:	f04f 0200 	mov.w	r2, #0
 80011c0:	bf08      	it	eq
 80011c2:	3301      	addeq	r3, #1
 80011c4:	89a1      	ldrh	r1, [r4, #12]
 80011c6:	68a0      	ldr	r0, [r4, #8]
 80011c8:	f106 36ff 	add.w	r6, r6, #4294967295
 80011cc:	bf08      	it	eq
 80011ce:	602b      	streq	r3, [r5, #0]
 80011d0:	f003 f9e8 	bl	80045a4 <HAL_GPIO_WritePin>
 80011d4:	f016 06ff 	ands.w	r6, r6, #255	@ 0xff
 80011d8:	d1e1      	bne.n	800119e <HX711_Read+0x2a>
 80011da:	2201      	movs	r2, #1
 80011dc:	89a1      	ldrh	r1, [r4, #12]
 80011de:	68a0      	ldr	r0, [r4, #8]
 80011e0:	f003 f9e0 	bl	80045a4 <HAL_GPIO_WritePin>
 80011e4:	4632      	mov	r2, r6
 80011e6:	68a0      	ldr	r0, [r4, #8]
 80011e8:	89a1      	ldrh	r1, [r4, #12]
 80011ea:	f003 f9db 	bl	80045a4 <HAL_GPIO_WritePin>
 80011ee:	682b      	ldr	r3, [r5, #0]
 80011f0:	021a      	lsls	r2, r3, #8
 80011f2:	bf44      	itt	mi
 80011f4:	f043 437f 	orrmi.w	r3, r3, #4278190080	@ 0xff000000
 80011f8:	602b      	strmi	r3, [r5, #0]
 80011fa:	6828      	ldr	r0, [r5, #0]
 80011fc:	bd70      	pop	{r4, r5, r6, pc}
 80011fe:	f002 fcd1 	bl	8003ba4 <HAL_GetTick>
 8001202:	6833      	ldr	r3, [r6, #0]
 8001204:	1ac0      	subs	r0, r0, r3
 8001206:	42a8      	cmp	r0, r5
 8001208:	d3bb      	bcc.n	8001182 <HX711_Read+0xe>
 800120a:	f04f 30ff 	mov.w	r0, #4294967295
 800120e:	e7f5      	b.n	80011fc <HX711_Read+0x88>
 8001210:	2000024c 	.word	0x2000024c
 8001214:	20000248 	.word	0x20000248

08001218 <HX711_Tare>:
 8001218:	e92d 41f0 	stmdb	sp!, {r4, r5, r6, r7, r8, lr}
 800121c:	2500      	movs	r5, #0
 800121e:	4606      	mov	r6, r0
 8001220:	460f      	mov	r7, r1
 8001222:	4690      	mov	r8, r2
 8001224:	462c      	mov	r4, r5
 8001226:	42bd      	cmp	r5, r7
 8001228:	d105      	bne.n	8001236 <HX711_Tare+0x1e>
 800122a:	fb94 f4f5 	sdiv	r4, r4, r5
 800122e:	2000      	movs	r0, #0
 8001230:	6134      	str	r4, [r6, #16]
 8001232:	e8bd 81f0 	ldmia.w	sp!, {r4, r5, r6, r7, r8, pc}
 8001236:	4641      	mov	r1, r8
 8001238:	4630      	mov	r0, r6
 800123a:	f7ff ff9b 	bl	8001174 <HX711_Read>
 800123e:	1c43      	adds	r3, r0, #1
 8001240:	f105 0501 	add.w	r5, r5, #1
 8001244:	d004      	beq.n	8001250 <HX711_Tare+0x38>
 8001246:	4404      	add	r4, r0
 8001248:	200a      	movs	r0, #10
 800124a:	f002 fcb1 	bl	8003bb0 <HAL_Delay>
 800124e:	e7ea      	b.n	8001226 <HX711_Tare+0xe>
 8001250:	4800      	ldr	r0, [pc, #0]	@ (8001254 <HX711_Tare+0x3c>)
 8001252:	e7ee      	b.n	8001232 <HX711_Tare+0x1a>
 8001254:	bf800000 	.word	0xbf800000

08001258 <HX711_Get_Value>:
 8001258:	e92d 41f0 	stmdb	sp!, {r4, r5, r6, r7, r8, lr}
 800125c:	2500      	movs	r5, #0
 800125e:	4604      	mov	r4, r0
 8001260:	460f      	mov	r7, r1
 8001262:	4690      	mov	r8, r2
 8001264:	462e      	mov	r6, r5
 8001266:	42bd      	cmp	r5, r7
 8001268:	d117      	bne.n	800129a <HX711_Get_Value+0x42>
 800126a:	4630      	mov	r0, r6
 800126c:	f7ff fd16 	bl	8000c9c <__aeabi_i2f>
 8001270:	4606      	mov	r6, r0
 8001272:	4628      	mov	r0, r5
 8001274:	f7ff fd0e 	bl	8000c94 <__aeabi_ui2f>
 8001278:	4601      	mov	r1, r0
 800127a:	4630      	mov	r0, r6
 800127c:	f7ff fe16 	bl	8000eac <__aeabi_fdiv>
 8001280:	4605      	mov	r5, r0
 8001282:	6920      	ldr	r0, [r4, #16]
 8001284:	f7ff fd0a 	bl	8000c9c <__aeabi_i2f>
 8001288:	4601      	mov	r1, r0
 800128a:	4628      	mov	r0, r5
 800128c:	f7ff fc50 	bl	8000b30 <__aeabi_fsub>
 8001290:	6961      	ldr	r1, [r4, #20]
 8001292:	f7ff fe0b 	bl	8000eac <__aeabi_fdiv>
 8001296:	e8bd 81f0 	ldmia.w	sp!, {r4, r5, r6, r7, r8, pc}
 800129a:	4641      	mov	r1, r8
 800129c:	4620      	mov	r0, r4
 800129e:	f7ff ff69 	bl	8001174 <HX711_Read>
 80012a2:	1c43      	adds	r3, r0, #1
 80012a4:	f105 0501 	add.w	r5, r5, #1
 80012a8:	d004      	beq.n	80012b4 <HX711_Get_Value+0x5c>
 80012aa:	4406      	add	r6, r0
 80012ac:	200a      	movs	r0, #10
 80012ae:	f002 fc7f 	bl	8003bb0 <HAL_Delay>
 80012b2:	e7d8      	b.n	8001266 <HX711_Get_Value+0xe>
 80012b4:	4800      	ldr	r0, [pc, #0]	@ (80012b8 <HX711_Get_Value+0x60>)
 80012b6:	e7ee      	b.n	8001296 <HX711_Get_Value+0x3e>
 80012b8:	bf800000 	.word	0xbf800000

080012bc <HX711_Get_CombinedMass>:
 80012bc:	e92d 47f0 	stmdb	sp!, {r4, r5, r6, r7, r8, r9, sl, lr}
 80012c0:	4614      	mov	r4, r2
 80012c2:	460f      	mov	r7, r1
 80012c4:	461a      	mov	r2, r3
 80012c6:	4621      	mov	r1, r4
 80012c8:	461d      	mov	r5, r3
 80012ca:	f7ff ffc5 	bl	8001258 <HX711_Get_Value>
 80012ce:	2100      	movs	r1, #0
 80012d0:	4606      	mov	r6, r0
 80012d2:	f7ff fed5 	bl	8001080 <__aeabi_fcmplt>
 80012d6:	2800      	cmp	r0, #0
 80012d8:	d151      	bne.n	800137e <HX711_Get_CombinedMass+0xc2>
 80012da:	4621      	mov	r1, r4
 80012dc:	462a      	mov	r2, r5
 80012de:	4638      	mov	r0, r7
 80012e0:	f7ff ffba 	bl	8001258 <HX711_Get_Value>
 80012e4:	2100      	movs	r1, #0
 80012e6:	4604      	mov	r4, r0
 80012e8:	f7ff feca 	bl	8001080 <__aeabi_fcmplt>
 80012ec:	2800      	cmp	r0, #0
 80012ee:	d146      	bne.n	800137e <HX711_Get_CombinedMass+0xc2>
 80012f0:	4621      	mov	r1, r4
 80012f2:	4630      	mov	r0, r6
 80012f4:	f7ff fc1e 	bl	8000b34 <__addsf3>
 80012f8:	2100      	movs	r1, #0
 80012fa:	4606      	mov	r6, r0
 80012fc:	f7ff feca 	bl	8001094 <__aeabi_fcmple>
 8001300:	2800      	cmp	r0, #0
 8001302:	d13e      	bne.n	8001382 <HX711_Get_CombinedMass+0xc6>
 8001304:	4630      	mov	r0, r6
 8001306:	4921      	ldr	r1, [pc, #132]	@ (800138c <HX711_Get_CombinedMass+0xd0>)
 8001308:	f7ff fece 	bl	80010a8 <__aeabi_fcmpge>
 800130c:	4604      	mov	r4, r0
 800130e:	2800      	cmp	r0, #0
 8001310:	d139      	bne.n	8001386 <HX711_Get_CombinedMass+0xca>
 8001312:	4d1f      	ldr	r5, [pc, #124]	@ (8001390 <HX711_Get_CombinedMass+0xd4>)
 8001314:	46a8      	mov	r8, r5
 8001316:	682f      	ldr	r7, [r5, #0]
 8001318:	4630      	mov	r0, r6
 800131a:	4639      	mov	r1, r7
 800131c:	46a1      	mov	r9, r4
 800131e:	f8d5 a008 	ldr.w	sl, [r5, #8]
 8001322:	3401      	adds	r4, #1
 8001324:	f7ff fec0 	bl	80010a8 <__aeabi_fcmpge>
 8001328:	b328      	cbz	r0, 8001376 <HX711_Get_CombinedMass+0xba>
 800132a:	4651      	mov	r1, sl
 800132c:	4630      	mov	r0, r6
 800132e:	f7ff feb1 	bl	8001094 <__aeabi_fcmple>
 8001332:	b300      	cbz	r0, 8001376 <HX711_Get_CombinedMass+0xba>
 8001334:	4639      	mov	r1, r7
 8001336:	4630      	mov	r0, r6
 8001338:	f7ff fbfa 	bl	8000b30 <__aeabi_fsub>
 800133c:	4639      	mov	r1, r7
 800133e:	4605      	mov	r5, r0
 8001340:	4650      	mov	r0, sl
 8001342:	f7ff fbf5 	bl	8000b30 <__aeabi_fsub>
 8001346:	4601      	mov	r1, r0
 8001348:	4628      	mov	r0, r5
 800134a:	f7ff fdaf 	bl	8000eac <__aeabi_fdiv>
 800134e:	eb08 09c9 	add.w	r9, r8, r9, lsl #3
 8001352:	f8d9 9004 	ldr.w	r9, [r9, #4]
 8001356:	eb08 04c4 	add.w	r4, r8, r4, lsl #3
 800135a:	4605      	mov	r5, r0
 800135c:	4649      	mov	r1, r9
 800135e:	6860      	ldr	r0, [r4, #4]
 8001360:	f7ff fbe6 	bl	8000b30 <__aeabi_fsub>
 8001364:	4601      	mov	r1, r0
 8001366:	4628      	mov	r0, r5
 8001368:	f7ff fcec 	bl	8000d44 <__aeabi_fmul>
 800136c:	4649      	mov	r1, r9
 800136e:	f7ff fbe1 	bl	8000b34 <__addsf3>
 8001372:	e8bd 87f0 	ldmia.w	sp!, {r4, r5, r6, r7, r8, r9, sl, pc}
 8001376:	2c28      	cmp	r4, #40	@ 0x28
 8001378:	f105 0508 	add.w	r5, r5, #8
 800137c:	d1cb      	bne.n	8001316 <HX711_Get_CombinedMass+0x5a>
 800137e:	4805      	ldr	r0, [pc, #20]	@ (8001394 <HX711_Get_CombinedMass+0xd8>)
 8001380:	e7f7      	b.n	8001372 <HX711_Get_CombinedMass+0xb6>
 8001382:	2000      	movs	r0, #0
 8001384:	e7f5      	b.n	8001372 <HX711_Get_CombinedMass+0xb6>
 8001386:	4804      	ldr	r0, [pc, #16]	@ (8001398 <HX711_Get_CombinedMass+0xdc>)
 8001388:	e7f3      	b.n	8001372 <HX711_Get_CombinedMass+0xb6>
 800138a:	bf00      	nop
 800138c:	44f35d1f 	.word	0x44f35d1f
 8001390:	080095c8 	.word	0x080095c8
 8001394:	bf800000 	.word	0xbf800000
 8001398:	44fa0000 	.word	0x44fa0000

0800139c <Set_RTC>:
 800139c:	4b04      	ldr	r3, [pc, #16]	@ (80013b0 <Set_RTC+0x14>)
 800139e:	7018      	strb	r0, [r3, #0]
 80013a0:	7059      	strb	r1, [r3, #1]
 80013a2:	709a      	strb	r2, [r3, #2]
 80013a4:	4619      	mov	r1, r3
 80013a6:	2200      	movs	r2, #0
 80013a8:	4802      	ldr	r0, [pc, #8]	@ (80013b4 <Set_RTC+0x18>)
 80013aa:	f004 bb89 	b.w	8005ac0 <HAL_RTC_SetTime>
 80013ae:	bf00      	nop
 80013b0:	20000e38 	.word	0x20000e38
 80013b4:	2000086c 	.word	0x2000086c

080013b8 <delay_ms>:
 80013b8:	b538      	push	{r3, r4, r5, lr}
 80013ba:	4604      	mov	r4, r0
 80013bc:	f002 fbf2 	bl	8003ba4 <HAL_GetTick>
 80013c0:	4605      	mov	r5, r0
 80013c2:	f002 fbef 	bl	8003ba4 <HAL_GetTick>
 80013c6:	1b43      	subs	r3, r0, r5
 80013c8:	42a3      	cmp	r3, r4
 80013ca:	d9fa      	bls.n	80013c2 <delay_ms+0xa>
 80013cc:	bd38      	pop	{r3, r4, r5, pc}
	...

080013d0 <Transmit>:
 80013d0:	b538      	push	{r3, r4, r5, lr}
 80013d2:	4b10      	ldr	r3, [pc, #64]	@ (8001414 <Transmit+0x44>)
 80013d4:	4d10      	ldr	r5, [pc, #64]	@ (8001418 <Transmit+0x48>)
 80013d6:	7819      	ldrb	r1, [r3, #0]
 80013d8:	782a      	ldrb	r2, [r5, #0]
 80013da:	4604      	mov	r4, r0
 80013dc:	4291      	cmp	r1, r2
 80013de:	bf1e      	ittt	ne
 80013e0:	701a      	strbne	r2, [r3, #0]
 80013e2:	2200      	movne	r2, #0
 80013e4:	4b0d      	ldrne	r3, [pc, #52]	@ (800141c <Transmit+0x4c>)
 80013e6:	f04f 0100 	mov.w	r1, #0
 80013ea:	bf18      	it	ne
 80013ec:	701a      	strbne	r2, [r3, #0]
 80013ee:	480c      	ldr	r0, [pc, #48]	@ (8001420 <Transmit+0x50>)
 80013f0:	f44f 72fa 	mov.w	r2, #500	@ 0x1f4
 80013f4:	f005 ffc1 	bl	800737a <memset>
 80013f8:	4620      	mov	r0, r4
 80013fa:	f7fe fea9 	bl	8000150 <strlen>
 80013fe:	f44f 73fa 	mov.w	r3, #500	@ 0x1f4
 8001402:	b282      	uxth	r2, r0
 8001404:	4621      	mov	r1, r4
 8001406:	4807      	ldr	r0, [pc, #28]	@ (8001424 <Transmit+0x54>)
 8001408:	f004 ffdd 	bl	80063c6 <HAL_UART_Transmit>
 800140c:	230e      	movs	r3, #14
 800140e:	702b      	strb	r3, [r5, #0]
 8001410:	bd38      	pop	{r3, r4, r5, pc}
 8001412:	bf00      	nop
 8001414:	20000001 	.word	0x20000001
 8001418:	20000002 	.word	0x20000002
 800141c:	2000031c 	.word	0x2000031c
 8001420:	2000031d 	.word	0x2000031d
 8001424:	20000794 	.word	0x20000794

08001428 <SIM_CheckResponse>:
 8001428:	2100      	movs	r1, #0
 800142a:	b5f8      	push	{r3, r4, r5, r6, r7, lr}
 800142c:	4a79      	ldr	r2, [pc, #484]	@ (8001614 <SIM_CheckResponse+0x1ec>)
 800142e:	4b7a      	ldr	r3, [pc, #488]	@ (8001618 <SIM_CheckResponse+0x1f0>)
 8001430:	4c7a      	ldr	r4, [pc, #488]	@ (800161c <SIM_CheckResponse+0x1f4>)
 8001432:	4606      	mov	r6, r0
 8001434:	7019      	strb	r1, [r3, #0]
 8001436:	7820      	ldrb	r0, [r4, #0]
 8001438:	7813      	ldrb	r3, [r2, #0]
 800143a:	4298      	cmp	r0, r3
 800143c:	bf1c      	itt	ne
 800143e:	4878      	ldrne	r0, [pc, #480]	@ (8001620 <SIM_CheckResponse+0x1f8>)
 8001440:	7001      	strbne	r1, [r0, #0]
 8001442:	2b0e      	cmp	r3, #14
 8001444:	d817      	bhi.n	8001476 <SIM_CheckResponse+0x4e>
 8001446:	e8df f013 	tbh	[pc, r3, lsl #1]
 800144a:	000f      	.short	0x000f
 800144c:	003a002a 	.word	0x003a002a
 8001450:	005c004a 	.word	0x005c004a
 8001454:	006b0016 	.word	0x006b0016
 8001458:	0089007a 	.word	0x0089007a
 800145c:	00ba00a2 	.word	0x00ba00a2
 8001460:	00cd00bc 	.word	0x00cd00bc
 8001464:	00e10016 	.word	0x00e10016
 8001468:	4f6d      	ldr	r7, [pc, #436]	@ (8001620 <SIM_CheckResponse+0x1f8>)
 800146a:	783d      	ldrb	r5, [r7, #0]
 800146c:	2d04      	cmp	r5, #4
 800146e:	d903      	bls.n	8001478 <SIM_CheckResponse+0x50>
 8001470:	2201      	movs	r2, #1
 8001472:	4b6c      	ldr	r3, [pc, #432]	@ (8001624 <SIM_CheckResponse+0x1fc>)
 8001474:	701a      	strb	r2, [r3, #0]
 8001476:	bdf8      	pop	{r3, r4, r5, r6, r7, pc}
 8001478:	496b      	ldr	r1, [pc, #428]	@ (8001628 <SIM_CheckResponse+0x200>)
 800147a:	486c      	ldr	r0, [pc, #432]	@ (800162c <SIM_CheckResponse+0x204>)
 800147c:	f005 ffa7 	bl	80073ce <strstr>
 8001480:	2800      	cmp	r0, #0
 8001482:	f000 8081 	beq.w	8001588 <SIM_CheckResponse+0x160>
 8001486:	2e02      	cmp	r6, #2
 8001488:	d102      	bne.n	8001490 <SIM_CheckResponse+0x68>
 800148a:	230c      	movs	r3, #12
 800148c:	7023      	strb	r3, [r4, #0]
 800148e:	e7f2      	b.n	8001476 <SIM_CheckResponse+0x4e>
 8001490:	2e03      	cmp	r6, #3
 8001492:	d102      	bne.n	800149a <SIM_CheckResponse+0x72>
 8001494:	2200      	movs	r2, #0
 8001496:	4b63      	ldr	r3, [pc, #396]	@ (8001624 <SIM_CheckResponse+0x1fc>)
 8001498:	e7ec      	b.n	8001474 <SIM_CheckResponse+0x4c>
 800149a:	2301      	movs	r3, #1
 800149c:	e7f6      	b.n	800148c <SIM_CheckResponse+0x64>
 800149e:	4e60      	ldr	r6, [pc, #384]	@ (8001620 <SIM_CheckResponse+0x1f8>)
 80014a0:	7835      	ldrb	r5, [r6, #0]
 80014a2:	2d04      	cmp	r5, #4
 80014a4:	d902      	bls.n	80014ac <SIM_CheckResponse+0x84>
 80014a6:	2202      	movs	r2, #2
 80014a8:	4b5e      	ldr	r3, [pc, #376]	@ (8001624 <SIM_CheckResponse+0x1fc>)
 80014aa:	e7e3      	b.n	8001474 <SIM_CheckResponse+0x4c>
 80014ac:	495e      	ldr	r1, [pc, #376]	@ (8001628 <SIM_CheckResponse+0x200>)
 80014ae:	485f      	ldr	r0, [pc, #380]	@ (800162c <SIM_CheckResponse+0x204>)
 80014b0:	f005 ff8d 	bl	80073ce <strstr>
 80014b4:	2800      	cmp	r0, #0
 80014b6:	f000 80a6 	beq.w	8001606 <SIM_CheckResponse+0x1de>
 80014ba:	2302      	movs	r3, #2
 80014bc:	e7e6      	b.n	800148c <SIM_CheckResponse+0x64>
 80014be:	4e58      	ldr	r6, [pc, #352]	@ (8001620 <SIM_CheckResponse+0x1f8>)
 80014c0:	7835      	ldrb	r5, [r6, #0]
 80014c2:	2d04      	cmp	r5, #4
 80014c4:	d902      	bls.n	80014cc <SIM_CheckResponse+0xa4>
 80014c6:	2203      	movs	r2, #3
 80014c8:	4b56      	ldr	r3, [pc, #344]	@ (8001624 <SIM_CheckResponse+0x1fc>)
 80014ca:	e7d3      	b.n	8001474 <SIM_CheckResponse+0x4c>
 80014cc:	4956      	ldr	r1, [pc, #344]	@ (8001628 <SIM_CheckResponse+0x200>)
 80014ce:	4857      	ldr	r0, [pc, #348]	@ (800162c <SIM_CheckResponse+0x204>)
 80014d0:	f005 ff7d 	bl	80073ce <strstr>
 80014d4:	2800      	cmp	r0, #0
 80014d6:	f000 8096 	beq.w	8001606 <SIM_CheckResponse+0x1de>
 80014da:	2303      	movs	r3, #3
 80014dc:	e7d6      	b.n	800148c <SIM_CheckResponse+0x64>
 80014de:	4f50      	ldr	r7, [pc, #320]	@ (8001620 <SIM_CheckResponse+0x1f8>)
 80014e0:	783d      	ldrb	r5, [r7, #0]
 80014e2:	2d04      	cmp	r5, #4
 80014e4:	d902      	bls.n	80014ec <SIM_CheckResponse+0xc4>
 80014e6:	2204      	movs	r2, #4
 80014e8:	4b4e      	ldr	r3, [pc, #312]	@ (8001624 <SIM_CheckResponse+0x1fc>)
 80014ea:	e7c3      	b.n	8001474 <SIM_CheckResponse+0x4c>
 80014ec:	494e      	ldr	r1, [pc, #312]	@ (8001628 <SIM_CheckResponse+0x200>)
 80014ee:	484f      	ldr	r0, [pc, #316]	@ (800162c <SIM_CheckResponse+0x204>)
 80014f0:	f005 ff6d 	bl	80073ce <strstr>
 80014f4:	2800      	cmp	r0, #0
 80014f6:	d047      	beq.n	8001588 <SIM_CheckResponse+0x160>
 80014f8:	b10e      	cbz	r6, 80014fe <SIM_CheckResponse+0xd6>
 80014fa:	2304      	movs	r3, #4
 80014fc:	e7c6      	b.n	800148c <SIM_CheckResponse+0x64>
 80014fe:	2305      	movs	r3, #5
 8001500:	e7c4      	b.n	800148c <SIM_CheckResponse+0x64>
 8001502:	4e47      	ldr	r6, [pc, #284]	@ (8001620 <SIM_CheckResponse+0x1f8>)
 8001504:	7835      	ldrb	r5, [r6, #0]
 8001506:	2d04      	cmp	r5, #4
 8001508:	d902      	bls.n	8001510 <SIM_CheckResponse+0xe8>
 800150a:	2205      	movs	r2, #5
 800150c:	4b45      	ldr	r3, [pc, #276]	@ (8001624 <SIM_CheckResponse+0x1fc>)
 800150e:	e7b1      	b.n	8001474 <SIM_CheckResponse+0x4c>
 8001510:	4945      	ldr	r1, [pc, #276]	@ (8001628 <SIM_CheckResponse+0x200>)
 8001512:	4846      	ldr	r0, [pc, #280]	@ (800162c <SIM_CheckResponse+0x204>)
 8001514:	f005 ff5b 	bl	80073ce <strstr>
 8001518:	2800      	cmp	r0, #0
 800151a:	d074      	beq.n	8001606 <SIM_CheckResponse+0x1de>
 800151c:	2306      	movs	r3, #6
 800151e:	e7b5      	b.n	800148c <SIM_CheckResponse+0x64>
 8001520:	4e3f      	ldr	r6, [pc, #252]	@ (8001620 <SIM_CheckResponse+0x1f8>)
 8001522:	7835      	ldrb	r5, [r6, #0]
 8001524:	2d04      	cmp	r5, #4
 8001526:	d902      	bls.n	800152e <SIM_CheckResponse+0x106>
 8001528:	2207      	movs	r2, #7
 800152a:	4b3e      	ldr	r3, [pc, #248]	@ (8001624 <SIM_CheckResponse+0x1fc>)
 800152c:	e7a2      	b.n	8001474 <SIM_CheckResponse+0x4c>
 800152e:	4940      	ldr	r1, [pc, #256]	@ (8001630 <SIM_CheckResponse+0x208>)
 8001530:	483e      	ldr	r0, [pc, #248]	@ (800162c <SIM_CheckResponse+0x204>)
 8001532:	f005 ff4c 	bl	80073ce <strstr>
 8001536:	2800      	cmp	r0, #0
 8001538:	d065      	beq.n	8001606 <SIM_CheckResponse+0x1de>
 800153a:	2307      	movs	r3, #7
 800153c:	e7a6      	b.n	800148c <SIM_CheckResponse+0x64>
 800153e:	4e38      	ldr	r6, [pc, #224]	@ (8001620 <SIM_CheckResponse+0x1f8>)
 8001540:	7835      	ldrb	r5, [r6, #0]
 8001542:	2d04      	cmp	r5, #4
 8001544:	d902      	bls.n	800154c <SIM_CheckResponse+0x124>
 8001546:	2208      	movs	r2, #8
 8001548:	4b36      	ldr	r3, [pc, #216]	@ (8001624 <SIM_CheckResponse+0x1fc>)
 800154a:	e793      	b.n	8001474 <SIM_CheckResponse+0x4c>
 800154c:	4936      	ldr	r1, [pc, #216]	@ (8001628 <SIM_CheckResponse+0x200>)
 800154e:	4837      	ldr	r0, [pc, #220]	@ (800162c <SIM_CheckResponse+0x204>)
 8001550:	f005 ff3d 	bl	80073ce <strstr>
 8001554:	2800      	cmp	r0, #0
 8001556:	d056      	beq.n	8001606 <SIM_CheckResponse+0x1de>
 8001558:	2308      	movs	r3, #8
 800155a:	e797      	b.n	800148c <SIM_CheckResponse+0x64>
 800155c:	4f30      	ldr	r7, [pc, #192]	@ (8001620 <SIM_CheckResponse+0x1f8>)
 800155e:	783d      	ldrb	r5, [r7, #0]
 8001560:	2d04      	cmp	r5, #4
 8001562:	d902      	bls.n	800156a <SIM_CheckResponse+0x142>
 8001564:	2209      	movs	r2, #9
 8001566:	4b2f      	ldr	r3, [pc, #188]	@ (8001624 <SIM_CheckResponse+0x1fc>)
 8001568:	e784      	b.n	8001474 <SIM_CheckResponse+0x4c>
 800156a:	b15e      	cbz	r6, 8001584 <SIM_CheckResponse+0x15c>
 800156c:	4931      	ldr	r1, [pc, #196]	@ (8001634 <SIM_CheckResponse+0x20c>)
 800156e:	482f      	ldr	r0, [pc, #188]	@ (800162c <SIM_CheckResponse+0x204>)
 8001570:	f005 ff2d 	bl	80073ce <strstr>
 8001574:	b920      	cbnz	r0, 8001580 <SIM_CheckResponse+0x158>
 8001576:	4930      	ldr	r1, [pc, #192]	@ (8001638 <SIM_CheckResponse+0x210>)
 8001578:	482c      	ldr	r0, [pc, #176]	@ (800162c <SIM_CheckResponse+0x204>)
 800157a:	f005 ff28 	bl	80073ce <strstr>
 800157e:	b118      	cbz	r0, 8001588 <SIM_CheckResponse+0x160>
 8001580:	2309      	movs	r3, #9
 8001582:	e783      	b.n	800148c <SIM_CheckResponse+0x64>
 8001584:	492d      	ldr	r1, [pc, #180]	@ (800163c <SIM_CheckResponse+0x214>)
 8001586:	e7f2      	b.n	800156e <SIM_CheckResponse+0x146>
 8001588:	3501      	adds	r5, #1
 800158a:	703d      	strb	r5, [r7, #0]
 800158c:	e773      	b.n	8001476 <SIM_CheckResponse+0x4e>
 800158e:	4e24      	ldr	r6, [pc, #144]	@ (8001620 <SIM_CheckResponse+0x1f8>)
 8001590:	7835      	ldrb	r5, [r6, #0]
 8001592:	2d04      	cmp	r5, #4
 8001594:	d902      	bls.n	800159c <SIM_CheckResponse+0x174>
 8001596:	220a      	movs	r2, #10
 8001598:	4b22      	ldr	r3, [pc, #136]	@ (8001624 <SIM_CheckResponse+0x1fc>)
 800159a:	e76b      	b.n	8001474 <SIM_CheckResponse+0x4c>
 800159c:	4922      	ldr	r1, [pc, #136]	@ (8001628 <SIM_CheckResponse+0x200>)
 800159e:	4823      	ldr	r0, [pc, #140]	@ (800162c <SIM_CheckResponse+0x204>)
 80015a0:	f005 ff15 	bl	80073ce <strstr>
 80015a4:	b378      	cbz	r0, 8001606 <SIM_CheckResponse+0x1de>
 80015a6:	f44f 72fa 	mov.w	r2, #500	@ 0x1f4
 80015aa:	2100      	movs	r1, #0
 80015ac:	4824      	ldr	r0, [pc, #144]	@ (8001640 <SIM_CheckResponse+0x218>)
 80015ae:	f005 fee4 	bl	800737a <memset>
 80015b2:	491e      	ldr	r1, [pc, #120]	@ (800162c <SIM_CheckResponse+0x204>)
 80015b4:	4822      	ldr	r0, [pc, #136]	@ (8001640 <SIM_CheckResponse+0x218>)
 80015b6:	f005 ff98 	bl	80074ea <strcpy>
 80015ba:	230b      	movs	r3, #11
 80015bc:	e766      	b.n	800148c <SIM_CheckResponse+0x64>
 80015be:	2300      	movs	r3, #0
 80015c0:	e764      	b.n	800148c <SIM_CheckResponse+0x64>
 80015c2:	4d17      	ldr	r5, [pc, #92]	@ (8001620 <SIM_CheckResponse+0x1f8>)
 80015c4:	782c      	ldrb	r4, [r5, #0]
 80015c6:	2c04      	cmp	r4, #4
 80015c8:	d902      	bls.n	80015d0 <SIM_CheckResponse+0x1a8>
 80015ca:	220b      	movs	r2, #11
 80015cc:	4b15      	ldr	r3, [pc, #84]	@ (8001624 <SIM_CheckResponse+0x1fc>)
 80015ce:	e751      	b.n	8001474 <SIM_CheckResponse+0x4c>
 80015d0:	4915      	ldr	r1, [pc, #84]	@ (8001628 <SIM_CheckResponse+0x200>)
 80015d2:	4816      	ldr	r0, [pc, #88]	@ (800162c <SIM_CheckResponse+0x204>)
 80015d4:	f005 fefb 	bl	80073ce <strstr>
 80015d8:	2800      	cmp	r0, #0
 80015da:	f47f af5b 	bne.w	8001494 <SIM_CheckResponse+0x6c>
 80015de:	3401      	adds	r4, #1
 80015e0:	702c      	strb	r4, [r5, #0]
 80015e2:	e748      	b.n	8001476 <SIM_CheckResponse+0x4e>
 80015e4:	4e0e      	ldr	r6, [pc, #56]	@ (8001620 <SIM_CheckResponse+0x1f8>)
 80015e6:	7835      	ldrb	r5, [r6, #0]
 80015e8:	2d04      	cmp	r5, #4
 80015ea:	d902      	bls.n	80015f2 <SIM_CheckResponse+0x1ca>
 80015ec:	220d      	movs	r2, #13
 80015ee:	4b0d      	ldr	r3, [pc, #52]	@ (8001624 <SIM_CheckResponse+0x1fc>)
 80015f0:	e740      	b.n	8001474 <SIM_CheckResponse+0x4c>
 80015f2:	490d      	ldr	r1, [pc, #52]	@ (8001628 <SIM_CheckResponse+0x200>)
 80015f4:	480d      	ldr	r0, [pc, #52]	@ (800162c <SIM_CheckResponse+0x204>)
 80015f6:	f005 feea 	bl	80073ce <strstr>
 80015fa:	b120      	cbz	r0, 8001606 <SIM_CheckResponse+0x1de>
 80015fc:	2300      	movs	r3, #0
 80015fe:	4a09      	ldr	r2, [pc, #36]	@ (8001624 <SIM_CheckResponse+0x1fc>)
 8001600:	7023      	strb	r3, [r4, #0]
 8001602:	7013      	strb	r3, [r2, #0]
 8001604:	e737      	b.n	8001476 <SIM_CheckResponse+0x4e>
 8001606:	3501      	adds	r5, #1
 8001608:	7035      	strb	r5, [r6, #0]
 800160a:	e734      	b.n	8001476 <SIM_CheckResponse+0x4e>
 800160c:	2300      	movs	r3, #0
 800160e:	7023      	strb	r3, [r4, #0]
 8001610:	230a      	movs	r3, #10
 8001612:	e7f6      	b.n	8001602 <SIM_CheckResponse+0x1da>
 8001614:	20000001 	.word	0x20000001
 8001618:	20000705 	.word	0x20000705
 800161c:	20000002 	.word	0x20000002
 8001620:	2000031c 	.word	0x2000031c
 8001624:	20000000 	.word	0x20000000
 8001628:	08009714 	.word	0x08009714
 800162c:	2000031d 	.word	0x2000031d
 8001630:	08009717 	.word	0x08009717
 8001634:	08009720 	.word	0x08009720
 8001638:	08009724 	.word	0x08009724
 800163c:	08009728 	.word	0x08009728
 8001640:	20000511 	.word	0x20000511

08001644 <SIMCom_Post>:
 8001644:	e92d 43f0 	stmdb	sp!, {r4, r5, r6, r7, r8, r9, lr}
 8001648:	4605      	mov	r5, r0
 800164a:	460f      	mov	r7, r1
 800164c:	4690      	mov	r8, r2
 800164e:	4c34      	ldr	r4, [pc, #208]	@ (8001720 <SIMCom_Post+0xdc>)
 8001650:	4e34      	ldr	r6, [pc, #208]	@ (8001724 <SIMCom_Post+0xe0>)
 8001652:	b0a7      	sub	sp, #156	@ 0x9c
 8001654:	6823      	ldr	r3, [r4, #0]
 8001656:	b9ab      	cbnz	r3, 8001684 <SIMCom_Post+0x40>
 8001658:	f002 faa4 	bl	8003ba4 <HAL_GetTick>
 800165c:	6020      	str	r0, [r4, #0]
 800165e:	f8df 90c8 	ldr.w	r9, [pc, #200]	@ 8001728 <SIMCom_Post+0xe4>
 8001662:	2032      	movs	r0, #50	@ 0x32
 8001664:	f7ff fea8 	bl	80013b8 <delay_ms>
 8001668:	f899 3000 	ldrb.w	r3, [r9]
 800166c:	2b0e      	cmp	r3, #14
 800166e:	d816      	bhi.n	800169e <SIMCom_Post+0x5a>
 8001670:	e8df f003 	tbb	[pc, r3]
 8001674:	2c292611 	.word	0x2c292611
 8001678:	42371534 	.word	0x42371534
 800167c:	4a4a4744 	.word	0x4a4a4744
 8001680:	1515      	.short	0x1515
 8001682:	4d          	.byte	0x4d
 8001683:	00          	.byte	0x00
 8001684:	f002 fa8e 	bl	8003ba4 <HAL_GetTick>
 8001688:	6823      	ldr	r3, [r4, #0]
 800168a:	1ac0      	subs	r0, r0, r3
 800168c:	4540      	cmp	r0, r8
 800168e:	bf24      	itt	cs
 8001690:	230c      	movcs	r3, #12
 8001692:	7033      	strbcs	r3, [r6, #0]
 8001694:	e7e3      	b.n	800165e <SIMCom_Post+0x1a>
 8001696:	4b25      	ldr	r3, [pc, #148]	@ (800172c <SIMCom_Post+0xe8>)
 8001698:	6818      	ldr	r0, [r3, #0]
 800169a:	f7ff fe99 	bl	80013d0 <Transmit>
 800169e:	7830      	ldrb	r0, [r6, #0]
 80016a0:	280e      	cmp	r0, #14
 80016a2:	d0d7      	beq.n	8001654 <SIMCom_Post+0x10>
 80016a4:	2300      	movs	r3, #0
 80016a6:	4a22      	ldr	r2, [pc, #136]	@ (8001730 <SIMCom_Post+0xec>)
 80016a8:	6023      	str	r3, [r4, #0]
 80016aa:	7013      	strb	r3, [r2, #0]
 80016ac:	230a      	movs	r3, #10
 80016ae:	4a21      	ldr	r2, [pc, #132]	@ (8001734 <SIMCom_Post+0xf0>)
 80016b0:	f889 3000 	strb.w	r3, [r9]
 80016b4:	7013      	strb	r3, [r2, #0]
 80016b6:	230e      	movs	r3, #14
 80016b8:	7033      	strb	r3, [r6, #0]
 80016ba:	b027      	add	sp, #156	@ 0x9c
 80016bc:	e8bd 83f0 	ldmia.w	sp!, {r4, r5, r6, r7, r8, r9, pc}
 80016c0:	4b1a      	ldr	r3, [pc, #104]	@ (800172c <SIMCom_Post+0xe8>)
 80016c2:	6898      	ldr	r0, [r3, #8]
 80016c4:	e7e9      	b.n	800169a <SIMCom_Post+0x56>
 80016c6:	4b19      	ldr	r3, [pc, #100]	@ (800172c <SIMCom_Post+0xe8>)
 80016c8:	68d8      	ldr	r0, [r3, #12]
 80016ca:	e7e6      	b.n	800169a <SIMCom_Post+0x56>
 80016cc:	463b      	mov	r3, r7
 80016ce:	21c8      	movs	r1, #200	@ 0xc8
 80016d0:	4a19      	ldr	r2, [pc, #100]	@ (8001738 <SIMCom_Post+0xf4>)
 80016d2:	481a      	ldr	r0, [pc, #104]	@ (800173c <SIMCom_Post+0xf8>)
 80016d4:	f005 fdd8 	bl	8007288 <sniprintf>
 80016d8:	4818      	ldr	r0, [pc, #96]	@ (800173c <SIMCom_Post+0xf8>)
 80016da:	e7de      	b.n	800169a <SIMCom_Post+0x56>
 80016dc:	4b13      	ldr	r3, [pc, #76]	@ (800172c <SIMCom_Post+0xe8>)
 80016de:	6958      	ldr	r0, [r3, #20]
 80016e0:	e7db      	b.n	800169a <SIMCom_Post+0x56>
 80016e2:	4628      	mov	r0, r5
 80016e4:	f7fe fd34 	bl	8000150 <strlen>
 80016e8:	2196      	movs	r1, #150	@ 0x96
 80016ea:	4603      	mov	r3, r0
 80016ec:	4a14      	ldr	r2, [pc, #80]	@ (8001740 <SIMCom_Post+0xfc>)
 80016ee:	4668      	mov	r0, sp
 80016f0:	f005 fdca 	bl	8007288 <sniprintf>
 80016f4:	4668      	mov	r0, sp
 80016f6:	e7d0      	b.n	800169a <SIMCom_Post+0x56>
 80016f8:	4628      	mov	r0, r5
 80016fa:	e7ce      	b.n	800169a <SIMCom_Post+0x56>
 80016fc:	4b0b      	ldr	r3, [pc, #44]	@ (800172c <SIMCom_Post+0xe8>)
 80016fe:	6998      	ldr	r0, [r3, #24]
 8001700:	e7cb      	b.n	800169a <SIMCom_Post+0x56>
 8001702:	4b0a      	ldr	r3, [pc, #40]	@ (800172c <SIMCom_Post+0xe8>)
 8001704:	69d8      	ldr	r0, [r3, #28]
 8001706:	e7c8      	b.n	800169a <SIMCom_Post+0x56>
 8001708:	4b08      	ldr	r3, [pc, #32]	@ (800172c <SIMCom_Post+0xe8>)
 800170a:	6a18      	ldr	r0, [r3, #32]
 800170c:	e7c5      	b.n	800169a <SIMCom_Post+0x56>
 800170e:	4b0d      	ldr	r3, [pc, #52]	@ (8001744 <SIMCom_Post+0x100>)
 8001710:	781b      	ldrb	r3, [r3, #0]
 8001712:	2b00      	cmp	r3, #0
 8001714:	d0c3      	beq.n	800169e <SIMCom_Post+0x5a>
 8001716:	2001      	movs	r0, #1
 8001718:	f7ff fe86 	bl	8001428 <SIM_CheckResponse>
 800171c:	e7bf      	b.n	800169e <SIMCom_Post+0x5a>
 800171e:	bf00      	nop
 8001720:	20000318 	.word	0x20000318
 8001724:	20000000 	.word	0x20000000
 8001728:	20000002 	.word	0x20000002
 800172c:	20000004 	.word	0x20000004
 8001730:	2000031c 	.word	0x2000031c
 8001734:	20000001 	.word	0x20000001
 8001738:	0800972c 	.word	0x0800972c
 800173c:	20000250 	.word	0x20000250
 8001740:	08009744 	.word	0x08009744
 8001744:	20000705 	.word	0x20000705

08001748 <SIM_Sleep>:
 8001748:	b5f8      	push	{r3, r4, r5, r6, r7, lr}
 800174a:	4607      	mov	r7, r0
 800174c:	4c1f      	ldr	r4, [pc, #124]	@ (80017cc <SIM_Sleep+0x84>)
 800174e:	4d20      	ldr	r5, [pc, #128]	@ (80017d0 <SIM_Sleep+0x88>)
 8001750:	6823      	ldr	r3, [r4, #0]
 8001752:	b9db      	cbnz	r3, 800178c <SIM_Sleep+0x44>
 8001754:	f002 fa26 	bl	8003ba4 <HAL_GetTick>
 8001758:	6020      	str	r0, [r4, #0]
 800175a:	4e1e      	ldr	r6, [pc, #120]	@ (80017d4 <SIM_Sleep+0x8c>)
 800175c:	201e      	movs	r0, #30
 800175e:	f7ff fe2b 	bl	80013b8 <delay_ms>
 8001762:	7833      	ldrb	r3, [r6, #0]
 8001764:	2b0c      	cmp	r3, #12
 8001766:	d02b      	beq.n	80017c0 <SIM_Sleep+0x78>
 8001768:	d819      	bhi.n	800179e <SIM_Sleep+0x56>
 800176a:	b323      	cbz	r3, 80017b6 <SIM_Sleep+0x6e>
 800176c:	2b0a      	cmp	r3, #10
 800176e:	d02a      	beq.n	80017c6 <SIM_Sleep+0x7e>
 8001770:	7828      	ldrb	r0, [r5, #0]
 8001772:	280e      	cmp	r0, #14
 8001774:	d0ec      	beq.n	8001750 <SIM_Sleep+0x8>
 8001776:	2300      	movs	r3, #0
 8001778:	4a17      	ldr	r2, [pc, #92]	@ (80017d8 <SIM_Sleep+0x90>)
 800177a:	6023      	str	r3, [r4, #0]
 800177c:	7013      	strb	r3, [r2, #0]
 800177e:	230a      	movs	r3, #10
 8001780:	4a16      	ldr	r2, [pc, #88]	@ (80017dc <SIM_Sleep+0x94>)
 8001782:	7033      	strb	r3, [r6, #0]
 8001784:	7013      	strb	r3, [r2, #0]
 8001786:	230e      	movs	r3, #14
 8001788:	702b      	strb	r3, [r5, #0]
 800178a:	bdf8      	pop	{r3, r4, r5, r6, r7, pc}
 800178c:	f002 fa0a 	bl	8003ba4 <HAL_GetTick>
 8001790:	6823      	ldr	r3, [r4, #0]
 8001792:	1ac0      	subs	r0, r0, r3
 8001794:	42b8      	cmp	r0, r7
 8001796:	bf24      	itt	cs
 8001798:	230c      	movcs	r3, #12
 800179a:	702b      	strbcs	r3, [r5, #0]
 800179c:	e7dd      	b.n	800175a <SIM_Sleep+0x12>
 800179e:	2b0e      	cmp	r3, #14
 80017a0:	d1e6      	bne.n	8001770 <SIM_Sleep+0x28>
 80017a2:	4b0f      	ldr	r3, [pc, #60]	@ (80017e0 <SIM_Sleep+0x98>)
 80017a4:	781a      	ldrb	r2, [r3, #0]
 80017a6:	2a00      	cmp	r2, #0
 80017a8:	d0e2      	beq.n	8001770 <SIM_Sleep+0x28>
 80017aa:	2200      	movs	r2, #0
 80017ac:	2002      	movs	r0, #2
 80017ae:	701a      	strb	r2, [r3, #0]
 80017b0:	f7ff fe3a 	bl	8001428 <SIM_CheckResponse>
 80017b4:	e7dc      	b.n	8001770 <SIM_Sleep+0x28>
 80017b6:	4b0b      	ldr	r3, [pc, #44]	@ (80017e4 <SIM_Sleep+0x9c>)
 80017b8:	6818      	ldr	r0, [r3, #0]
 80017ba:	f7ff fe09 	bl	80013d0 <Transmit>
 80017be:	e7d7      	b.n	8001770 <SIM_Sleep+0x28>
 80017c0:	4b08      	ldr	r3, [pc, #32]	@ (80017e4 <SIM_Sleep+0x9c>)
 80017c2:	6ad8      	ldr	r0, [r3, #44]	@ 0x2c
 80017c4:	e7f9      	b.n	80017ba <SIM_Sleep+0x72>
 80017c6:	2300      	movs	r3, #0
 80017c8:	7033      	strb	r3, [r6, #0]
 80017ca:	e7d1      	b.n	8001770 <SIM_Sleep+0x28>
 80017cc:	20000318 	.word	0x20000318
 80017d0:	20000000 	.word	0x20000000
 80017d4:	20000002 	.word	0x20000002
 80017d8:	2000031c 	.word	0x2000031c
 80017dc:	20000001 	.word	0x20000001
 80017e0:	20000705 	.word	0x20000705
 80017e4:	20000004 	.word	0x20000004

080017e8 <SIM_Wakeup>:
 80017e8:	b5f8      	push	{r3, r4, r5, r6, r7, lr}
 80017ea:	4607      	mov	r7, r0
 80017ec:	4c20      	ldr	r4, [pc, #128]	@ (8001870 <SIM_Wakeup+0x88>)
 80017ee:	4d21      	ldr	r5, [pc, #132]	@ (8001874 <SIM_Wakeup+0x8c>)
 80017f0:	6823      	ldr	r3, [r4, #0]
 80017f2:	b9f3      	cbnz	r3, 8001832 <SIM_Wakeup+0x4a>
 80017f4:	f002 f9d6 	bl	8003ba4 <HAL_GetTick>
 80017f8:	6020      	str	r0, [r4, #0]
 80017fa:	4e1f      	ldr	r6, [pc, #124]	@ (8001878 <SIM_Wakeup+0x90>)
 80017fc:	201e      	movs	r0, #30
 80017fe:	f7ff fddb 	bl	80013b8 <delay_ms>
 8001802:	7833      	ldrb	r3, [r6, #0]
 8001804:	2b0a      	cmp	r3, #10
 8001806:	d01d      	beq.n	8001844 <SIM_Wakeup+0x5c>
 8001808:	2b0e      	cmp	r3, #14
 800180a:	d027      	beq.n	800185c <SIM_Wakeup+0x74>
 800180c:	b91b      	cbnz	r3, 8001816 <SIM_Wakeup+0x2e>
 800180e:	4b1b      	ldr	r3, [pc, #108]	@ (800187c <SIM_Wakeup+0x94>)
 8001810:	6818      	ldr	r0, [r3, #0]
 8001812:	f7ff fddd 	bl	80013d0 <Transmit>
 8001816:	7828      	ldrb	r0, [r5, #0]
 8001818:	280e      	cmp	r0, #14
 800181a:	d0e9      	beq.n	80017f0 <SIM_Wakeup+0x8>
 800181c:	2300      	movs	r3, #0
 800181e:	4a18      	ldr	r2, [pc, #96]	@ (8001880 <SIM_Wakeup+0x98>)
 8001820:	6023      	str	r3, [r4, #0]
 8001822:	7013      	strb	r3, [r2, #0]
 8001824:	230a      	movs	r3, #10
 8001826:	4a17      	ldr	r2, [pc, #92]	@ (8001884 <SIM_Wakeup+0x9c>)
 8001828:	7033      	strb	r3, [r6, #0]
 800182a:	7013      	strb	r3, [r2, #0]
 800182c:	230e      	movs	r3, #14
 800182e:	702b      	strb	r3, [r5, #0]
 8001830:	bdf8      	pop	{r3, r4, r5, r6, r7, pc}
 8001832:	f002 f9b7 	bl	8003ba4 <HAL_GetTick>
 8001836:	6823      	ldr	r3, [r4, #0]
 8001838:	1ac0      	subs	r0, r0, r3
 800183a:	42b8      	cmp	r0, r7
 800183c:	bf24      	itt	cs
 800183e:	230c      	movcs	r3, #12
 8001840:	702b      	strbcs	r3, [r5, #0]
 8001842:	e7da      	b.n	80017fa <SIM_Wakeup+0x12>
 8001844:	2332      	movs	r3, #50	@ 0x32
 8001846:	2203      	movs	r2, #3
 8001848:	490f      	ldr	r1, [pc, #60]	@ (8001888 <SIM_Wakeup+0xa0>)
 800184a:	4810      	ldr	r0, [pc, #64]	@ (800188c <SIM_Wakeup+0xa4>)
 800184c:	f004 fdbb 	bl	80063c6 <HAL_UART_Transmit>
 8001850:	2300      	movs	r3, #0
 8001852:	2064      	movs	r0, #100	@ 0x64
 8001854:	7033      	strb	r3, [r6, #0]
 8001856:	f7ff fdaf 	bl	80013b8 <delay_ms>
 800185a:	e7dc      	b.n	8001816 <SIM_Wakeup+0x2e>
 800185c:	4b0c      	ldr	r3, [pc, #48]	@ (8001890 <SIM_Wakeup+0xa8>)
 800185e:	781a      	ldrb	r2, [r3, #0]
 8001860:	2a00      	cmp	r2, #0
 8001862:	d0d8      	beq.n	8001816 <SIM_Wakeup+0x2e>
 8001864:	2200      	movs	r2, #0
 8001866:	2003      	movs	r0, #3
 8001868:	701a      	strb	r2, [r3, #0]
 800186a:	f7ff fddd 	bl	8001428 <SIM_CheckResponse>
 800186e:	e7d2      	b.n	8001816 <SIM_Wakeup+0x2e>
 8001870:	20000318 	.word	0x20000318
 8001874:	20000000 	.word	0x20000000
 8001878:	20000002 	.word	0x20000002
 800187c:	20000004 	.word	0x20000004
 8001880:	2000031c 	.word	0x2000031c
 8001884:	20000001 	.word	0x20000001
 8001888:	08009710 	.word	0x08009710
 800188c:	20000794 	.word	0x20000794
 8001890:	20000705 	.word	0x20000705

08001894 <delay_us>:
 8001894:	2200      	movs	r2, #0
 8001896:	4b03      	ldr	r3, [pc, #12]	@ (80018a4 <delay_us+0x10>)
 8001898:	681b      	ldr	r3, [r3, #0]
 800189a:	625a      	str	r2, [r3, #36]	@ 0x24
 800189c:	6a5a      	ldr	r2, [r3, #36]	@ 0x24
 800189e:	4282      	cmp	r2, r0
 80018a0:	d3fc      	bcc.n	800189c <delay_us+0x8>
 80018a2:	4770      	bx	lr
 80018a4:	20000824 	.word	0x20000824

080018a8 <Ultra_ReadDistance>:
 80018a8:	e92d 41f0 	stmdb	sp!, {r4, r5, r6, r7, r8, lr}
 80018ac:	f644 6720 	movw	r7, #20000	@ 0x4e20
 80018b0:	2200      	movs	r2, #0
 80018b2:	2108      	movs	r1, #8
 80018b4:	4824      	ldr	r0, [pc, #144]	@ (8001948 <Ultra_ReadDistance+0xa0>)
 80018b6:	f002 fe75 	bl	80045a4 <HAL_GPIO_WritePin>
 80018ba:	2002      	movs	r0, #2
 80018bc:	f7ff ffea 	bl	8001894 <delay_us>
 80018c0:	2108      	movs	r1, #8
 80018c2:	2201      	movs	r2, #1
 80018c4:	4820      	ldr	r0, [pc, #128]	@ (8001948 <Ultra_ReadDistance+0xa0>)
 80018c6:	f002 fe6d 	bl	80045a4 <HAL_GPIO_WritePin>
 80018ca:	4c20      	ldr	r4, [pc, #128]	@ (800194c <Ultra_ReadDistance+0xa4>)
 80018cc:	200a      	movs	r0, #10
 80018ce:	f7ff ffe1 	bl	8001894 <delay_us>
 80018d2:	2108      	movs	r1, #8
 80018d4:	2200      	movs	r2, #0
 80018d6:	481c      	ldr	r0, [pc, #112]	@ (8001948 <Ultra_ReadDistance+0xa0>)
 80018d8:	f002 fe64 	bl	80045a4 <HAL_GPIO_WritePin>
 80018dc:	6823      	ldr	r3, [r4, #0]
 80018de:	4d1c      	ldr	r5, [pc, #112]	@ (8001950 <Ultra_ReadDistance+0xa8>)
 80018e0:	6a5b      	ldr	r3, [r3, #36]	@ 0x24
 80018e2:	4e19      	ldr	r6, [pc, #100]	@ (8001948 <Ultra_ReadDistance+0xa0>)
 80018e4:	602b      	str	r3, [r5, #0]
 80018e6:	2110      	movs	r1, #16
 80018e8:	4630      	mov	r0, r6
 80018ea:	f002 fe55 	bl	8004598 <HAL_GPIO_ReadPin>
 80018ee:	6823      	ldr	r3, [r4, #0]
 80018f0:	b1e0      	cbz	r0, 800192c <Ultra_ReadDistance+0x84>
 80018f2:	f644 6820 	movw	r8, #20000	@ 0x4e20
 80018f6:	6a5a      	ldr	r2, [r3, #36]	@ 0x24
 80018f8:	4d16      	ldr	r5, [pc, #88]	@ (8001954 <Ultra_ReadDistance+0xac>)
 80018fa:	6a5b      	ldr	r3, [r3, #36]	@ 0x24
 80018fc:	4e16      	ldr	r6, [pc, #88]	@ (8001958 <Ultra_ReadDistance+0xb0>)
 80018fe:	4f12      	ldr	r7, [pc, #72]	@ (8001948 <Ultra_ReadDistance+0xa0>)
 8001900:	602a      	str	r2, [r5, #0]
 8001902:	6033      	str	r3, [r6, #0]
 8001904:	2110      	movs	r1, #16
 8001906:	4638      	mov	r0, r7
 8001908:	f002 fe46 	bl	8004598 <HAL_GPIO_ReadPin>
 800190c:	2801      	cmp	r0, #1
 800190e:	6823      	ldr	r3, [r4, #0]
 8001910:	d014      	beq.n	800193c <Ultra_ReadDistance+0x94>
 8001912:	6a58      	ldr	r0, [r3, #36]	@ 0x24
 8001914:	4b11      	ldr	r3, [pc, #68]	@ (800195c <Ultra_ReadDistance+0xb4>)
 8001916:	6018      	str	r0, [r3, #0]
 8001918:	682b      	ldr	r3, [r5, #0]
 800191a:	1ac0      	subs	r0, r0, r3
 800191c:	4b10      	ldr	r3, [pc, #64]	@ (8001960 <Ultra_ReadDistance+0xb8>)
 800191e:	6018      	str	r0, [r3, #0]
 8001920:	f7ff f9b8 	bl	8000c94 <__aeabi_ui2f>
 8001924:	490f      	ldr	r1, [pc, #60]	@ (8001964 <Ultra_ReadDistance+0xbc>)
 8001926:	f7ff fac1 	bl	8000eac <__aeabi_fdiv>
 800192a:	e005      	b.n	8001938 <Ultra_ReadDistance+0x90>
 800192c:	6a5b      	ldr	r3, [r3, #36]	@ 0x24
 800192e:	682a      	ldr	r2, [r5, #0]
 8001930:	1a9b      	subs	r3, r3, r2
 8001932:	42bb      	cmp	r3, r7
 8001934:	d9d7      	bls.n	80018e6 <Ultra_ReadDistance+0x3e>
 8001936:	480c      	ldr	r0, [pc, #48]	@ (8001968 <Ultra_ReadDistance+0xc0>)
 8001938:	e8bd 81f0 	ldmia.w	sp!, {r4, r5, r6, r7, r8, pc}
 800193c:	6a5b      	ldr	r3, [r3, #36]	@ 0x24
 800193e:	6832      	ldr	r2, [r6, #0]
 8001940:	1a9b      	subs	r3, r3, r2
 8001942:	4543      	cmp	r3, r8
 8001944:	d9de      	bls.n	8001904 <Ultra_ReadDistance+0x5c>
 8001946:	e7f6      	b.n	8001936 <Ultra_ReadDistance+0x8e>
 8001948:	40010c00 	.word	0x40010c00
 800194c:	20000824 	.word	0x20000824
 8001950:	2000070c 	.word	0x2000070c
 8001954:	20000718 	.word	0x20000718
 8001958:	20000708 	.word	0x20000708
 800195c:	20000714 	.word	0x20000714
 8001960:	20000710 	.word	0x20000710
 8001964:	40b9999a 	.word	0x40b9999a
 8001968:	bf800000 	.word	0xbf800000

0800196c <timeoutMicrosecondsToMclks>:
 800196c:	4b08      	ldr	r3, [pc, #32]	@ (8001990 <timeoutMicrosecondsToMclks+0x24>)
 800196e:	f44f 727a 	mov.w	r2, #1000	@ 0x3e8
 8001972:	4359      	muls	r1, r3
 8001974:	f44f 63fa 	mov.w	r3, #2000	@ 0x7d0
 8001978:	f501 71fa 	add.w	r1, r1, #500	@ 0x1f4
 800197c:	fbb1 f3f3 	udiv	r3, r1, r3
 8001980:	fbb1 f1f2 	udiv	r1, r1, r2
 8001984:	fb02 3000 	mla	r0, r2, r0, r3
 8001988:	fbb0 f0f1 	udiv	r0, r0, r1
 800198c:	4770      	bx	lr
 800198e:	bf00      	nop
 8001990:	003a2f00 	.word	0x003a2f00

08001994 <encodeTimeout>:
 8001994:	b140      	cbz	r0, 80019a8 <encodeTimeout+0x14>
 8001996:	2300      	movs	r3, #0
 8001998:	3801      	subs	r0, #1
 800199a:	28ff      	cmp	r0, #255	@ 0xff
 800199c:	f103 0201 	add.w	r2, r3, #1
 80019a0:	d803      	bhi.n	80019aa <encodeTimeout+0x16>
 80019a2:	ea40 2003 	orr.w	r0, r0, r3, lsl #8
 80019a6:	b280      	uxth	r0, r0
 80019a8:	4770      	bx	lr
 80019aa:	4613      	mov	r3, r2
 80019ac:	0840      	lsrs	r0, r0, #1
 80019ae:	e7f4      	b.n	800199a <encodeTimeout+0x6>

080019b0 <writeReg>:
 80019b0:	b51f      	push	{r0, r1, r2, r3, r4, lr}
 80019b2:	4c08      	ldr	r4, [pc, #32]	@ (80019d4 <writeReg+0x24>)
 80019b4:	2301      	movs	r3, #1
 80019b6:	7021      	strb	r1, [r4, #0]
 80019b8:	2164      	movs	r1, #100	@ 0x64
 80019ba:	e9cd 3101 	strd	r3, r1, [sp, #4]
 80019be:	4906      	ldr	r1, [pc, #24]	@ (80019d8 <writeReg+0x28>)
 80019c0:	9400      	str	r4, [sp, #0]
 80019c2:	4602      	mov	r2, r0
 80019c4:	7809      	ldrb	r1, [r1, #0]
 80019c6:	4805      	ldr	r0, [pc, #20]	@ (80019dc <writeReg+0x2c>)
 80019c8:	f003 fa6e 	bl	8004ea8 <HAL_I2C_Mem_Write>
 80019cc:	4b04      	ldr	r3, [pc, #16]	@ (80019e0 <writeReg+0x30>)
 80019ce:	7018      	strb	r0, [r3, #0]
 80019d0:	b004      	add	sp, #16
 80019d2:	bd10      	pop	{r4, pc}
 80019d4:	2000071d 	.word	0x2000071d
 80019d8:	2000003a 	.word	0x2000003a
 80019dc:	20000724 	.word	0x20000724
 80019e0:	2000071c 	.word	0x2000071c

080019e4 <writeReg16Bit>:
 80019e4:	b51f      	push	{r0, r1, r2, r3, r4, lr}
 80019e6:	4b09      	ldr	r3, [pc, #36]	@ (8001a0c <writeReg16Bit+0x28>)
 80019e8:	4602      	mov	r2, r0
 80019ea:	8019      	strh	r1, [r3, #0]
 80019ec:	2064      	movs	r0, #100	@ 0x64
 80019ee:	2102      	movs	r1, #2
 80019f0:	e9cd 1001 	strd	r1, r0, [sp, #4]
 80019f4:	4906      	ldr	r1, [pc, #24]	@ (8001a10 <writeReg16Bit+0x2c>)
 80019f6:	9300      	str	r3, [sp, #0]
 80019f8:	7809      	ldrb	r1, [r1, #0]
 80019fa:	2301      	movs	r3, #1
 80019fc:	4805      	ldr	r0, [pc, #20]	@ (8001a14 <writeReg16Bit+0x30>)
 80019fe:	f003 fa53 	bl	8004ea8 <HAL_I2C_Mem_Write>
 8001a02:	4b05      	ldr	r3, [pc, #20]	@ (8001a18 <writeReg16Bit+0x34>)
 8001a04:	7018      	strb	r0, [r3, #0]
 8001a06:	b005      	add	sp, #20
 8001a08:	f85d fb04 	ldr.w	pc, [sp], #4
 8001a0c:	2000071d 	.word	0x2000071d
 8001a10:	2000003a 	.word	0x2000003a
 8001a14:	20000724 	.word	0x20000724
 8001a18:	2000071c 	.word	0x2000071c

08001a1c <readReg>:
 8001a1c:	b51f      	push	{r0, r1, r2, r3, r4, lr}
 8001a1e:	4b09      	ldr	r3, [pc, #36]	@ (8001a44 <readReg+0x28>)
 8001a20:	4602      	mov	r2, r0
 8001a22:	7819      	ldrb	r1, [r3, #0]
 8001a24:	2064      	movs	r0, #100	@ 0x64
 8001a26:	2301      	movs	r3, #1
 8001a28:	4c07      	ldr	r4, [pc, #28]	@ (8001a48 <readReg+0x2c>)
 8001a2a:	e9cd 3001 	strd	r3, r0, [sp, #4]
 8001a2e:	4319      	orrs	r1, r3
 8001a30:	9400      	str	r4, [sp, #0]
 8001a32:	4806      	ldr	r0, [pc, #24]	@ (8001a4c <readReg+0x30>)
 8001a34:	f003 fac8 	bl	8004fc8 <HAL_I2C_Mem_Read>
 8001a38:	4b05      	ldr	r3, [pc, #20]	@ (8001a50 <readReg+0x34>)
 8001a3a:	7018      	strb	r0, [r3, #0]
 8001a3c:	7820      	ldrb	r0, [r4, #0]
 8001a3e:	b004      	add	sp, #16
 8001a40:	bd10      	pop	{r4, pc}
 8001a42:	bf00      	nop
 8001a44:	2000003a 	.word	0x2000003a
 8001a48:	2000071d 	.word	0x2000071d
 8001a4c:	20000724 	.word	0x20000724
 8001a50:	2000071c 	.word	0x2000071c

08001a54 <readReg16Bit>:
 8001a54:	b51f      	push	{r0, r1, r2, r3, r4, lr}
 8001a56:	4b09      	ldr	r3, [pc, #36]	@ (8001a7c <readReg16Bit+0x28>)
 8001a58:	4602      	mov	r2, r0
 8001a5a:	7819      	ldrb	r1, [r3, #0]
 8001a5c:	2064      	movs	r0, #100	@ 0x64
 8001a5e:	2302      	movs	r3, #2
 8001a60:	e9cd 3001 	strd	r3, r0, [sp, #4]
 8001a64:	2301      	movs	r3, #1
 8001a66:	4c06      	ldr	r4, [pc, #24]	@ (8001a80 <readReg16Bit+0x2c>)
 8001a68:	4319      	orrs	r1, r3
 8001a6a:	9400      	str	r4, [sp, #0]
 8001a6c:	4805      	ldr	r0, [pc, #20]	@ (8001a84 <readReg16Bit+0x30>)
 8001a6e:	f003 faab 	bl	8004fc8 <HAL_I2C_Mem_Read>
 8001a72:	4b05      	ldr	r3, [pc, #20]	@ (8001a88 <readReg16Bit+0x34>)
 8001a74:	7018      	strb	r0, [r3, #0]
 8001a76:	8820      	ldrh	r0, [r4, #0]
 8001a78:	b004      	add	sp, #16
 8001a7a:	bd10      	pop	{r4, pc}
 8001a7c:	2000003a 	.word	0x2000003a
 8001a80:	2000071d 	.word	0x2000071d
 8001a84:	20000724 	.word	0x20000724
 8001a88:	2000071c 	.word	0x2000071c

08001a8c <writeMulti>:
 8001a8c:	b51f      	push	{r0, r1, r2, r3, r4, lr}
 8001a8e:	4b09      	ldr	r3, [pc, #36]	@ (8001ab4 <writeMulti+0x28>)
 8001a90:	6809      	ldr	r1, [r1, #0]
 8001a92:	6019      	str	r1, [r3, #0]
 8001a94:	2164      	movs	r1, #100	@ 0x64
 8001a96:	e9cd 2101 	strd	r2, r1, [sp, #4]
 8001a9a:	4907      	ldr	r1, [pc, #28]	@ (8001ab8 <writeMulti+0x2c>)
 8001a9c:	9300      	str	r3, [sp, #0]
 8001a9e:	4602      	mov	r2, r0
 8001aa0:	2301      	movs	r3, #1
 8001aa2:	7809      	ldrb	r1, [r1, #0]
 8001aa4:	4805      	ldr	r0, [pc, #20]	@ (8001abc <writeMulti+0x30>)
 8001aa6:	f003 f9ff 	bl	8004ea8 <HAL_I2C_Mem_Write>
 8001aaa:	4b05      	ldr	r3, [pc, #20]	@ (8001ac0 <writeMulti+0x34>)
 8001aac:	7018      	strb	r0, [r3, #0]
 8001aae:	b005      	add	sp, #20
 8001ab0:	f85d fb04 	ldr.w	pc, [sp], #4
 8001ab4:	2000071d 	.word	0x2000071d
 8001ab8:	2000003a 	.word	0x2000003a
 8001abc:	20000724 	.word	0x20000724
 8001ac0:	2000071c 	.word	0x2000071c

08001ac4 <readMulti>:
 8001ac4:	b51f      	push	{r0, r1, r2, r3, r4, lr}
 8001ac6:	4b08      	ldr	r3, [pc, #32]	@ (8001ae8 <readMulti+0x24>)
 8001ac8:	781c      	ldrb	r4, [r3, #0]
 8001aca:	2364      	movs	r3, #100	@ 0x64
 8001acc:	e9cd 2301 	strd	r2, r3, [sp, #4]
 8001ad0:	2301      	movs	r3, #1
 8001ad2:	4602      	mov	r2, r0
 8001ad4:	9100      	str	r1, [sp, #0]
 8001ad6:	4805      	ldr	r0, [pc, #20]	@ (8001aec <readMulti+0x28>)
 8001ad8:	ea44 0103 	orr.w	r1, r4, r3
 8001adc:	f003 fa74 	bl	8004fc8 <HAL_I2C_Mem_Read>
 8001ae0:	4b03      	ldr	r3, [pc, #12]	@ (8001af0 <readMulti+0x2c>)
 8001ae2:	7018      	strb	r0, [r3, #0]
 8001ae4:	b004      	add	sp, #16
 8001ae6:	bd10      	pop	{r4, pc}
 8001ae8:	2000003a 	.word	0x2000003a
 8001aec:	20000724 	.word	0x20000724
 8001af0:	2000071c 	.word	0x2000071c
 8001af4:	00000000 	.word	0x00000000

08001af8 <setSignalRateLimit>:
 8001af8:	b538      	push	{r3, r4, r5, lr}
 8001afa:	2100      	movs	r1, #0
 8001afc:	4605      	mov	r5, r0
 8001afe:	f7ff fabf 	bl	8001080 <__aeabi_fcmplt>
 8001b02:	4604      	mov	r4, r0
 8001b04:	b9a8      	cbnz	r0, 8001b32 <setSignalRateLimit+0x3a>
 8001b06:	4628      	mov	r0, r5
 8001b08:	f7fe fc8e 	bl	8000428 <__aeabi_f2d>
 8001b0c:	a30c      	add	r3, pc, #48	@ (adr r3, 8001b40 <setSignalRateLimit+0x48>)
 8001b0e:	e9d3 2300 	ldrd	r2, r3, [r3]
 8001b12:	f7fe ff71 	bl	80009f8 <__aeabi_dcmpgt>
 8001b16:	b970      	cbnz	r0, 8001b36 <setSignalRateLimit+0x3e>
 8001b18:	f04f 4186 	mov.w	r1, #1124073472	@ 0x43000000
 8001b1c:	4628      	mov	r0, r5
 8001b1e:	f7ff f911 	bl	8000d44 <__aeabi_fmul>
 8001b22:	f7ff fafb 	bl	800111c <__aeabi_f2uiz>
 8001b26:	b281      	uxth	r1, r0
 8001b28:	2044      	movs	r0, #68	@ 0x44
 8001b2a:	f7ff ff5b 	bl	80019e4 <writeReg16Bit>
 8001b2e:	2001      	movs	r0, #1
 8001b30:	bd38      	pop	{r3, r4, r5, pc}
 8001b32:	2000      	movs	r0, #0
 8001b34:	e7fc      	b.n	8001b30 <setSignalRateLimit+0x38>
 8001b36:	4620      	mov	r0, r4
 8001b38:	e7fa      	b.n	8001b30 <setSignalRateLimit+0x38>
 8001b3a:	bf00      	nop
 8001b3c:	f3af 8000 	nop.w
 8001b40:	0a3d70a4 	.word	0x0a3d70a4
 8001b44:	407fffd7 	.word	0x407fffd7

08001b48 <getVcselPulsePeriod>:
 8001b48:	b508      	push	{r3, lr}
 8001b4a:	b930      	cbnz	r0, 8001b5a <getVcselPulsePeriod+0x12>
 8001b4c:	2050      	movs	r0, #80	@ 0x50
 8001b4e:	f7ff ff65 	bl	8001a1c <readReg>
 8001b52:	3001      	adds	r0, #1
 8001b54:	0040      	lsls	r0, r0, #1
 8001b56:	b2c0      	uxtb	r0, r0
 8001b58:	bd08      	pop	{r3, pc}
 8001b5a:	2801      	cmp	r0, #1
 8001b5c:	d101      	bne.n	8001b62 <getVcselPulsePeriod+0x1a>
 8001b5e:	2070      	movs	r0, #112	@ 0x70
 8001b60:	e7f5      	b.n	8001b4e <getVcselPulsePeriod+0x6>
 8001b62:	20ff      	movs	r0, #255	@ 0xff
 8001b64:	e7f8      	b.n	8001b58 <getVcselPulsePeriod+0x10>
	...

08001b68 <readRangeContinuousMillimeters>:
 8001b68:	b57f      	push	{r0, r1, r2, r3, r4, r5, r6, lr}
 8001b6a:	4604      	mov	r4, r0
 8001b6c:	f002 f81a 	bl	8003ba4 <HAL_GetTick>
 8001b70:	4d1f      	ldr	r5, [pc, #124]	@ (8001bf0 <readRangeContinuousMillimeters+0x88>)
 8001b72:	4e20      	ldr	r6, [pc, #128]	@ (8001bf4 <readRangeContinuousMillimeters+0x8c>)
 8001b74:	8028      	strh	r0, [r5, #0]
 8001b76:	2013      	movs	r0, #19
 8001b78:	f7ff ff50 	bl	8001a1c <readReg>
 8001b7c:	0743      	lsls	r3, r0, #29
 8001b7e:	d009      	beq.n	8001b94 <readRangeContinuousMillimeters+0x2c>
 8001b80:	b9dc      	cbnz	r4, 8001bba <readRangeContinuousMillimeters+0x52>
 8001b82:	201e      	movs	r0, #30
 8001b84:	f7ff ff66 	bl	8001a54 <readReg16Bit>
 8001b88:	4605      	mov	r5, r0
 8001b8a:	2101      	movs	r1, #1
 8001b8c:	200b      	movs	r0, #11
 8001b8e:	f7ff ff0f 	bl	80019b0 <writeReg>
 8001b92:	e00f      	b.n	8001bb4 <readRangeContinuousMillimeters+0x4c>
 8001b94:	8833      	ldrh	r3, [r6, #0]
 8001b96:	2b00      	cmp	r3, #0
 8001b98:	d0ed      	beq.n	8001b76 <readRangeContinuousMillimeters+0xe>
 8001b9a:	f002 f803 	bl	8003ba4 <HAL_GetTick>
 8001b9e:	882b      	ldrh	r3, [r5, #0]
 8001ba0:	b280      	uxth	r0, r0
 8001ba2:	1ac0      	subs	r0, r0, r3
 8001ba4:	8833      	ldrh	r3, [r6, #0]
 8001ba6:	4298      	cmp	r0, r3
 8001ba8:	dde5      	ble.n	8001b76 <readRangeContinuousMillimeters+0xe>
 8001baa:	2201      	movs	r2, #1
 8001bac:	f64f 75ff 	movw	r5, #65535	@ 0xffff
 8001bb0:	4b11      	ldr	r3, [pc, #68]	@ (8001bf8 <readRangeContinuousMillimeters+0x90>)
 8001bb2:	701a      	strb	r2, [r3, #0]
 8001bb4:	4628      	mov	r0, r5
 8001bb6:	b004      	add	sp, #16
 8001bb8:	bd70      	pop	{r4, r5, r6, pc}
 8001bba:	220c      	movs	r2, #12
 8001bbc:	2014      	movs	r0, #20
 8001bbe:	a901      	add	r1, sp, #4
 8001bc0:	f7ff ff80 	bl	8001ac4 <readMulti>
 8001bc4:	f89d 3004 	ldrb.w	r3, [sp, #4]
 8001bc8:	08db      	lsrs	r3, r3, #3
 8001bca:	7223      	strb	r3, [r4, #8]
 8001bcc:	f8bd 3006 	ldrh.w	r3, [sp, #6]
 8001bd0:	ba5b      	rev16	r3, r3
 8001bd2:	80e3      	strh	r3, [r4, #6]
 8001bd4:	f8bd 300a 	ldrh.w	r3, [sp, #10]
 8001bd8:	ba5b      	rev16	r3, r3
 8001bda:	8063      	strh	r3, [r4, #2]
 8001bdc:	f8bd 300c 	ldrh.w	r3, [sp, #12]
 8001be0:	ba5b      	rev16	r3, r3
 8001be2:	80a3      	strh	r3, [r4, #4]
 8001be4:	f8bd 300e 	ldrh.w	r3, [sp, #14]
 8001be8:	ba5b      	rev16	r3, r3
 8001bea:	b29d      	uxth	r5, r3
 8001bec:	8023      	strh	r3, [r4, #0]
 8001bee:	e7cc      	b.n	8001b8a <readRangeContinuousMillimeters+0x22>
 8001bf0:	2000077e 	.word	0x2000077e
 8001bf4:	20000038 	.word	0x20000038
 8001bf8:	20000780 	.word	0x20000780

08001bfc <readRangeSingleMillimeters>:
 8001bfc:	b570      	push	{r4, r5, r6, lr}
 8001bfe:	2101      	movs	r1, #1
 8001c00:	4604      	mov	r4, r0
 8001c02:	2080      	movs	r0, #128	@ 0x80
 8001c04:	f7ff fed4 	bl	80019b0 <writeReg>
 8001c08:	2101      	movs	r1, #1
 8001c0a:	20ff      	movs	r0, #255	@ 0xff
 8001c0c:	f7ff fed0 	bl	80019b0 <writeReg>
 8001c10:	2100      	movs	r1, #0
 8001c12:	4608      	mov	r0, r1
 8001c14:	f7ff fecc 	bl	80019b0 <writeReg>
 8001c18:	4b1a      	ldr	r3, [pc, #104]	@ (8001c84 <readRangeSingleMillimeters+0x88>)
 8001c1a:	2091      	movs	r0, #145	@ 0x91
 8001c1c:	7819      	ldrb	r1, [r3, #0]
 8001c1e:	f7ff fec7 	bl	80019b0 <writeReg>
 8001c22:	2101      	movs	r1, #1
 8001c24:	2000      	movs	r0, #0
 8001c26:	f7ff fec3 	bl	80019b0 <writeReg>
 8001c2a:	2100      	movs	r1, #0
 8001c2c:	20ff      	movs	r0, #255	@ 0xff
 8001c2e:	f7ff febf 	bl	80019b0 <writeReg>
 8001c32:	2100      	movs	r1, #0
 8001c34:	2080      	movs	r0, #128	@ 0x80
 8001c36:	f7ff febb 	bl	80019b0 <writeReg>
 8001c3a:	2101      	movs	r1, #1
 8001c3c:	2000      	movs	r0, #0
 8001c3e:	f7ff feb7 	bl	80019b0 <writeReg>
 8001c42:	f001 ffaf 	bl	8003ba4 <HAL_GetTick>
 8001c46:	4d10      	ldr	r5, [pc, #64]	@ (8001c88 <readRangeSingleMillimeters+0x8c>)
 8001c48:	4e10      	ldr	r6, [pc, #64]	@ (8001c8c <readRangeSingleMillimeters+0x90>)
 8001c4a:	8028      	strh	r0, [r5, #0]
 8001c4c:	2000      	movs	r0, #0
 8001c4e:	f7ff fee5 	bl	8001a1c <readReg>
 8001c52:	07c3      	lsls	r3, r0, #31
 8001c54:	d404      	bmi.n	8001c60 <readRangeSingleMillimeters+0x64>
 8001c56:	4620      	mov	r0, r4
 8001c58:	e8bd 4070 	ldmia.w	sp!, {r4, r5, r6, lr}
 8001c5c:	f7ff bf84 	b.w	8001b68 <readRangeContinuousMillimeters>
 8001c60:	8833      	ldrh	r3, [r6, #0]
 8001c62:	2b00      	cmp	r3, #0
 8001c64:	d0f2      	beq.n	8001c4c <readRangeSingleMillimeters+0x50>
 8001c66:	f001 ff9d 	bl	8003ba4 <HAL_GetTick>
 8001c6a:	882a      	ldrh	r2, [r5, #0]
 8001c6c:	b283      	uxth	r3, r0
 8001c6e:	1a9b      	subs	r3, r3, r2
 8001c70:	8832      	ldrh	r2, [r6, #0]
 8001c72:	4293      	cmp	r3, r2
 8001c74:	ddea      	ble.n	8001c4c <readRangeSingleMillimeters+0x50>
 8001c76:	2201      	movs	r2, #1
 8001c78:	4b05      	ldr	r3, [pc, #20]	@ (8001c90 <readRangeSingleMillimeters+0x94>)
 8001c7a:	f64f 70ff 	movw	r0, #65535	@ 0xffff
 8001c7e:	701a      	strb	r2, [r3, #0]
 8001c80:	bd70      	pop	{r4, r5, r6, pc}
 8001c82:	bf00      	nop
 8001c84:	2000077c 	.word	0x2000077c
 8001c88:	2000077e 	.word	0x2000077e
 8001c8c:	20000038 	.word	0x20000038
 8001c90:	20000780 	.word	0x20000780

08001c94 <VL53L0X_OFFSET>:
 8001c94:	b5f8      	push	{r3, r4, r5, r6, r7, lr}
 8001c96:	4606      	mov	r6, r0
 8001c98:	2564      	movs	r5, #100	@ 0x64
 8001c9a:	2400      	movs	r4, #0
 8001c9c:	f64f 77ff 	movw	r7, #65535	@ 0xffff
 8001ca0:	4630      	mov	r0, r6
 8001ca2:	f7ff ffab 	bl	8001bfc <readRangeSingleMillimeters>
 8001ca6:	42b8      	cmp	r0, r7
 8001ca8:	d00c      	beq.n	8001cc4 <VL53L0X_OFFSET+0x30>
 8001caa:	3d01      	subs	r5, #1
 8001cac:	4404      	add	r4, r0
 8001cae:	f015 05ff 	ands.w	r5, r5, #255	@ 0xff
 8001cb2:	b2a4      	uxth	r4, r4
 8001cb4:	d1f4      	bne.n	8001ca0 <VL53L0X_OFFSET+0xc>
 8001cb6:	2364      	movs	r3, #100	@ 0x64
 8001cb8:	fbb4 f0f3 	udiv	r0, r4, r3
 8001cbc:	3896      	subs	r0, #150	@ 0x96
 8001cbe:	f7fe ffed 	bl	8000c9c <__aeabi_i2f>
 8001cc2:	bdf8      	pop	{r3, r4, r5, r6, r7, pc}
 8001cc4:	4800      	ldr	r0, [pc, #0]	@ (8001cc8 <VL53L0X_OFFSET+0x34>)
 8001cc6:	e7fc      	b.n	8001cc2 <VL53L0X_OFFSET+0x2e>
 8001cc8:	bf800000 	.word	0xbf800000

08001ccc <VL53L0X_ReadDistance>:
 8001ccc:	b5f8      	push	{r3, r4, r5, r6, r7, lr}
 8001cce:	4606      	mov	r6, r0
 8001cd0:	2564      	movs	r5, #100	@ 0x64
 8001cd2:	2400      	movs	r4, #0
 8001cd4:	f64f 77ff 	movw	r7, #65535	@ 0xffff
 8001cd8:	4630      	mov	r0, r6
 8001cda:	f7ff ff8f 	bl	8001bfc <readRangeSingleMillimeters>
 8001cde:	42b8      	cmp	r0, r7
 8001ce0:	d00d      	beq.n	8001cfe <VL53L0X_ReadDistance+0x32>
 8001ce2:	3d01      	subs	r5, #1
 8001ce4:	4404      	add	r4, r0
 8001ce6:	f015 05ff 	ands.w	r5, r5, #255	@ 0xff
 8001cea:	b2a4      	uxth	r4, r4
 8001cec:	d1f4      	bne.n	8001cd8 <VL53L0X_ReadDistance+0xc>
 8001cee:	2364      	movs	r3, #100	@ 0x64
 8001cf0:	fbb4 f0f3 	udiv	r0, r4, r3
 8001cf4:	3022      	adds	r0, #34	@ 0x22
 8001cf6:	b280      	uxth	r0, r0
 8001cf8:	f7fe ffd0 	bl	8000c9c <__aeabi_i2f>
 8001cfc:	bdf8      	pop	{r3, r4, r5, r6, r7, pc}
 8001cfe:	4801      	ldr	r0, [pc, #4]	@ (8001d04 <VL53L0X_ReadDistance+0x38>)
 8001d00:	e7fc      	b.n	8001cfc <VL53L0X_ReadDistance+0x30>
 8001d02:	bf00      	nop
 8001d04:	bf800000 	.word	0xbf800000

08001d08 <getSpadInfo>:
 8001d08:	e92d 41f0 	stmdb	sp!, {r4, r5, r6, r7, r8, lr}
 8001d0c:	4606      	mov	r6, r0
 8001d0e:	460d      	mov	r5, r1
 8001d10:	2080      	movs	r0, #128	@ 0x80
 8001d12:	2101      	movs	r1, #1
 8001d14:	f7ff fe4c 	bl	80019b0 <writeReg>
 8001d18:	2101      	movs	r1, #1
 8001d1a:	20ff      	movs	r0, #255	@ 0xff
 8001d1c:	f7ff fe48 	bl	80019b0 <writeReg>
 8001d20:	2100      	movs	r1, #0
 8001d22:	4608      	mov	r0, r1
 8001d24:	f7ff fe44 	bl	80019b0 <writeReg>
 8001d28:	2106      	movs	r1, #6
 8001d2a:	20ff      	movs	r0, #255	@ 0xff
 8001d2c:	f7ff fe40 	bl	80019b0 <writeReg>
 8001d30:	2083      	movs	r0, #131	@ 0x83
 8001d32:	f7ff fe73 	bl	8001a1c <readReg>
 8001d36:	f040 0104 	orr.w	r1, r0, #4
 8001d3a:	b2c9      	uxtb	r1, r1
 8001d3c:	2083      	movs	r0, #131	@ 0x83
 8001d3e:	f7ff fe37 	bl	80019b0 <writeReg>
 8001d42:	2107      	movs	r1, #7
 8001d44:	20ff      	movs	r0, #255	@ 0xff
 8001d46:	f7ff fe33 	bl	80019b0 <writeReg>
 8001d4a:	2101      	movs	r1, #1
 8001d4c:	2081      	movs	r0, #129	@ 0x81
 8001d4e:	f7ff fe2f 	bl	80019b0 <writeReg>
 8001d52:	2101      	movs	r1, #1
 8001d54:	2080      	movs	r0, #128	@ 0x80
 8001d56:	f7ff fe2b 	bl	80019b0 <writeReg>
 8001d5a:	216b      	movs	r1, #107	@ 0x6b
 8001d5c:	2094      	movs	r0, #148	@ 0x94
 8001d5e:	f7ff fe27 	bl	80019b0 <writeReg>
 8001d62:	2100      	movs	r1, #0
 8001d64:	2083      	movs	r0, #131	@ 0x83
 8001d66:	f7ff fe23 	bl	80019b0 <writeReg>
 8001d6a:	f001 ff1b 	bl	8003ba4 <HAL_GetTick>
 8001d6e:	4f24      	ldr	r7, [pc, #144]	@ (8001e00 <getSpadInfo+0xf8>)
 8001d70:	f8df 8090 	ldr.w	r8, [pc, #144]	@ 8001e04 <getSpadInfo+0xfc>
 8001d74:	8038      	strh	r0, [r7, #0]
 8001d76:	2083      	movs	r0, #131	@ 0x83
 8001d78:	f7ff fe50 	bl	8001a1c <readReg>
 8001d7c:	4604      	mov	r4, r0
 8001d7e:	b378      	cbz	r0, 8001de0 <getSpadInfo+0xd8>
 8001d80:	2101      	movs	r1, #1
 8001d82:	2083      	movs	r0, #131	@ 0x83
 8001d84:	f7ff fe14 	bl	80019b0 <writeReg>
 8001d88:	2092      	movs	r0, #146	@ 0x92
 8001d8a:	f7ff fe47 	bl	8001a1c <readReg>
 8001d8e:	f000 037f 	and.w	r3, r0, #127	@ 0x7f
 8001d92:	f3c0 10c0 	ubfx	r0, r0, #7, #1
 8001d96:	7033      	strb	r3, [r6, #0]
 8001d98:	2100      	movs	r1, #0
 8001d9a:	7028      	strb	r0, [r5, #0]
 8001d9c:	2081      	movs	r0, #129	@ 0x81
 8001d9e:	f7ff fe07 	bl	80019b0 <writeReg>
 8001da2:	2106      	movs	r1, #6
 8001da4:	20ff      	movs	r0, #255	@ 0xff
 8001da6:	f7ff fe03 	bl	80019b0 <writeReg>
 8001daa:	2083      	movs	r0, #131	@ 0x83
 8001dac:	f7ff fe36 	bl	8001a1c <readReg>
 8001db0:	f000 01fb 	and.w	r1, r0, #251	@ 0xfb
 8001db4:	2083      	movs	r0, #131	@ 0x83
 8001db6:	f7ff fdfb 	bl	80019b0 <writeReg>
 8001dba:	2101      	movs	r1, #1
 8001dbc:	20ff      	movs	r0, #255	@ 0xff
 8001dbe:	f7ff fdf7 	bl	80019b0 <writeReg>
 8001dc2:	2101      	movs	r1, #1
 8001dc4:	2000      	movs	r0, #0
 8001dc6:	f7ff fdf3 	bl	80019b0 <writeReg>
 8001dca:	2100      	movs	r1, #0
 8001dcc:	20ff      	movs	r0, #255	@ 0xff
 8001dce:	f7ff fdef 	bl	80019b0 <writeReg>
 8001dd2:	2080      	movs	r0, #128	@ 0x80
 8001dd4:	2100      	movs	r1, #0
 8001dd6:	f7ff fdeb 	bl	80019b0 <writeReg>
 8001dda:	2001      	movs	r0, #1
 8001ddc:	e8bd 81f0 	ldmia.w	sp!, {r4, r5, r6, r7, r8, pc}
 8001de0:	f8b8 3000 	ldrh.w	r3, [r8]
 8001de4:	2b00      	cmp	r3, #0
 8001de6:	d0c6      	beq.n	8001d76 <getSpadInfo+0x6e>
 8001de8:	f001 fedc 	bl	8003ba4 <HAL_GetTick>
 8001dec:	883a      	ldrh	r2, [r7, #0]
 8001dee:	b283      	uxth	r3, r0
 8001df0:	1a9b      	subs	r3, r3, r2
 8001df2:	f8b8 2000 	ldrh.w	r2, [r8]
 8001df6:	4293      	cmp	r3, r2
 8001df8:	ddbd      	ble.n	8001d76 <getSpadInfo+0x6e>
 8001dfa:	4620      	mov	r0, r4
 8001dfc:	e7ee      	b.n	8001ddc <getSpadInfo+0xd4>
 8001dfe:	bf00      	nop
 8001e00:	2000077e 	.word	0x2000077e
 8001e04:	20000038 	.word	0x20000038

08001e08 <getSequenceStepEnables>:
 8001e08:	b510      	push	{r4, lr}
 8001e0a:	4604      	mov	r4, r0
 8001e0c:	2001      	movs	r0, #1
 8001e0e:	f7ff fe05 	bl	8001a1c <readReg>
 8001e12:	f3c0 1300 	ubfx	r3, r0, #4, #1
 8001e16:	7023      	strb	r3, [r4, #0]
 8001e18:	f3c0 03c0 	ubfx	r3, r0, #3, #1
 8001e1c:	70a3      	strb	r3, [r4, #2]
 8001e1e:	f3c0 0380 	ubfx	r3, r0, #2, #1
 8001e22:	7063      	strb	r3, [r4, #1]
 8001e24:	f3c0 1380 	ubfx	r3, r0, #6, #1
 8001e28:	70e3      	strb	r3, [r4, #3]
 8001e2a:	09c3      	lsrs	r3, r0, #7
 8001e2c:	7123      	strb	r3, [r4, #4]
 8001e2e:	bd10      	pop	{r4, pc}

08001e30 <getSequenceStepTimeouts>:
 8001e30:	e92d 41f0 	stmdb	sp!, {r4, r5, r6, r7, r8, lr}
 8001e34:	4606      	mov	r6, r0
 8001e36:	2050      	movs	r0, #80	@ 0x50
 8001e38:	460c      	mov	r4, r1
 8001e3a:	f7ff fdef 	bl	8001a1c <readReg>
 8001e3e:	f44f 777a 	mov.w	r7, #1000	@ 0x3e8
 8001e42:	f44f 68fa 	mov.w	r8, #2000	@ 0x7d0
 8001e46:	3001      	adds	r0, #1
 8001e48:	0040      	lsls	r0, r0, #1
 8001e4a:	b2c0      	uxtb	r0, r0
 8001e4c:	8020      	strh	r0, [r4, #0]
 8001e4e:	2046      	movs	r0, #70	@ 0x46
 8001e50:	f7ff fde4 	bl	8001a1c <readReg>
 8001e54:	4d27      	ldr	r5, [pc, #156]	@ (8001ef4 <getSequenceStepTimeouts+0xc4>)
 8001e56:	7823      	ldrb	r3, [r4, #0]
 8001e58:	3001      	adds	r0, #1
 8001e5a:	436b      	muls	r3, r5
 8001e5c:	f503 73fa 	add.w	r3, r3, #500	@ 0x1f4
 8001e60:	fbb3 f2f7 	udiv	r2, r3, r7
 8001e64:	fbb3 f3f8 	udiv	r3, r3, r8
 8001e68:	b280      	uxth	r0, r0
 8001e6a:	fb00 3302 	mla	r3, r0, r2, r3
 8001e6e:	fbb3 f3f7 	udiv	r3, r3, r7
 8001e72:	80a0      	strh	r0, [r4, #4]
 8001e74:	60e3      	str	r3, [r4, #12]
 8001e76:	2051      	movs	r0, #81	@ 0x51
 8001e78:	f7ff fdec 	bl	8001a54 <readReg16Bit>
 8001e7c:	7823      	ldrb	r3, [r4, #0]
 8001e7e:	b2c2      	uxtb	r2, r0
 8001e80:	436b      	muls	r3, r5
 8001e82:	f503 73fa 	add.w	r3, r3, #500	@ 0x1f4
 8001e86:	fbb3 f1f7 	udiv	r1, r3, r7
 8001e8a:	fbb3 f3f8 	udiv	r3, r3, r8
 8001e8e:	f3c0 200f 	ubfx	r0, r0, #8, #16
 8001e92:	4082      	lsls	r2, r0
 8001e94:	3201      	adds	r2, #1
 8001e96:	b292      	uxth	r2, r2
 8001e98:	fb02 3301 	mla	r3, r2, r1, r3
 8001e9c:	fbb3 f3f7 	udiv	r3, r3, r7
 8001ea0:	80e2      	strh	r2, [r4, #6]
 8001ea2:	6123      	str	r3, [r4, #16]
 8001ea4:	2001      	movs	r0, #1
 8001ea6:	f7ff fe4f 	bl	8001b48 <getVcselPulsePeriod>
 8001eaa:	8060      	strh	r0, [r4, #2]
 8001eac:	2071      	movs	r0, #113	@ 0x71
 8001eae:	f7ff fdd1 	bl	8001a54 <readReg16Bit>
 8001eb2:	b2c3      	uxtb	r3, r0
 8001eb4:	f3c0 200f 	ubfx	r0, r0, #8, #16
 8001eb8:	4083      	lsls	r3, r0
 8001eba:	3301      	adds	r3, #1
 8001ebc:	b29b      	uxth	r3, r3
 8001ebe:	8123      	strh	r3, [r4, #8]
 8001ec0:	78f2      	ldrb	r2, [r6, #3]
 8001ec2:	b112      	cbz	r2, 8001eca <getSequenceStepTimeouts+0x9a>
 8001ec4:	88e2      	ldrh	r2, [r4, #6]
 8001ec6:	1a9b      	subs	r3, r3, r2
 8001ec8:	8123      	strh	r3, [r4, #8]
 8001eca:	78a3      	ldrb	r3, [r4, #2]
 8001ecc:	f44f 727a 	mov.w	r2, #1000	@ 0x3e8
 8001ed0:	436b      	muls	r3, r5
 8001ed2:	f44f 65fa 	mov.w	r5, #2000	@ 0x7d0
 8001ed6:	f503 73fa 	add.w	r3, r3, #500	@ 0x1f4
 8001eda:	fbb3 f1f2 	udiv	r1, r3, r2
 8001ede:	fbb3 f3f5 	udiv	r3, r3, r5
 8001ee2:	8920      	ldrh	r0, [r4, #8]
 8001ee4:	fb00 3301 	mla	r3, r0, r1, r3
 8001ee8:	fbb3 f3f2 	udiv	r3, r3, r2
 8001eec:	6163      	str	r3, [r4, #20]
 8001eee:	e8bd 81f0 	ldmia.w	sp!, {r4, r5, r6, r7, r8, pc}
 8001ef2:	bf00      	nop
 8001ef4:	003a2f00 	.word	0x003a2f00

08001ef8 <setMeasurementTimingBudget>:
 8001ef8:	f644 631f 	movw	r3, #19999	@ 0x4e1f
 8001efc:	b530      	push	{r4, r5, lr}
 8001efe:	4298      	cmp	r0, r3
 8001f00:	4604      	mov	r4, r0
 8001f02:	b089      	sub	sp, #36	@ 0x24
 8001f04:	d802      	bhi.n	8001f0c <setMeasurementTimingBudget+0x14>
 8001f06:	2000      	movs	r0, #0
 8001f08:	b009      	add	sp, #36	@ 0x24
 8001f0a:	bd30      	pop	{r4, r5, pc}
 8001f0c:	4668      	mov	r0, sp
 8001f0e:	f7ff ff7b 	bl	8001e08 <getSequenceStepEnables>
 8001f12:	4668      	mov	r0, sp
 8001f14:	a902      	add	r1, sp, #8
 8001f16:	f7ff ff8b 	bl	8001e30 <getSequenceStepTimeouts>
 8001f1a:	f89d 3000 	ldrb.w	r3, [sp]
 8001f1e:	b1b3      	cbz	r3, 8001f4e <setMeasurementTimingBudget+0x56>
 8001f20:	9b05      	ldr	r3, [sp, #20]
 8001f22:	f603 3336 	addw	r3, r3, #2870	@ 0xb36
 8001f26:	f89d 2002 	ldrb.w	r2, [sp, #2]
 8001f2a:	b19a      	cbz	r2, 8001f54 <setMeasurementTimingBudget+0x5c>
 8001f2c:	9a05      	ldr	r2, [sp, #20]
 8001f2e:	f202 22b2 	addw	r2, r2, #690	@ 0x2b2
 8001f32:	eb03 0342 	add.w	r3, r3, r2, lsl #1
 8001f36:	f89d 5003 	ldrb.w	r5, [sp, #3]
 8001f3a:	b11d      	cbz	r5, 8001f44 <setMeasurementTimingBudget+0x4c>
 8001f3c:	9a06      	ldr	r2, [sp, #24]
 8001f3e:	f502 7225 	add.w	r2, r2, #660	@ 0x294
 8001f42:	4413      	add	r3, r2
 8001f44:	f89d 2004 	ldrb.w	r2, [sp, #4]
 8001f48:	b96a      	cbnz	r2, 8001f66 <setMeasurementTimingBudget+0x6e>
 8001f4a:	2001      	movs	r0, #1
 8001f4c:	e7dc      	b.n	8001f08 <setMeasurementTimingBudget+0x10>
 8001f4e:	f640 03e8 	movw	r3, #2280	@ 0x8e8
 8001f52:	e7e8      	b.n	8001f26 <setMeasurementTimingBudget+0x2e>
 8001f54:	f89d 2001 	ldrb.w	r2, [sp, #1]
 8001f58:	2a00      	cmp	r2, #0
 8001f5a:	d0ec      	beq.n	8001f36 <setMeasurementTimingBudget+0x3e>
 8001f5c:	9a05      	ldr	r2, [sp, #20]
 8001f5e:	f502 7225 	add.w	r2, r2, #660	@ 0x294
 8001f62:	4413      	add	r3, r2
 8001f64:	e7e7      	b.n	8001f36 <setMeasurementTimingBudget+0x3e>
 8001f66:	f203 2326 	addw	r3, r3, #550	@ 0x226
 8001f6a:	429c      	cmp	r4, r3
 8001f6c:	d3cb      	bcc.n	8001f06 <setMeasurementTimingBudget+0xe>
 8001f6e:	f89d 100a 	ldrb.w	r1, [sp, #10]
 8001f72:	1ae0      	subs	r0, r4, r3
 8001f74:	f7ff fcfa 	bl	800196c <timeoutMicrosecondsToMclks>
 8001f78:	b280      	uxth	r0, r0
 8001f7a:	b11d      	cbz	r5, 8001f84 <setMeasurementTimingBudget+0x8c>
 8001f7c:	f8bd 300e 	ldrh.w	r3, [sp, #14]
 8001f80:	4418      	add	r0, r3
 8001f82:	b280      	uxth	r0, r0
 8001f84:	f7ff fd06 	bl	8001994 <encodeTimeout>
 8001f88:	4601      	mov	r1, r0
 8001f8a:	2071      	movs	r0, #113	@ 0x71
 8001f8c:	f7ff fd2a 	bl	80019e4 <writeReg16Bit>
 8001f90:	4b01      	ldr	r3, [pc, #4]	@ (8001f98 <setMeasurementTimingBudget+0xa0>)
 8001f92:	601c      	str	r4, [r3, #0]
 8001f94:	e7d9      	b.n	8001f4a <setMeasurementTimingBudget+0x52>
 8001f96:	bf00      	nop
 8001f98:	20000778 	.word	0x20000778

08001f9c <getMeasurementTimingBudget>:
 8001f9c:	b500      	push	{lr}
 8001f9e:	b089      	sub	sp, #36	@ 0x24
 8001fa0:	4668      	mov	r0, sp
 8001fa2:	f7ff ff31 	bl	8001e08 <getSequenceStepEnables>
 8001fa6:	4668      	mov	r0, sp
 8001fa8:	a902      	add	r1, sp, #8
 8001faa:	f7ff ff41 	bl	8001e30 <getSequenceStepTimeouts>
 8001fae:	f89d 3000 	ldrb.w	r3, [sp]
 8001fb2:	b1eb      	cbz	r3, 8001ff0 <getMeasurementTimingBudget+0x54>
 8001fb4:	9805      	ldr	r0, [sp, #20]
 8001fb6:	f600 5084 	addw	r0, r0, #3460	@ 0xd84
 8001fba:	f89d 3002 	ldrb.w	r3, [sp, #2]
 8001fbe:	b1d3      	cbz	r3, 8001ff6 <getMeasurementTimingBudget+0x5a>
 8001fc0:	9b05      	ldr	r3, [sp, #20]
 8001fc2:	f203 23b2 	addw	r3, r3, #690	@ 0x2b2
 8001fc6:	eb00 0043 	add.w	r0, r0, r3, lsl #1
 8001fca:	f89d 3003 	ldrb.w	r3, [sp, #3]
 8001fce:	b11b      	cbz	r3, 8001fd8 <getMeasurementTimingBudget+0x3c>
 8001fd0:	9b06      	ldr	r3, [sp, #24]
 8001fd2:	f503 7325 	add.w	r3, r3, #660	@ 0x294
 8001fd6:	4418      	add	r0, r3
 8001fd8:	f89d 3004 	ldrb.w	r3, [sp, #4]
 8001fdc:	b11b      	cbz	r3, 8001fe6 <getMeasurementTimingBudget+0x4a>
 8001fde:	9b07      	ldr	r3, [sp, #28]
 8001fe0:	f203 2326 	addw	r3, r3, #550	@ 0x226
 8001fe4:	4418      	add	r0, r3
 8001fe6:	4b08      	ldr	r3, [pc, #32]	@ (8002008 <getMeasurementTimingBudget+0x6c>)
 8001fe8:	6018      	str	r0, [r3, #0]
 8001fea:	b009      	add	sp, #36	@ 0x24
 8001fec:	f85d fb04 	ldr.w	pc, [sp], #4
 8001ff0:	f640 3036 	movw	r0, #2870	@ 0xb36
 8001ff4:	e7e1      	b.n	8001fba <getMeasurementTimingBudget+0x1e>
 8001ff6:	f89d 3001 	ldrb.w	r3, [sp, #1]
 8001ffa:	2b00      	cmp	r3, #0
 8001ffc:	d0e5      	beq.n	8001fca <getMeasurementTimingBudget+0x2e>
 8001ffe:	9b05      	ldr	r3, [sp, #20]
 8002000:	f503 7325 	add.w	r3, r3, #660	@ 0x294
 8002004:	4418      	add	r0, r3
 8002006:	e7e0      	b.n	8001fca <getMeasurementTimingBudget+0x2e>
 8002008:	20000778 	.word	0x20000778

0800200c <performSingleRefCalibration>:
 800200c:	b570      	push	{r4, r5, r6, lr}
 800200e:	f040 0101 	orr.w	r1, r0, #1
 8002012:	2000      	movs	r0, #0
 8002014:	f7ff fccc 	bl	80019b0 <writeReg>
 8002018:	f001 fdc4 	bl	8003ba4 <HAL_GetTick>
 800201c:	4d0f      	ldr	r5, [pc, #60]	@ (800205c <performSingleRefCalibration+0x50>)
 800201e:	4e10      	ldr	r6, [pc, #64]	@ (8002060 <performSingleRefCalibration+0x54>)
 8002020:	8028      	strh	r0, [r5, #0]
 8002022:	2013      	movs	r0, #19
 8002024:	f7ff fcfa 	bl	8001a1c <readReg>
 8002028:	f010 0407 	ands.w	r4, r0, #7
 800202c:	d009      	beq.n	8002042 <performSingleRefCalibration+0x36>
 800202e:	2101      	movs	r1, #1
 8002030:	200b      	movs	r0, #11
 8002032:	f7ff fcbd 	bl	80019b0 <writeReg>
 8002036:	2100      	movs	r1, #0
 8002038:	4608      	mov	r0, r1
 800203a:	f7ff fcb9 	bl	80019b0 <writeReg>
 800203e:	2001      	movs	r0, #1
 8002040:	bd70      	pop	{r4, r5, r6, pc}
 8002042:	8833      	ldrh	r3, [r6, #0]
 8002044:	2b00      	cmp	r3, #0
 8002046:	d0ec      	beq.n	8002022 <performSingleRefCalibration+0x16>
 8002048:	f001 fdac 	bl	8003ba4 <HAL_GetTick>
 800204c:	882b      	ldrh	r3, [r5, #0]
 800204e:	b280      	uxth	r0, r0
 8002050:	1ac0      	subs	r0, r0, r3
 8002052:	8833      	ldrh	r3, [r6, #0]
 8002054:	4298      	cmp	r0, r3
 8002056:	dde4      	ble.n	8002022 <performSingleRefCalibration+0x16>
 8002058:	4620      	mov	r0, r4
 800205a:	e7f1      	b.n	8002040 <performSingleRefCalibration+0x34>
 800205c:	2000077e 	.word	0x2000077e
 8002060:	20000038 	.word	0x20000038

08002064 <initVL53L0X>:
 8002064:	b5f0      	push	{r4, r5, r6, r7, lr}
 8002066:	2254      	movs	r2, #84	@ 0x54
 8002068:	4604      	mov	r4, r0
 800206a:	b085      	sub	sp, #20
 800206c:	4827      	ldr	r0, [pc, #156]	@ (800210c <initVL53L0X+0xa8>)
 800206e:	f005 fa52 	bl	8007516 <memcpy>
 8002072:	2200      	movs	r2, #0
 8002074:	4b26      	ldr	r3, [pc, #152]	@ (8002110 <initVL53L0X+0xac>)
 8002076:	701a      	strb	r2, [r3, #0]
 8002078:	705a      	strb	r2, [r3, #1]
 800207a:	709a      	strb	r2, [r3, #2]
 800207c:	70da      	strb	r2, [r3, #3]
 800207e:	b144      	cbz	r4, 8002092 <initVL53L0X+0x2e>
 8002080:	2089      	movs	r0, #137	@ 0x89
 8002082:	f7ff fccb 	bl	8001a1c <readReg>
 8002086:	f040 0101 	orr.w	r1, r0, #1
 800208a:	b2c9      	uxtb	r1, r1
 800208c:	2089      	movs	r0, #137	@ 0x89
 800208e:	f7ff fc8f 	bl	80019b0 <writeReg>
 8002092:	2100      	movs	r1, #0
 8002094:	2088      	movs	r0, #136	@ 0x88
 8002096:	f7ff fc8b 	bl	80019b0 <writeReg>
 800209a:	2101      	movs	r1, #1
 800209c:	2080      	movs	r0, #128	@ 0x80
 800209e:	f7ff fc87 	bl	80019b0 <writeReg>
 80020a2:	2101      	movs	r1, #1
 80020a4:	20ff      	movs	r0, #255	@ 0xff
 80020a6:	f7ff fc83 	bl	80019b0 <writeReg>
 80020aa:	2100      	movs	r1, #0
 80020ac:	4608      	mov	r0, r1
 80020ae:	f7ff fc7f 	bl	80019b0 <writeReg>
 80020b2:	2091      	movs	r0, #145	@ 0x91
 80020b4:	f7ff fcb2 	bl	8001a1c <readReg>
 80020b8:	4b16      	ldr	r3, [pc, #88]	@ (8002114 <initVL53L0X+0xb0>)
 80020ba:	2101      	movs	r1, #1
 80020bc:	7018      	strb	r0, [r3, #0]
 80020be:	2000      	movs	r0, #0
 80020c0:	f7ff fc76 	bl	80019b0 <writeReg>
 80020c4:	2100      	movs	r1, #0
 80020c6:	20ff      	movs	r0, #255	@ 0xff
 80020c8:	f7ff fc72 	bl	80019b0 <writeReg>
 80020cc:	2100      	movs	r1, #0
 80020ce:	2080      	movs	r0, #128	@ 0x80
 80020d0:	f7ff fc6e 	bl	80019b0 <writeReg>
 80020d4:	2060      	movs	r0, #96	@ 0x60
 80020d6:	f7ff fca1 	bl	8001a1c <readReg>
 80020da:	f040 0112 	orr.w	r1, r0, #18
 80020de:	b2c9      	uxtb	r1, r1
 80020e0:	2060      	movs	r0, #96	@ 0x60
 80020e2:	f7ff fc65 	bl	80019b0 <writeReg>
 80020e6:	f04f 507a 	mov.w	r0, #1048576000	@ 0x3e800000
 80020ea:	f7ff fd05 	bl	8001af8 <setSignalRateLimit>
 80020ee:	21ff      	movs	r1, #255	@ 0xff
 80020f0:	2001      	movs	r0, #1
 80020f2:	f7ff fc5d 	bl	80019b0 <writeReg>
 80020f6:	f10d 0107 	add.w	r1, sp, #7
 80020fa:	f10d 0006 	add.w	r0, sp, #6
 80020fe:	f7ff fe03 	bl	8001d08 <getSpadInfo>
 8002102:	b948      	cbnz	r0, 8002118 <initVL53L0X+0xb4>
 8002104:	2400      	movs	r4, #0
 8002106:	4620      	mov	r0, r4
 8002108:	b005      	add	sp, #20
 800210a:	bdf0      	pop	{r4, r5, r6, r7, pc}
 800210c:	20000724 	.word	0x20000724
 8002110:	2000071d 	.word	0x2000071d
 8002114:	2000077c 	.word	0x2000077c
 8002118:	2400      	movs	r4, #0
 800211a:	2206      	movs	r2, #6
 800211c:	20b0      	movs	r0, #176	@ 0xb0
 800211e:	a902      	add	r1, sp, #8
 8002120:	f7ff fcd0 	bl	8001ac4 <readMulti>
 8002124:	2101      	movs	r1, #1
 8002126:	20ff      	movs	r0, #255	@ 0xff
 8002128:	f7ff fc42 	bl	80019b0 <writeReg>
 800212c:	2100      	movs	r1, #0
 800212e:	204f      	movs	r0, #79	@ 0x4f
 8002130:	f7ff fc3e 	bl	80019b0 <writeReg>
 8002134:	212c      	movs	r1, #44	@ 0x2c
 8002136:	204e      	movs	r0, #78	@ 0x4e
 8002138:	f7ff fc3a 	bl	80019b0 <writeReg>
 800213c:	2100      	movs	r1, #0
 800213e:	20ff      	movs	r0, #255	@ 0xff
 8002140:	f7ff fc36 	bl	80019b0 <writeReg>
 8002144:	21b4      	movs	r1, #180	@ 0xb4
 8002146:	20b6      	movs	r0, #182	@ 0xb6
 8002148:	f7ff fc32 	bl	80019b0 <writeReg>
 800214c:	f89d 3007 	ldrb.w	r3, [sp, #7]
 8002150:	4622      	mov	r2, r4
 8002152:	2b00      	cmp	r3, #0
 8002154:	bf0c      	ite	eq
 8002156:	2700      	moveq	r7, #0
 8002158:	270c      	movne	r7, #12
 800215a:	f04f 0c01 	mov.w	ip, #1
 800215e:	f89d 6006 	ldrb.w	r6, [sp, #6]
 8002162:	f3c4 00c4 	ubfx	r0, r4, #3, #5
 8002166:	f100 0310 	add.w	r3, r0, #16
 800216a:	b2e5      	uxtb	r5, r4
 800216c:	eb0d 0003 	add.w	r0, sp, r3
 8002170:	42bd      	cmp	r5, r7
 8002172:	f810 3c08 	ldrb.w	r3, [r0, #-8]
 8002176:	f004 0107 	and.w	r1, r4, #7
 800217a:	d302      	bcc.n	8002182 <initVL53L0X+0x11e>
 800217c:	4296      	cmp	r6, r2
 800217e:	f040 8183 	bne.w	8002488 <initVL53L0X+0x424>
 8002182:	fa0c f101 	lsl.w	r1, ip, r1
 8002186:	ea23 0301 	bic.w	r3, r3, r1
 800218a:	f800 3c08 	strb.w	r3, [r0, #-8]
 800218e:	3401      	adds	r4, #1
 8002190:	2c30      	cmp	r4, #48	@ 0x30
 8002192:	d1e6      	bne.n	8002162 <initVL53L0X+0xfe>
 8002194:	2206      	movs	r2, #6
 8002196:	20b0      	movs	r0, #176	@ 0xb0
 8002198:	a902      	add	r1, sp, #8
 800219a:	f7ff fc77 	bl	8001a8c <writeMulti>
 800219e:	2101      	movs	r1, #1
 80021a0:	20ff      	movs	r0, #255	@ 0xff
 80021a2:	f7ff fc05 	bl	80019b0 <writeReg>
 80021a6:	2100      	movs	r1, #0
 80021a8:	4608      	mov	r0, r1
 80021aa:	f7ff fc01 	bl	80019b0 <writeReg>
 80021ae:	2100      	movs	r1, #0
 80021b0:	20ff      	movs	r0, #255	@ 0xff
 80021b2:	f7ff fbfd 	bl	80019b0 <writeReg>
 80021b6:	2100      	movs	r1, #0
 80021b8:	2009      	movs	r0, #9
 80021ba:	f7ff fbf9 	bl	80019b0 <writeReg>
 80021be:	2100      	movs	r1, #0
 80021c0:	2010      	movs	r0, #16
 80021c2:	f7ff fbf5 	bl	80019b0 <writeReg>
 80021c6:	2100      	movs	r1, #0
 80021c8:	2011      	movs	r0, #17
 80021ca:	f7ff fbf1 	bl	80019b0 <writeReg>
 80021ce:	2101      	movs	r1, #1
 80021d0:	2024      	movs	r0, #36	@ 0x24
 80021d2:	f7ff fbed 	bl	80019b0 <writeReg>
 80021d6:	21ff      	movs	r1, #255	@ 0xff
 80021d8:	2025      	movs	r0, #37	@ 0x25
 80021da:	f7ff fbe9 	bl	80019b0 <writeReg>
 80021de:	2100      	movs	r1, #0
 80021e0:	2075      	movs	r0, #117	@ 0x75
 80021e2:	f7ff fbe5 	bl	80019b0 <writeReg>
 80021e6:	2101      	movs	r1, #1
 80021e8:	20ff      	movs	r0, #255	@ 0xff
 80021ea:	f7ff fbe1 	bl	80019b0 <writeReg>
 80021ee:	212c      	movs	r1, #44	@ 0x2c
 80021f0:	204e      	movs	r0, #78	@ 0x4e
 80021f2:	f7ff fbdd 	bl	80019b0 <writeReg>
 80021f6:	2100      	movs	r1, #0
 80021f8:	2048      	movs	r0, #72	@ 0x48
 80021fa:	f7ff fbd9 	bl	80019b0 <writeReg>
 80021fe:	4620      	mov	r0, r4
 8002200:	2120      	movs	r1, #32
 8002202:	f7ff fbd5 	bl	80019b0 <writeReg>
 8002206:	2100      	movs	r1, #0
 8002208:	20ff      	movs	r0, #255	@ 0xff
 800220a:	f7ff fbd1 	bl	80019b0 <writeReg>
 800220e:	4620      	mov	r0, r4
 8002210:	2109      	movs	r1, #9
 8002212:	f7ff fbcd 	bl	80019b0 <writeReg>
 8002216:	2100      	movs	r1, #0
 8002218:	2054      	movs	r0, #84	@ 0x54
 800221a:	f7ff fbc9 	bl	80019b0 <writeReg>
 800221e:	2104      	movs	r1, #4
 8002220:	2031      	movs	r0, #49	@ 0x31
 8002222:	f7ff fbc5 	bl	80019b0 <writeReg>
 8002226:	2103      	movs	r1, #3
 8002228:	2032      	movs	r0, #50	@ 0x32
 800222a:	f7ff fbc1 	bl	80019b0 <writeReg>
 800222e:	2183      	movs	r1, #131	@ 0x83
 8002230:	2040      	movs	r0, #64	@ 0x40
 8002232:	f7ff fbbd 	bl	80019b0 <writeReg>
 8002236:	2125      	movs	r1, #37	@ 0x25
 8002238:	2046      	movs	r0, #70	@ 0x46
 800223a:	f7ff fbb9 	bl	80019b0 <writeReg>
 800223e:	2100      	movs	r1, #0
 8002240:	2060      	movs	r0, #96	@ 0x60
 8002242:	f7ff fbb5 	bl	80019b0 <writeReg>
 8002246:	2100      	movs	r1, #0
 8002248:	2027      	movs	r0, #39	@ 0x27
 800224a:	f7ff fbb1 	bl	80019b0 <writeReg>
 800224e:	2106      	movs	r1, #6
 8002250:	2050      	movs	r0, #80	@ 0x50
 8002252:	f7ff fbad 	bl	80019b0 <writeReg>
 8002256:	2100      	movs	r1, #0
 8002258:	2051      	movs	r0, #81	@ 0x51
 800225a:	f7ff fba9 	bl	80019b0 <writeReg>
 800225e:	2196      	movs	r1, #150	@ 0x96
 8002260:	2052      	movs	r0, #82	@ 0x52
 8002262:	f7ff fba5 	bl	80019b0 <writeReg>
 8002266:	2108      	movs	r1, #8
 8002268:	2056      	movs	r0, #86	@ 0x56
 800226a:	f7ff fba1 	bl	80019b0 <writeReg>
 800226e:	4621      	mov	r1, r4
 8002270:	2057      	movs	r0, #87	@ 0x57
 8002272:	f7ff fb9d 	bl	80019b0 <writeReg>
 8002276:	2100      	movs	r1, #0
 8002278:	2061      	movs	r0, #97	@ 0x61
 800227a:	f7ff fb99 	bl	80019b0 <writeReg>
 800227e:	2100      	movs	r1, #0
 8002280:	2062      	movs	r0, #98	@ 0x62
 8002282:	f7ff fb95 	bl	80019b0 <writeReg>
 8002286:	2100      	movs	r1, #0
 8002288:	2064      	movs	r0, #100	@ 0x64
 800228a:	f7ff fb91 	bl	80019b0 <writeReg>
 800228e:	2100      	movs	r1, #0
 8002290:	2065      	movs	r0, #101	@ 0x65
 8002292:	f7ff fb8d 	bl	80019b0 <writeReg>
 8002296:	21a0      	movs	r1, #160	@ 0xa0
 8002298:	2066      	movs	r0, #102	@ 0x66
 800229a:	f7ff fb89 	bl	80019b0 <writeReg>
 800229e:	2101      	movs	r1, #1
 80022a0:	20ff      	movs	r0, #255	@ 0xff
 80022a2:	f7ff fb85 	bl	80019b0 <writeReg>
 80022a6:	2132      	movs	r1, #50	@ 0x32
 80022a8:	2022      	movs	r0, #34	@ 0x22
 80022aa:	f7ff fb81 	bl	80019b0 <writeReg>
 80022ae:	2114      	movs	r1, #20
 80022b0:	2047      	movs	r0, #71	@ 0x47
 80022b2:	f7ff fb7d 	bl	80019b0 <writeReg>
 80022b6:	21ff      	movs	r1, #255	@ 0xff
 80022b8:	2049      	movs	r0, #73	@ 0x49
 80022ba:	f7ff fb79 	bl	80019b0 <writeReg>
 80022be:	2100      	movs	r1, #0
 80022c0:	204a      	movs	r0, #74	@ 0x4a
 80022c2:	f7ff fb75 	bl	80019b0 <writeReg>
 80022c6:	2100      	movs	r1, #0
 80022c8:	20ff      	movs	r0, #255	@ 0xff
 80022ca:	f7ff fb71 	bl	80019b0 <writeReg>
 80022ce:	210a      	movs	r1, #10
 80022d0:	207a      	movs	r0, #122	@ 0x7a
 80022d2:	f7ff fb6d 	bl	80019b0 <writeReg>
 80022d6:	2100      	movs	r1, #0
 80022d8:	207b      	movs	r0, #123	@ 0x7b
 80022da:	f7ff fb69 	bl	80019b0 <writeReg>
 80022de:	2121      	movs	r1, #33	@ 0x21
 80022e0:	2078      	movs	r0, #120	@ 0x78
 80022e2:	f7ff fb65 	bl	80019b0 <writeReg>
 80022e6:	2101      	movs	r1, #1
 80022e8:	20ff      	movs	r0, #255	@ 0xff
 80022ea:	f7ff fb61 	bl	80019b0 <writeReg>
 80022ee:	2134      	movs	r1, #52	@ 0x34
 80022f0:	2023      	movs	r0, #35	@ 0x23
 80022f2:	f7ff fb5d 	bl	80019b0 <writeReg>
 80022f6:	2100      	movs	r1, #0
 80022f8:	2042      	movs	r0, #66	@ 0x42
 80022fa:	f7ff fb59 	bl	80019b0 <writeReg>
 80022fe:	21ff      	movs	r1, #255	@ 0xff
 8002300:	2044      	movs	r0, #68	@ 0x44
 8002302:	f7ff fb55 	bl	80019b0 <writeReg>
 8002306:	2126      	movs	r1, #38	@ 0x26
 8002308:	2045      	movs	r0, #69	@ 0x45
 800230a:	f7ff fb51 	bl	80019b0 <writeReg>
 800230e:	2105      	movs	r1, #5
 8002310:	2046      	movs	r0, #70	@ 0x46
 8002312:	f7ff fb4d 	bl	80019b0 <writeReg>
 8002316:	2140      	movs	r1, #64	@ 0x40
 8002318:	4608      	mov	r0, r1
 800231a:	f7ff fb49 	bl	80019b0 <writeReg>
 800231e:	2106      	movs	r1, #6
 8002320:	200e      	movs	r0, #14
 8002322:	f7ff fb45 	bl	80019b0 <writeReg>
 8002326:	211a      	movs	r1, #26
 8002328:	2020      	movs	r0, #32
 800232a:	f7ff fb41 	bl	80019b0 <writeReg>
 800232e:	2140      	movs	r1, #64	@ 0x40
 8002330:	2043      	movs	r0, #67	@ 0x43
 8002332:	f7ff fb3d 	bl	80019b0 <writeReg>
 8002336:	2100      	movs	r1, #0
 8002338:	20ff      	movs	r0, #255	@ 0xff
 800233a:	f7ff fb39 	bl	80019b0 <writeReg>
 800233e:	2103      	movs	r1, #3
 8002340:	2034      	movs	r0, #52	@ 0x34
 8002342:	f7ff fb35 	bl	80019b0 <writeReg>
 8002346:	2144      	movs	r1, #68	@ 0x44
 8002348:	2035      	movs	r0, #53	@ 0x35
 800234a:	f7ff fb31 	bl	80019b0 <writeReg>
 800234e:	2101      	movs	r1, #1
 8002350:	20ff      	movs	r0, #255	@ 0xff
 8002352:	f7ff fb2d 	bl	80019b0 <writeReg>
 8002356:	2104      	movs	r1, #4
 8002358:	2031      	movs	r0, #49	@ 0x31
 800235a:	f7ff fb29 	bl	80019b0 <writeReg>
 800235e:	2109      	movs	r1, #9
 8002360:	204b      	movs	r0, #75	@ 0x4b
 8002362:	f7ff fb25 	bl	80019b0 <writeReg>
 8002366:	2105      	movs	r1, #5
 8002368:	204c      	movs	r0, #76	@ 0x4c
 800236a:	f7ff fb21 	bl	80019b0 <writeReg>
 800236e:	2104      	movs	r1, #4
 8002370:	204d      	movs	r0, #77	@ 0x4d
 8002372:	f7ff fb1d 	bl	80019b0 <writeReg>
 8002376:	2100      	movs	r1, #0
 8002378:	20ff      	movs	r0, #255	@ 0xff
 800237a:	f7ff fb19 	bl	80019b0 <writeReg>
 800237e:	2100      	movs	r1, #0
 8002380:	2044      	movs	r0, #68	@ 0x44
 8002382:	f7ff fb15 	bl	80019b0 <writeReg>
 8002386:	2120      	movs	r1, #32
 8002388:	2045      	movs	r0, #69	@ 0x45
 800238a:	f7ff fb11 	bl	80019b0 <writeReg>
 800238e:	2108      	movs	r1, #8
 8002390:	2047      	movs	r0, #71	@ 0x47
 8002392:	f7ff fb0d 	bl	80019b0 <writeReg>
 8002396:	2128      	movs	r1, #40	@ 0x28
 8002398:	2048      	movs	r0, #72	@ 0x48
 800239a:	f7ff fb09 	bl	80019b0 <writeReg>
 800239e:	2100      	movs	r1, #0
 80023a0:	2067      	movs	r0, #103	@ 0x67
 80023a2:	f7ff fb05 	bl	80019b0 <writeReg>
 80023a6:	2104      	movs	r1, #4
 80023a8:	2070      	movs	r0, #112	@ 0x70
 80023aa:	f7ff fb01 	bl	80019b0 <writeReg>
 80023ae:	2101      	movs	r1, #1
 80023b0:	2071      	movs	r0, #113	@ 0x71
 80023b2:	f7ff fafd 	bl	80019b0 <writeReg>
 80023b6:	21fe      	movs	r1, #254	@ 0xfe
 80023b8:	2072      	movs	r0, #114	@ 0x72
 80023ba:	f7ff faf9 	bl	80019b0 <writeReg>
 80023be:	2100      	movs	r1, #0
 80023c0:	2076      	movs	r0, #118	@ 0x76
 80023c2:	f7ff faf5 	bl	80019b0 <writeReg>
 80023c6:	2100      	movs	r1, #0
 80023c8:	2077      	movs	r0, #119	@ 0x77
 80023ca:	f7ff faf1 	bl	80019b0 <writeReg>
 80023ce:	2101      	movs	r1, #1
 80023d0:	20ff      	movs	r0, #255	@ 0xff
 80023d2:	f7ff faed 	bl	80019b0 <writeReg>
 80023d6:	2101      	movs	r1, #1
 80023d8:	200d      	movs	r0, #13
 80023da:	f7ff fae9 	bl	80019b0 <writeReg>
 80023de:	2100      	movs	r1, #0
 80023e0:	20ff      	movs	r0, #255	@ 0xff
 80023e2:	f7ff fae5 	bl	80019b0 <writeReg>
 80023e6:	2101      	movs	r1, #1
 80023e8:	2080      	movs	r0, #128	@ 0x80
 80023ea:	f7ff fae1 	bl	80019b0 <writeReg>
 80023ee:	21f8      	movs	r1, #248	@ 0xf8
 80023f0:	2001      	movs	r0, #1
 80023f2:	f7ff fadd 	bl	80019b0 <writeReg>
 80023f6:	2101      	movs	r1, #1
 80023f8:	20ff      	movs	r0, #255	@ 0xff
 80023fa:	f7ff fad9 	bl	80019b0 <writeReg>
 80023fe:	2101      	movs	r1, #1
 8002400:	208e      	movs	r0, #142	@ 0x8e
 8002402:	f7ff fad5 	bl	80019b0 <writeReg>
 8002406:	2101      	movs	r1, #1
 8002408:	2000      	movs	r0, #0
 800240a:	f7ff fad1 	bl	80019b0 <writeReg>
 800240e:	2100      	movs	r1, #0
 8002410:	20ff      	movs	r0, #255	@ 0xff
 8002412:	f7ff facd 	bl	80019b0 <writeReg>
 8002416:	2100      	movs	r1, #0
 8002418:	2080      	movs	r0, #128	@ 0x80
 800241a:	f7ff fac9 	bl	80019b0 <writeReg>
 800241e:	2104      	movs	r1, #4
 8002420:	200a      	movs	r0, #10
 8002422:	f7ff fac5 	bl	80019b0 <writeReg>
 8002426:	2084      	movs	r0, #132	@ 0x84
 8002428:	f7ff faf8 	bl	8001a1c <readReg>
 800242c:	f000 01ef 	and.w	r1, r0, #239	@ 0xef
 8002430:	2084      	movs	r0, #132	@ 0x84
 8002432:	f7ff fabd 	bl	80019b0 <writeReg>
 8002436:	2101      	movs	r1, #1
 8002438:	200b      	movs	r0, #11
 800243a:	f7ff fab9 	bl	80019b0 <writeReg>
 800243e:	f7ff fdad 	bl	8001f9c <getMeasurementTimingBudget>
 8002442:	4c14      	ldr	r4, [pc, #80]	@ (8002494 <initVL53L0X+0x430>)
 8002444:	21e8      	movs	r1, #232	@ 0xe8
 8002446:	6020      	str	r0, [r4, #0]
 8002448:	2001      	movs	r0, #1
 800244a:	f7ff fab1 	bl	80019b0 <writeReg>
 800244e:	6820      	ldr	r0, [r4, #0]
 8002450:	f7ff fd52 	bl	8001ef8 <setMeasurementTimingBudget>
 8002454:	2101      	movs	r1, #1
 8002456:	4608      	mov	r0, r1
 8002458:	f7ff faaa 	bl	80019b0 <writeReg>
 800245c:	2040      	movs	r0, #64	@ 0x40
 800245e:	f7ff fdd5 	bl	800200c <performSingleRefCalibration>
 8002462:	2800      	cmp	r0, #0
 8002464:	f43f ae4e 	beq.w	8002104 <initVL53L0X+0xa0>
 8002468:	2102      	movs	r1, #2
 800246a:	2001      	movs	r0, #1
 800246c:	f7ff faa0 	bl	80019b0 <writeReg>
 8002470:	2000      	movs	r0, #0
 8002472:	f7ff fdcb 	bl	800200c <performSingleRefCalibration>
 8002476:	4604      	mov	r4, r0
 8002478:	2800      	cmp	r0, #0
 800247a:	f43f ae43 	beq.w	8002104 <initVL53L0X+0xa0>
 800247e:	21e8      	movs	r1, #232	@ 0xe8
 8002480:	2001      	movs	r0, #1
 8002482:	f7ff fa95 	bl	80019b0 <writeReg>
 8002486:	e63e      	b.n	8002106 <initVL53L0X+0xa2>
 8002488:	410b      	asrs	r3, r1
 800248a:	07db      	lsls	r3, r3, #31
 800248c:	bf44      	itt	mi
 800248e:	3201      	addmi	r2, #1
 8002490:	b2d2      	uxtbmi	r2, r2
 8002492:	e67c      	b.n	800218e <initVL53L0X+0x12a>
 8002494:	20000778 	.word	0x20000778

08002498 <Read_Voltage>:
 8002498:	b510      	push	{r4, lr}
 800249a:	4c13      	ldr	r4, [pc, #76]	@ (80024e8 <Read_Voltage+0x50>)
 800249c:	f44f 717a 	mov.w	r1, #1000	@ 0x3e8
 80024a0:	4620      	mov	r0, r4
 80024a2:	f001 fba5 	bl	8003bf0 <HAL_ADC_PollForConversion>
 80024a6:	4620      	mov	r0, r4
 80024a8:	f001 fc46 	bl	8003d38 <HAL_ADC_GetValue>
 80024ac:	4b0f      	ldr	r3, [pc, #60]	@ (80024ec <Read_Voltage+0x54>)
 80024ae:	b280      	uxth	r0, r0
 80024b0:	8018      	strh	r0, [r3, #0]
 80024b2:	f7fe fbef 	bl	8000c94 <__aeabi_ui2f>
 80024b6:	f7fd ffb7 	bl	8000428 <__aeabi_f2d>
 80024ba:	a307      	add	r3, pc, #28	@ (adr r3, 80024d8 <Read_Voltage+0x40>)
 80024bc:	e9d3 2300 	ldrd	r2, r3, [r3]
 80024c0:	f7fe f80a 	bl	80004d8 <__aeabi_dmul>
 80024c4:	a306      	add	r3, pc, #24	@ (adr r3, 80024e0 <Read_Voltage+0x48>)
 80024c6:	e9d3 2300 	ldrd	r2, r3, [r3]
 80024ca:	f7fd fe4f 	bl	800016c <__adddf3>
 80024ce:	f7fe fadb 	bl	8000a88 <__aeabi_d2f>
 80024d2:	bd10      	pop	{r4, pc}
 80024d4:	f3af 8000 	nop.w
 80024d8:	ce999d69 	.word	0xce999d69
 80024dc:	3f7725d9 	.word	0x3f7725d9
 80024e0:	70a3d70a 	.word	0x70a3d70a
 80024e4:	3fd70a3d 	.word	0x3fd70a3d
 80024e8:	20000904 	.word	0x20000904
 80024ec:	20000782 	.word	0x20000782

080024f0 <compute_last_on_with_threshold>:
 80024f0:	2300      	movs	r3, #0
 80024f2:	f04f 32ff 	mov.w	r2, #4294967295
 80024f6:	b510      	push	{r4, lr}
 80024f8:	5cc4      	ldrb	r4, [r0, r3]
 80024fa:	428c      	cmp	r4, r1
 80024fc:	bf88      	it	hi
 80024fe:	461a      	movhi	r2, r3
 8002500:	3301      	adds	r3, #1
 8002502:	2b14      	cmp	r3, #20
 8002504:	d1f8      	bne.n	80024f8 <compute_last_on_with_threshold+0x8>
 8002506:	1c50      	adds	r0, r2, #1
 8002508:	bd10      	pop	{r4, pc}
	...

0800250c <WATER_InitDefault>:
 800250c:	f647 0277 	movw	r2, #30839	@ 0x7877
 8002510:	4b04      	ldr	r3, [pc, #16]	@ (8002524 <WATER_InitDefault+0x18>)
 8002512:	809a      	strh	r2, [r3, #4]
 8002514:	2200      	movs	r2, #0
 8002516:	719a      	strb	r2, [r3, #6]
 8002518:	2232      	movs	r2, #50	@ 0x32
 800251a:	609a      	str	r2, [r3, #8]
 800251c:	4a02      	ldr	r2, [pc, #8]	@ (8002528 <WATER_InitDefault+0x1c>)
 800251e:	6018      	str	r0, [r3, #0]
 8002520:	6013      	str	r3, [r2, #0]
 8002522:	4770      	bx	lr
 8002524:	20000784 	.word	0x20000784
 8002528:	20000790 	.word	0x20000790

0800252c <WATER_ReadRaw>:
 800252c:	b570      	push	{r4, r5, r6, lr}
 800252e:	460e      	mov	r6, r1
 8002530:	4605      	mov	r5, r0
 8002532:	b088      	sub	sp, #32
 8002534:	2800      	cmp	r0, #0
 8002536:	d032      	beq.n	800259e <WATER_ReadRaw+0x72>
 8002538:	6800      	ldr	r0, [r0, #0]
 800253a:	b380      	cbz	r0, 800259e <WATER_ReadRaw+0x72>
 800253c:	b379      	cbz	r1, 800259e <WATER_ReadRaw+0x72>
 800253e:	2300      	movs	r3, #0
 8002540:	7929      	ldrb	r1, [r5, #4]
 8002542:	e9cd 3303 	strd	r3, r3, [sp, #12]
 8002546:	e9cd 3305 	strd	r3, r3, [sp, #20]
 800254a:	9307      	str	r3, [sp, #28]
 800254c:	68ab      	ldr	r3, [r5, #8]
 800254e:	0049      	lsls	r1, r1, #1
 8002550:	9300      	str	r3, [sp, #0]
 8002552:	aa03      	add	r2, sp, #12
 8002554:	2308      	movs	r3, #8
 8002556:	f002 fafb 	bl	8004b50 <HAL_I2C_Master_Receive>
 800255a:	4604      	mov	r4, r0
 800255c:	6828      	ldr	r0, [r5, #0]
 800255e:	7969      	ldrb	r1, [r5, #5]
 8002560:	68ab      	ldr	r3, [r5, #8]
 8002562:	b1e0      	cbz	r0, 800259e <WATER_ReadRaw+0x72>
 8002564:	9300      	str	r3, [sp, #0]
 8002566:	aa05      	add	r2, sp, #20
 8002568:	230c      	movs	r3, #12
 800256a:	0049      	lsls	r1, r1, #1
 800256c:	f002 faf0 	bl	8004b50 <HAL_I2C_Master_Receive>
 8002570:	ea44 0300 	orr.w	r3, r4, r0
 8002574:	f013 03ff 	ands.w	r3, r3, #255	@ 0xff
 8002578:	d111      	bne.n	800259e <WATER_ReadRaw+0x72>
 800257a:	aa03      	add	r2, sp, #12
 800257c:	ca03      	ldmia	r2!, {r0, r1}
 800257e:	6071      	str	r1, [r6, #4]
 8002580:	4619      	mov	r1, r3
 8002582:	6030      	str	r0, [r6, #0]
 8002584:	4807      	ldr	r0, [pc, #28]	@ (80025a4 <WATER_ReadRaw+0x78>)
 8002586:	3101      	adds	r1, #1
 8002588:	f810 4b01 	ldrb.w	r4, [r0], #1
 800258c:	f812 5b01 	ldrb.w	r5, [r2], #1
 8002590:	b2c9      	uxtb	r1, r1
 8002592:	290c      	cmp	r1, #12
 8002594:	5535      	strb	r5, [r6, r4]
 8002596:	d1f6      	bne.n	8002586 <WATER_ReadRaw+0x5a>
 8002598:	4618      	mov	r0, r3
 800259a:	b008      	add	sp, #32
 800259c:	bd70      	pop	{r4, r5, r6, pc}
 800259e:	2301      	movs	r3, #1
 80025a0:	e7fa      	b.n	8002598 <WATER_ReadRaw+0x6c>
 80025a2:	bf00      	nop
 80025a4:	08009db4 	.word	0x08009db4

080025a8 <WATER_ReadHeightMM_Threshold>:
 80025a8:	b530      	push	{r4, r5, lr}
 80025aa:	4604      	mov	r4, r0
 80025ac:	b087      	sub	sp, #28
 80025ae:	2214      	movs	r2, #20
 80025b0:	460d      	mov	r5, r1
 80025b2:	a801      	add	r0, sp, #4
 80025b4:	2100      	movs	r1, #0
 80025b6:	f004 fee0 	bl	800737a <memset>
 80025ba:	4620      	mov	r0, r4
 80025bc:	a901      	add	r1, sp, #4
 80025be:	f7ff ffb5 	bl	800252c <WATER_ReadRaw>
 80025c2:	4604      	mov	r4, r0
 80025c4:	b950      	cbnz	r0, 80025dc <WATER_ReadHeightMM_Threshold+0x34>
 80025c6:	4629      	mov	r1, r5
 80025c8:	a801      	add	r0, sp, #4
 80025ca:	f7ff ff91 	bl	80024f0 <compute_last_on_with_threshold>
 80025ce:	2800      	cmp	r0, #0
 80025d0:	db07      	blt.n	80025e2 <WATER_ReadHeightMM_Threshold+0x3a>
 80025d2:	3001      	adds	r0, #1
 80025d4:	eb00 0080 	add.w	r0, r0, r0, lsl #2
 80025d8:	b007      	add	sp, #28
 80025da:	bd30      	pop	{r4, r5, pc}
 80025dc:	f04f 30ff 	mov.w	r0, #4294967295
 80025e0:	e7fa      	b.n	80025d8 <WATER_ReadHeightMM_Threshold+0x30>
 80025e2:	4620      	mov	r0, r4
 80025e4:	e7f8      	b.n	80025d8 <WATER_ReadHeightMM_Threshold+0x30>
	...

080025e8 <WATER_ReadLastOn_Threshold>:
 80025e8:	b530      	push	{r4, r5, lr}
 80025ea:	b087      	sub	sp, #28
 80025ec:	460d      	mov	r5, r1
 80025ee:	a901      	add	r1, sp, #4
 80025f0:	f7ff ff9c 	bl	800252c <WATER_ReadRaw>
 80025f4:	4604      	mov	r4, r0
 80025f6:	b9a8      	cbnz	r0, 8002624 <WATER_ReadLastOn_Threshold+0x3c>
 80025f8:	4629      	mov	r1, r5
 80025fa:	a801      	add	r0, sp, #4
 80025fc:	f7ff ff78 	bl	80024f0 <compute_last_on_with_threshold>
 8002600:	2800      	cmp	r0, #0
 8002602:	db12      	blt.n	800262a <WATER_ReadLastOn_Threshold+0x42>
 8002604:	b2c0      	uxtb	r0, r0
 8002606:	2814      	cmp	r0, #20
 8002608:	d80f      	bhi.n	800262a <WATER_ReadLastOn_Threshold+0x42>
 800260a:	4b09      	ldr	r3, [pc, #36]	@ (8002630 <WATER_ReadLastOn_Threshold+0x48>)
 800260c:	2100      	movs	r1, #0
 800260e:	f853 5020 	ldr.w	r5, [r3, r0, lsl #2]
 8002612:	4628      	mov	r0, r5
 8002614:	f7fe fd34 	bl	8001080 <__aeabi_fcmplt>
 8002618:	b938      	cbnz	r0, 800262a <WATER_ReadLastOn_Threshold+0x42>
 800261a:	4628      	mov	r0, r5
 800261c:	f7fe fd58 	bl	80010d0 <__aeabi_f2iz>
 8002620:	b007      	add	sp, #28
 8002622:	bd30      	pop	{r4, r5, pc}
 8002624:	f04f 30ff 	mov.w	r0, #4294967295
 8002628:	e7fa      	b.n	8002620 <WATER_ReadLastOn_Threshold+0x38>
 800262a:	4620      	mov	r0, r4
 800262c:	e7f8      	b.n	8002620 <WATER_ReadLastOn_Threshold+0x38>
 800262e:	bf00      	nop
 8002630:	08009d60 	.word	0x08009d60

08002634 <WATER_ReadHeightMM_Quick>:
 8002634:	4b04      	ldr	r3, [pc, #16]	@ (8002648 <WATER_ReadHeightMM_Quick+0x14>)
 8002636:	4601      	mov	r1, r0
 8002638:	6818      	ldr	r0, [r3, #0]
 800263a:	b108      	cbz	r0, 8002640 <WATER_ReadHeightMM_Quick+0xc>
 800263c:	f7ff bfb4 	b.w	80025a8 <WATER_ReadHeightMM_Threshold>
 8002640:	f04f 30ff 	mov.w	r0, #4294967295
 8002644:	4770      	bx	lr
 8002646:	bf00      	nop
 8002648:	20000790 	.word	0x20000790

0800264c <WATER_ReadLastOn_Quick>:
 800264c:	4b04      	ldr	r3, [pc, #16]	@ (8002660 <WATER_ReadLastOn_Quick+0x14>)
 800264e:	4601      	mov	r1, r0
 8002650:	6818      	ldr	r0, [r3, #0]
 8002652:	b108      	cbz	r0, 8002658 <WATER_ReadLastOn_Quick+0xc>
 8002654:	f7ff bfc8 	b.w	80025e8 <WATER_ReadLastOn_Threshold>
 8002658:	f04f 30ff 	mov.w	r0, #4294967295
 800265c:	4770      	bx	lr
 800265e:	bf00      	nop
 8002660:	20000790 	.word	0x20000790

08002664 <MX_USART1_UART_Init>:
 8002664:	b508      	push	{r3, lr}
 8002666:	f44f 33e1 	mov.w	r3, #115200	@ 0x1c200
 800266a:	4809      	ldr	r0, [pc, #36]	@ (8002690 <MX_USART1_UART_Init+0x2c>)
 800266c:	4a09      	ldr	r2, [pc, #36]	@ (8002694 <MX_USART1_UART_Init+0x30>)
 800266e:	e9c0 2300 	strd	r2, r3, [r0]
 8002672:	2300      	movs	r3, #0
 8002674:	220c      	movs	r2, #12
 8002676:	e9c0 3302 	strd	r3, r3, [r0, #8]
 800267a:	e9c0 2305 	strd	r2, r3, [r0, #20]
 800267e:	6103      	str	r3, [r0, #16]
 8002680:	61c3      	str	r3, [r0, #28]
 8002682:	f003 fe71 	bl	8006368 <HAL_UART_Init>
 8002686:	b108      	cbz	r0, 800268c <MX_USART1_UART_Init+0x28>
 8002688:	b672      	cpsid	i
 800268a:	e7fe      	b.n	800268a <MX_USART1_UART_Init+0x26>
 800268c:	bd08      	pop	{r3, pc}
 800268e:	bf00      	nop
 8002690:	200007dc 	.word	0x200007dc
 8002694:	40013800 	.word	0x40013800

08002698 <MX_USART2_UART_Init>:
 8002698:	b508      	push	{r3, lr}
 800269a:	f44f 33e1 	mov.w	r3, #115200	@ 0x1c200
 800269e:	4809      	ldr	r0, [pc, #36]	@ (80026c4 <MX_USART2_UART_Init+0x2c>)
 80026a0:	4a09      	ldr	r2, [pc, #36]	@ (80026c8 <MX_USART2_UART_Init+0x30>)
 80026a2:	e9c0 2300 	strd	r2, r3, [r0]
 80026a6:	2300      	movs	r3, #0
 80026a8:	220c      	movs	r2, #12
 80026aa:	e9c0 3302 	strd	r3, r3, [r0, #8]
 80026ae:	e9c0 2305 	strd	r2, r3, [r0, #20]
 80026b2:	6103      	str	r3, [r0, #16]
 80026b4:	61c3      	str	r3, [r0, #28]
 80026b6:	f003 fe57 	bl	8006368 <HAL_UART_Init>
 80026ba:	b108      	cbz	r0, 80026c0 <MX_USART2_UART_Init+0x28>
 80026bc:	b672      	cpsid	i
 80026be:	e7fe      	b.n	80026be <MX_USART2_UART_Init+0x26>
 80026c0:	bd08      	pop	{r3, pc}
 80026c2:	bf00      	nop
 80026c4:	20000794 	.word	0x20000794
 80026c8:	40004400 	.word	0x40004400

080026cc <MX_ADC1_Init>:
 80026cc:	b530      	push	{r4, r5, lr}
 80026ce:	4a11      	ldr	r2, [pc, #68]	@ (8002714 <MX_ADC1_Init+0x48>)
 80026d0:	4c11      	ldr	r4, [pc, #68]	@ (8002718 <MX_ADC1_Init+0x4c>)
 80026d2:	b085      	sub	sp, #20
 80026d4:	2300      	movs	r3, #0
 80026d6:	2501      	movs	r5, #1
 80026d8:	6022      	str	r2, [r4, #0]
 80026da:	f44f 2260 	mov.w	r2, #917504	@ 0xe0000
 80026de:	4620      	mov	r0, r4
 80026e0:	e9cd 3301 	strd	r3, r3, [sp, #4]
 80026e4:	9303      	str	r3, [sp, #12]
 80026e6:	60a3      	str	r3, [r4, #8]
 80026e8:	7323      	strb	r3, [r4, #12]
 80026ea:	7523      	strb	r3, [r4, #20]
 80026ec:	61e2      	str	r2, [r4, #28]
 80026ee:	6063      	str	r3, [r4, #4]
 80026f0:	6125      	str	r5, [r4, #16]
 80026f2:	f001 fc67 	bl	8003fc4 <HAL_ADC_Init>
 80026f6:	b108      	cbz	r0, 80026fc <MX_ADC1_Init+0x30>
 80026f8:	b672      	cpsid	i
 80026fa:	e7fe      	b.n	80026fa <MX_ADC1_Init+0x2e>
 80026fc:	e9cd 0501 	strd	r0, r5, [sp, #4]
 8002700:	9003      	str	r0, [sp, #12]
 8002702:	a901      	add	r1, sp, #4
 8002704:	4620      	mov	r0, r4
 8002706:	f001 fb1b 	bl	8003d40 <HAL_ADC_ConfigChannel>
 800270a:	b108      	cbz	r0, 8002710 <MX_ADC1_Init+0x44>
 800270c:	b672      	cpsid	i
 800270e:	e7fe      	b.n	800270e <MX_ADC1_Init+0x42>
 8002710:	b005      	add	sp, #20
 8002712:	bd30      	pop	{r4, r5, pc}
 8002714:	40012400 	.word	0x40012400
 8002718:	20000904 	.word	0x20000904

0800271c <MX_ADC2_Init>:
 800271c:	b530      	push	{r4, r5, lr}
 800271e:	4a11      	ldr	r2, [pc, #68]	@ (8002764 <MX_ADC2_Init+0x48>)
 8002720:	4c11      	ldr	r4, [pc, #68]	@ (8002768 <MX_ADC2_Init+0x4c>)
 8002722:	b085      	sub	sp, #20
 8002724:	2300      	movs	r3, #0
 8002726:	2501      	movs	r5, #1
 8002728:	6022      	str	r2, [r4, #0]
 800272a:	f44f 2260 	mov.w	r2, #917504	@ 0xe0000
 800272e:	4620      	mov	r0, r4
 8002730:	e9cd 3301 	strd	r3, r3, [sp, #4]
 8002734:	9303      	str	r3, [sp, #12]
 8002736:	60a3      	str	r3, [r4, #8]
 8002738:	7323      	strb	r3, [r4, #12]
 800273a:	7523      	strb	r3, [r4, #20]
 800273c:	61e2      	str	r2, [r4, #28]
 800273e:	6063      	str	r3, [r4, #4]
 8002740:	6125      	str	r5, [r4, #16]
 8002742:	f001 fc3f 	bl	8003fc4 <HAL_ADC_Init>
 8002746:	b108      	cbz	r0, 800274c <MX_ADC2_Init+0x30>
 8002748:	b672      	cpsid	i
 800274a:	e7fe      	b.n	800274a <MX_ADC2_Init+0x2e>
 800274c:	9003      	str	r0, [sp, #12]
 800274e:	a901      	add	r1, sp, #4
 8002750:	4620      	mov	r0, r4
 8002752:	e9cd 5501 	strd	r5, r5, [sp, #4]
 8002756:	f001 faf3 	bl	8003d40 <HAL_ADC_ConfigChannel>
 800275a:	b108      	cbz	r0, 8002760 <MX_ADC2_Init+0x44>
 800275c:	b672      	cpsid	i
 800275e:	e7fe      	b.n	800275e <MX_ADC2_Init+0x42>
 8002760:	b005      	add	sp, #20
 8002762:	bd30      	pop	{r4, r5, pc}
 8002764:	40012800 	.word	0x40012800
 8002768:	200008d4 	.word	0x200008d4

0800276c <MX_GPIO_Init>:
 800276c:	e92d 47f0 	stmdb	sp!, {r4, r5, r6, r7, r8, r9, sl, lr}
 8002770:	f04f 0910 	mov.w	r9, #16
 8002774:	b088      	sub	sp, #32
 8002776:	464a      	mov	r2, r9
 8002778:	2100      	movs	r1, #0
 800277a:	eb0d 0009 	add.w	r0, sp, r9
 800277e:	f004 fdfc 	bl	800737a <memset>
 8002782:	4b46      	ldr	r3, [pc, #280]	@ (800289c <MX_GPIO_Init+0x130>)
 8002784:	f8df 8118 	ldr.w	r8, [pc, #280]	@ 80028a0 <MX_GPIO_Init+0x134>
 8002788:	699a      	ldr	r2, [r3, #24]
 800278a:	4640      	mov	r0, r8
 800278c:	ea42 0209 	orr.w	r2, r2, r9
 8002790:	619a      	str	r2, [r3, #24]
 8002792:	699a      	ldr	r2, [r3, #24]
 8002794:	21c0      	movs	r1, #192	@ 0xc0
 8002796:	ea02 0209 	and.w	r2, r2, r9
 800279a:	9200      	str	r2, [sp, #0]
 800279c:	9a00      	ldr	r2, [sp, #0]
 800279e:	699a      	ldr	r2, [r3, #24]
 80027a0:	4d40      	ldr	r5, [pc, #256]	@ (80028a4 <MX_GPIO_Init+0x138>)
 80027a2:	f042 0220 	orr.w	r2, r2, #32
 80027a6:	619a      	str	r2, [r3, #24]
 80027a8:	699a      	ldr	r2, [r3, #24]
 80027aa:	2400      	movs	r4, #0
 80027ac:	f002 0220 	and.w	r2, r2, #32
 80027b0:	9201      	str	r2, [sp, #4]
 80027b2:	9a01      	ldr	r2, [sp, #4]
 80027b4:	699a      	ldr	r2, [r3, #24]
 80027b6:	2602      	movs	r6, #2
 80027b8:	f042 0204 	orr.w	r2, r2, #4
 80027bc:	619a      	str	r2, [r3, #24]
 80027be:	699a      	ldr	r2, [r3, #24]
 80027c0:	2701      	movs	r7, #1
 80027c2:	f002 0204 	and.w	r2, r2, #4
 80027c6:	9202      	str	r2, [sp, #8]
 80027c8:	9a02      	ldr	r2, [sp, #8]
 80027ca:	699a      	ldr	r2, [r3, #24]
 80027cc:	f04f 0a11 	mov.w	sl, #17
 80027d0:	f042 0208 	orr.w	r2, r2, #8
 80027d4:	619a      	str	r2, [r3, #24]
 80027d6:	699b      	ldr	r3, [r3, #24]
 80027d8:	2200      	movs	r2, #0
 80027da:	f003 0308 	and.w	r3, r3, #8
 80027de:	9303      	str	r3, [sp, #12]
 80027e0:	9b03      	ldr	r3, [sp, #12]
 80027e2:	f001 fedf 	bl	80045a4 <HAL_GPIO_WritePin>
 80027e6:	2201      	movs	r2, #1
 80027e8:	4628      	mov	r0, r5
 80027ea:	4611      	mov	r1, r2
 80027ec:	f001 feda 	bl	80045a4 <HAL_GPIO_WritePin>
 80027f0:	2200      	movs	r2, #0
 80027f2:	4628      	mov	r0, r5
 80027f4:	f24d 012a 	movw	r1, #53290	@ 0xd02a
 80027f8:	f001 fed4 	bl	80045a4 <HAL_GPIO_WritePin>
 80027fc:	23c0      	movs	r3, #192	@ 0xc0
 80027fe:	4640      	mov	r0, r8
 8002800:	eb0d 0109 	add.w	r1, sp, r9
 8002804:	e9cd 3704 	strd	r3, r7, [sp, #16]
 8002808:	e9cd 4606 	strd	r4, r6, [sp, #24]
 800280c:	f001 fd82 	bl	8004314 <HAL_GPIO_Init>
 8002810:	4628      	mov	r0, r5
 8002812:	eb0d 0109 	add.w	r1, sp, r9
 8002816:	e9cd a405 	strd	sl, r4, [sp, #20]
 800281a:	9704      	str	r7, [sp, #16]
 800281c:	9607      	str	r6, [sp, #28]
 800281e:	f001 fd79 	bl	8004314 <HAL_GPIO_Init>
 8002822:	4628      	mov	r0, r5
 8002824:	eb0d 0109 	add.w	r1, sp, r9
 8002828:	e9cd 6a04 	strd	r6, sl, [sp, #16]
 800282c:	e9cd 7606 	strd	r7, r6, [sp, #24]
 8002830:	f001 fd70 	bl	8004314 <HAL_GPIO_Init>
 8002834:	f24d 0328 	movw	r3, #53288	@ 0xd028
 8002838:	4628      	mov	r0, r5
 800283a:	eb0d 0109 	add.w	r1, sp, r9
 800283e:	e9cd 3704 	strd	r3, r7, [sp, #16]
 8002842:	e9cd 4606 	strd	r4, r6, [sp, #24]
 8002846:	f001 fd65 	bl	8004314 <HAL_GPIO_Init>
 800284a:	f44f 7280 	mov.w	r2, #256	@ 0x100
 800284e:	4b16      	ldr	r3, [pc, #88]	@ (80028a8 <MX_GPIO_Init+0x13c>)
 8002850:	4640      	mov	r0, r8
 8002852:	eb0d 0109 	add.w	r1, sp, r9
 8002856:	e9cd 2304 	strd	r2, r3, [sp, #16]
 800285a:	9406      	str	r4, [sp, #24]
 800285c:	f001 fd5a 	bl	8004314 <HAL_GPIO_Init>
 8002860:	4628      	mov	r0, r5
 8002862:	eb0d 0109 	add.w	r1, sp, r9
 8002866:	e9cd 9404 	strd	r9, r4, [sp, #16]
 800286a:	9606      	str	r6, [sp, #24]
 800286c:	f001 fd52 	bl	8004314 <HAL_GPIO_Init>
 8002870:	f44f 7340 	mov.w	r3, #768	@ 0x300
 8002874:	4628      	mov	r0, r5
 8002876:	eb0d 0109 	add.w	r1, sp, r9
 800287a:	e9cd 3404 	strd	r3, r4, [sp, #16]
 800287e:	9706      	str	r7, [sp, #24]
 8002880:	f001 fd48 	bl	8004314 <HAL_GPIO_Init>
 8002884:	4622      	mov	r2, r4
 8002886:	4621      	mov	r1, r4
 8002888:	2017      	movs	r0, #23
 800288a:	f001 fc8b 	bl	80041a4 <HAL_NVIC_SetPriority>
 800288e:	2017      	movs	r0, #23
 8002890:	f001 fcb8 	bl	8004204 <HAL_NVIC_EnableIRQ>
 8002894:	b008      	add	sp, #32
 8002896:	e8bd 87f0 	ldmia.w	sp!, {r4, r5, r6, r7, r8, r9, sl, pc}
 800289a:	bf00      	nop
 800289c:	40021000 	.word	0x40021000
 80028a0:	40010800 	.word	0x40010800
 80028a4:	40010c00 	.word	0x40010c00
 80028a8:	10110000 	.word	0x10110000

080028ac <MX_I2C1_Init>:
 80028ac:	b508      	push	{r3, lr}
 80028ae:	480a      	ldr	r0, [pc, #40]	@ (80028d8 <MX_I2C1_Init+0x2c>)
 80028b0:	4a0a      	ldr	r2, [pc, #40]	@ (80028dc <MX_I2C1_Init+0x30>)
 80028b2:	4b0b      	ldr	r3, [pc, #44]	@ (80028e0 <MX_I2C1_Init+0x34>)
 80028b4:	e9c0 2300 	strd	r2, r3, [r0]
 80028b8:	2300      	movs	r3, #0
 80028ba:	f44f 4280 	mov.w	r2, #16384	@ 0x4000
 80028be:	e9c0 3302 	strd	r3, r3, [r0, #8]
 80028c2:	e9c0 2304 	strd	r2, r3, [r0, #16]
 80028c6:	e9c0 3306 	strd	r3, r3, [r0, #24]
 80028ca:	6203      	str	r3, [r0, #32]
 80028cc:	f002 f87e 	bl	80049cc <HAL_I2C_Init>
 80028d0:	b108      	cbz	r0, 80028d6 <MX_I2C1_Init+0x2a>
 80028d2:	b672      	cpsid	i
 80028d4:	e7fe      	b.n	80028d4 <MX_I2C1_Init+0x28>
 80028d6:	bd08      	pop	{r3, pc}
 80028d8:	20000880 	.word	0x20000880
 80028dc:	40005400 	.word	0x40005400
 80028e0:	00061a80 	.word	0x00061a80

080028e4 <LOG>:
 80028e4:	b570      	push	{r4, r5, r6, lr}
 80028e6:	4606      	mov	r6, r0
 80028e8:	460d      	mov	r5, r1
 80028ea:	4c0f      	ldr	r4, [pc, #60]	@ (8002928 <LOG+0x44>)
 80028ec:	f44f 72fa 	mov.w	r2, #500	@ 0x1f4
 80028f0:	2100      	movs	r1, #0
 80028f2:	4620      	mov	r0, r4
 80028f4:	f004 fd41 	bl	800737a <memset>
 80028f8:	4631      	mov	r1, r6
 80028fa:	4620      	mov	r0, r4
 80028fc:	f004 fdf5 	bl	80074ea <strcpy>
 8002900:	4629      	mov	r1, r5
 8002902:	4620      	mov	r0, r4
 8002904:	f004 fd41 	bl	800738a <strcat>
 8002908:	4908      	ldr	r1, [pc, #32]	@ (800292c <LOG+0x48>)
 800290a:	4620      	mov	r0, r4
 800290c:	f004 fd3d 	bl	800738a <strcat>
 8002910:	4620      	mov	r0, r4
 8002912:	f7fd fc1d 	bl	8000150 <strlen>
 8002916:	2332      	movs	r3, #50	@ 0x32
 8002918:	b282      	uxth	r2, r0
 800291a:	4621      	mov	r1, r4
 800291c:	4804      	ldr	r0, [pc, #16]	@ (8002930 <LOG+0x4c>)
 800291e:	f003 fd52 	bl	80063c6 <HAL_UART_Transmit>
 8002922:	2000      	movs	r0, #0
 8002924:	bd70      	pop	{r4, r5, r6, pc}
 8002926:	bf00      	nop
 8002928:	20000a50 	.word	0x20000a50
 800292c:	08009891 	.word	0x08009891
 8002930:	200007dc 	.word	0x200007dc

08002934 <CheckHeader>:
 8002934:	b508      	push	{r3, lr}
 8002936:	4943      	ldr	r1, [pc, #268]	@ (8002a44 <CheckHeader+0x110>)
 8002938:	4843      	ldr	r0, [pc, #268]	@ (8002a48 <CheckHeader+0x114>)
 800293a:	f7ff ffd3 	bl	80028e4 <LOG>
 800293e:	4943      	ldr	r1, [pc, #268]	@ (8002a4c <CheckHeader+0x118>)
 8002940:	4843      	ldr	r0, [pc, #268]	@ (8002a50 <CheckHeader+0x11c>)
 8002942:	f004 fd44 	bl	80073ce <strstr>
 8002946:	b130      	cbz	r0, 8002956 <CheckHeader+0x22>
 8002948:	2200      	movs	r2, #0
 800294a:	4b42      	ldr	r3, [pc, #264]	@ (8002a54 <CheckHeader+0x120>)
 800294c:	701a      	strb	r2, [r3, #0]
 800294e:	2200      	movs	r2, #0
 8002950:	4b41      	ldr	r3, [pc, #260]	@ (8002a58 <CheckHeader+0x124>)
 8002952:	701a      	strb	r2, [r3, #0]
 8002954:	bd08      	pop	{r3, pc}
 8002956:	4941      	ldr	r1, [pc, #260]	@ (8002a5c <CheckHeader+0x128>)
 8002958:	483d      	ldr	r0, [pc, #244]	@ (8002a50 <CheckHeader+0x11c>)
 800295a:	f004 fd38 	bl	80073ce <strstr>
 800295e:	b138      	cbz	r0, 8002970 <CheckHeader+0x3c>
 8002960:	493f      	ldr	r1, [pc, #252]	@ (8002a60 <CheckHeader+0x12c>)
 8002962:	483b      	ldr	r0, [pc, #236]	@ (8002a50 <CheckHeader+0x11c>)
 8002964:	f004 fd33 	bl	80073ce <strstr>
 8002968:	b110      	cbz	r0, 8002970 <CheckHeader+0x3c>
 800296a:	2201      	movs	r2, #1
 800296c:	4b39      	ldr	r3, [pc, #228]	@ (8002a54 <CheckHeader+0x120>)
 800296e:	e7ed      	b.n	800294c <CheckHeader+0x18>
 8002970:	493c      	ldr	r1, [pc, #240]	@ (8002a64 <CheckHeader+0x130>)
 8002972:	4837      	ldr	r0, [pc, #220]	@ (8002a50 <CheckHeader+0x11c>)
 8002974:	f004 fd2b 	bl	80073ce <strstr>
 8002978:	b110      	cbz	r0, 8002980 <CheckHeader+0x4c>
 800297a:	2204      	movs	r2, #4
 800297c:	4b35      	ldr	r3, [pc, #212]	@ (8002a54 <CheckHeader+0x120>)
 800297e:	e7e5      	b.n	800294c <CheckHeader+0x18>
 8002980:	4939      	ldr	r1, [pc, #228]	@ (8002a68 <CheckHeader+0x134>)
 8002982:	4833      	ldr	r0, [pc, #204]	@ (8002a50 <CheckHeader+0x11c>)
 8002984:	f004 fd23 	bl	80073ce <strstr>
 8002988:	b110      	cbz	r0, 8002990 <CheckHeader+0x5c>
 800298a:	2205      	movs	r2, #5
 800298c:	4b31      	ldr	r3, [pc, #196]	@ (8002a54 <CheckHeader+0x120>)
 800298e:	e7dd      	b.n	800294c <CheckHeader+0x18>
 8002990:	4936      	ldr	r1, [pc, #216]	@ (8002a6c <CheckHeader+0x138>)
 8002992:	482f      	ldr	r0, [pc, #188]	@ (8002a50 <CheckHeader+0x11c>)
 8002994:	f004 fd1b 	bl	80073ce <strstr>
 8002998:	b110      	cbz	r0, 80029a0 <CheckHeader+0x6c>
 800299a:	2203      	movs	r2, #3
 800299c:	4b2d      	ldr	r3, [pc, #180]	@ (8002a54 <CheckHeader+0x120>)
 800299e:	e7d5      	b.n	800294c <CheckHeader+0x18>
 80029a0:	4933      	ldr	r1, [pc, #204]	@ (8002a70 <CheckHeader+0x13c>)
 80029a2:	482b      	ldr	r0, [pc, #172]	@ (8002a50 <CheckHeader+0x11c>)
 80029a4:	f004 fd13 	bl	80073ce <strstr>
 80029a8:	b110      	cbz	r0, 80029b0 <CheckHeader+0x7c>
 80029aa:	2202      	movs	r2, #2
 80029ac:	4b29      	ldr	r3, [pc, #164]	@ (8002a54 <CheckHeader+0x120>)
 80029ae:	e7cd      	b.n	800294c <CheckHeader+0x18>
 80029b0:	4930      	ldr	r1, [pc, #192]	@ (8002a74 <CheckHeader+0x140>)
 80029b2:	4827      	ldr	r0, [pc, #156]	@ (8002a50 <CheckHeader+0x11c>)
 80029b4:	f004 fd0b 	bl	80073ce <strstr>
 80029b8:	b110      	cbz	r0, 80029c0 <CheckHeader+0x8c>
 80029ba:	2206      	movs	r2, #6
 80029bc:	4b25      	ldr	r3, [pc, #148]	@ (8002a54 <CheckHeader+0x120>)
 80029be:	e7c5      	b.n	800294c <CheckHeader+0x18>
 80029c0:	492d      	ldr	r1, [pc, #180]	@ (8002a78 <CheckHeader+0x144>)
 80029c2:	4823      	ldr	r0, [pc, #140]	@ (8002a50 <CheckHeader+0x11c>)
 80029c4:	f004 fd03 	bl	80073ce <strstr>
 80029c8:	b110      	cbz	r0, 80029d0 <CheckHeader+0x9c>
 80029ca:	2207      	movs	r2, #7
 80029cc:	4b21      	ldr	r3, [pc, #132]	@ (8002a54 <CheckHeader+0x120>)
 80029ce:	e7bd      	b.n	800294c <CheckHeader+0x18>
 80029d0:	492a      	ldr	r1, [pc, #168]	@ (8002a7c <CheckHeader+0x148>)
 80029d2:	481f      	ldr	r0, [pc, #124]	@ (8002a50 <CheckHeader+0x11c>)
 80029d4:	f004 fcfb 	bl	80073ce <strstr>
 80029d8:	b110      	cbz	r0, 80029e0 <CheckHeader+0xac>
 80029da:	220b      	movs	r2, #11
 80029dc:	4b1d      	ldr	r3, [pc, #116]	@ (8002a54 <CheckHeader+0x120>)
 80029de:	e7b5      	b.n	800294c <CheckHeader+0x18>
 80029e0:	4927      	ldr	r1, [pc, #156]	@ (8002a80 <CheckHeader+0x14c>)
 80029e2:	481b      	ldr	r0, [pc, #108]	@ (8002a50 <CheckHeader+0x11c>)
 80029e4:	f004 fcf3 	bl	80073ce <strstr>
 80029e8:	b110      	cbz	r0, 80029f0 <CheckHeader+0xbc>
 80029ea:	220a      	movs	r2, #10
 80029ec:	4b19      	ldr	r3, [pc, #100]	@ (8002a54 <CheckHeader+0x120>)
 80029ee:	e7ad      	b.n	800294c <CheckHeader+0x18>
 80029f0:	4924      	ldr	r1, [pc, #144]	@ (8002a84 <CheckHeader+0x150>)
 80029f2:	4817      	ldr	r0, [pc, #92]	@ (8002a50 <CheckHeader+0x11c>)
 80029f4:	f004 fceb 	bl	80073ce <strstr>
 80029f8:	b110      	cbz	r0, 8002a00 <CheckHeader+0xcc>
 80029fa:	220c      	movs	r2, #12
 80029fc:	4b15      	ldr	r3, [pc, #84]	@ (8002a54 <CheckHeader+0x120>)
 80029fe:	e7a5      	b.n	800294c <CheckHeader+0x18>
 8002a00:	4921      	ldr	r1, [pc, #132]	@ (8002a88 <CheckHeader+0x154>)
 8002a02:	4813      	ldr	r0, [pc, #76]	@ (8002a50 <CheckHeader+0x11c>)
 8002a04:	f004 fce3 	bl	80073ce <strstr>
 8002a08:	b110      	cbz	r0, 8002a10 <CheckHeader+0xdc>
 8002a0a:	220d      	movs	r2, #13
 8002a0c:	4b11      	ldr	r3, [pc, #68]	@ (8002a54 <CheckHeader+0x120>)
 8002a0e:	e79d      	b.n	800294c <CheckHeader+0x18>
 8002a10:	491e      	ldr	r1, [pc, #120]	@ (8002a8c <CheckHeader+0x158>)
 8002a12:	480f      	ldr	r0, [pc, #60]	@ (8002a50 <CheckHeader+0x11c>)
 8002a14:	f004 fcdb 	bl	80073ce <strstr>
 8002a18:	b110      	cbz	r0, 8002a20 <CheckHeader+0xec>
 8002a1a:	220e      	movs	r2, #14
 8002a1c:	4b0d      	ldr	r3, [pc, #52]	@ (8002a54 <CheckHeader+0x120>)
 8002a1e:	e795      	b.n	800294c <CheckHeader+0x18>
 8002a20:	491b      	ldr	r1, [pc, #108]	@ (8002a90 <CheckHeader+0x15c>)
 8002a22:	480b      	ldr	r0, [pc, #44]	@ (8002a50 <CheckHeader+0x11c>)
 8002a24:	f004 fcd3 	bl	80073ce <strstr>
 8002a28:	b110      	cbz	r0, 8002a30 <CheckHeader+0xfc>
 8002a2a:	220f      	movs	r2, #15
 8002a2c:	4b09      	ldr	r3, [pc, #36]	@ (8002a54 <CheckHeader+0x120>)
 8002a2e:	e78d      	b.n	800294c <CheckHeader+0x18>
 8002a30:	4918      	ldr	r1, [pc, #96]	@ (8002a94 <CheckHeader+0x160>)
 8002a32:	4807      	ldr	r0, [pc, #28]	@ (8002a50 <CheckHeader+0x11c>)
 8002a34:	f004 fccb 	bl	80073ce <strstr>
 8002a38:	2800      	cmp	r0, #0
 8002a3a:	d088      	beq.n	800294e <CheckHeader+0x1a>
 8002a3c:	2210      	movs	r2, #16
 8002a3e:	4b05      	ldr	r3, [pc, #20]	@ (8002a54 <CheckHeader+0x120>)
 8002a40:	e784      	b.n	800294c <CheckHeader+0x18>
 8002a42:	bf00      	nop
 8002a44:	08009893 	.word	0x08009893
 8002a48:	08009897 	.word	0x08009897
 8002a4c:	0800989d 	.word	0x0800989d
 8002a50:	20000c44 	.word	0x20000c44
 8002a54:	20000934 	.word	0x20000934
 8002a58:	20000a4f 	.word	0x20000a4f
 8002a5c:	080098ac 	.word	0x080098ac
 8002a60:	080098b4 	.word	0x080098b4
 8002a64:	080098bb 	.word	0x080098bb
 8002a68:	080098c6 	.word	0x080098c6
 8002a6c:	080098d2 	.word	0x080098d2
 8002a70:	080098df 	.word	0x080098df
 8002a74:	080098ed 	.word	0x080098ed
 8002a78:	080098f8 	.word	0x080098f8
 8002a7c:	08009903 	.word	0x08009903
 8002a80:	0800990f 	.word	0x0800990f
 8002a84:	0800991a 	.word	0x0800991a
 8002a88:	08009923 	.word	0x08009923
 8002a8c:	08009931 	.word	0x08009931
 8002a90:	0800993f 	.word	0x0800993f
 8002a94:	0800994d 	.word	0x0800994d

08002a98 <SystemClock_Config>:
 8002a98:	b510      	push	{r4, lr}
 8002a9a:	b094      	sub	sp, #80	@ 0x50
 8002a9c:	2214      	movs	r2, #20
 8002a9e:	2100      	movs	r1, #0
 8002aa0:	a80c      	add	r0, sp, #48	@ 0x30
 8002aa2:	f004 fc6a 	bl	800737a <memset>
 8002aa6:	2214      	movs	r2, #20
 8002aa8:	2100      	movs	r1, #0
 8002aaa:	eb0d 0002 	add.w	r0, sp, r2
 8002aae:	f004 fc64 	bl	800737a <memset>
 8002ab2:	2210      	movs	r2, #16
 8002ab4:	2100      	movs	r1, #0
 8002ab6:	a801      	add	r0, sp, #4
 8002ab8:	f004 fc5f 	bl	800737a <memset>
 8002abc:	2402      	movs	r4, #2
 8002abe:	f44f 3380 	mov.w	r3, #65536	@ 0x10000
 8002ac2:	2105      	movs	r1, #5
 8002ac4:	2201      	movs	r2, #1
 8002ac6:	e9cd 130a 	strd	r1, r3, [sp, #40]	@ 0x28
 8002aca:	e9cd 4311 	strd	r4, r3, [sp, #68]	@ 0x44
 8002ace:	f44f 13e0 	mov.w	r3, #1835008	@ 0x1c0000
 8002ad2:	a80a      	add	r0, sp, #40	@ 0x28
 8002ad4:	e9cd 220d 	strd	r2, r2, [sp, #52]	@ 0x34
 8002ad8:	9313      	str	r3, [sp, #76]	@ 0x4c
 8002ada:	f002 fbe7 	bl	80052ac <HAL_RCC_OscConfig>
 8002ade:	b108      	cbz	r0, 8002ae4 <SystemClock_Config+0x4c>
 8002ae0:	b672      	cpsid	i
 8002ae2:	e7fe      	b.n	8002ae2 <SystemClock_Config+0x4a>
 8002ae4:	230f      	movs	r3, #15
 8002ae6:	e9cd 3405 	strd	r3, r4, [sp, #20]
 8002aea:	f44f 6380 	mov.w	r3, #1024	@ 0x400
 8002aee:	9007      	str	r0, [sp, #28]
 8002af0:	e9cd 3008 	strd	r3, r0, [sp, #32]
 8002af4:	4621      	mov	r1, r4
 8002af6:	a805      	add	r0, sp, #20
 8002af8:	f002 fd9a 	bl	8005630 <HAL_RCC_ClockConfig>
 8002afc:	b108      	cbz	r0, 8002b02 <SystemClock_Config+0x6a>
 8002afe:	b672      	cpsid	i
 8002b00:	e7fe      	b.n	8002b00 <SystemClock_Config+0x68>
 8002b02:	f44f 7380 	mov.w	r3, #256	@ 0x100
 8002b06:	2203      	movs	r2, #3
 8002b08:	e9cd 2301 	strd	r2, r3, [sp, #4]
 8002b0c:	f44f 4300 	mov.w	r3, #32768	@ 0x8000
 8002b10:	a801      	add	r0, sp, #4
 8002b12:	9303      	str	r3, [sp, #12]
 8002b14:	f002 fe48 	bl	80057a8 <HAL_RCCEx_PeriphCLKConfig>
 8002b18:	b108      	cbz	r0, 8002b1e <SystemClock_Config+0x86>
 8002b1a:	b672      	cpsid	i
 8002b1c:	e7fe      	b.n	8002b1c <SystemClock_Config+0x84>
 8002b1e:	b014      	add	sp, #80	@ 0x50
 8002b20:	bd10      	pop	{r4, pc}
	...

08002b24 <main>:
 8002b24:	e92d 4ff0 	stmdb	sp!, {r4, r5, r6, r7, r8, r9, sl, fp, lr}
 8002b28:	b09b      	sub	sp, #108	@ 0x6c
 8002b2a:	f001 f81d 	bl	8003b68 <HAL_Init>
 8002b2e:	f7ff ffb3 	bl	8002a98 <SystemClock_Config>
 8002b32:	f7ff fe1b 	bl	800276c <MX_GPIO_Init>
 8002b36:	f7ff feb9 	bl	80028ac <MX_I2C1_Init>
 8002b3a:	f7ff fd93 	bl	8002664 <MX_USART1_UART_Init>
 8002b3e:	f7ff fdab 	bl	8002698 <MX_USART2_UART_Init>
 8002b42:	2210      	movs	r2, #16
 8002b44:	2100      	movs	r1, #0
 8002b46:	a814      	add	r0, sp, #80	@ 0x50
 8002b48:	f004 fc17 	bl	800737a <memset>
 8002b4c:	2247      	movs	r2, #71	@ 0x47
 8002b4e:	4c9f      	ldr	r4, [pc, #636]	@ (8002dcc <main+0x2a8>)
 8002b50:	499f      	ldr	r1, [pc, #636]	@ (8002dd0 <main+0x2ac>)
 8002b52:	2300      	movs	r3, #0
 8002b54:	e9c4 1200 	strd	r1, r2, [r4]
 8002b58:	f64f 72fe 	movw	r2, #65534	@ 0xfffe
 8002b5c:	4620      	mov	r0, r4
 8002b5e:	e9cd 330e 	strd	r3, r3, [sp, #56]	@ 0x38
 8002b62:	e9c4 2303 	strd	r2, r3, [r4, #12]
 8002b66:	e9c4 3305 	strd	r3, r3, [r4, #20]
 8002b6a:	60a3      	str	r3, [r4, #8]
 8002b6c:	f003 fa64 	bl	8006038 <HAL_TIM_Base_Init>
 8002b70:	b108      	cbz	r0, 8002b76 <main+0x52>
 8002b72:	b672      	cpsid	i
 8002b74:	e7fe      	b.n	8002b74 <main+0x50>
 8002b76:	f44f 5780 	mov.w	r7, #4096	@ 0x1000
 8002b7a:	4620      	mov	r0, r4
 8002b7c:	a914      	add	r1, sp, #80	@ 0x50
 8002b7e:	9714      	str	r7, [sp, #80]	@ 0x50
 8002b80:	f003 fa90 	bl	80060a4 <HAL_TIM_ConfigClockSource>
 8002b84:	b108      	cbz	r0, 8002b8a <main+0x66>
 8002b86:	b672      	cpsid	i
 8002b88:	e7fe      	b.n	8002b88 <main+0x64>
 8002b8a:	e9cd 000e 	strd	r0, r0, [sp, #56]	@ 0x38
 8002b8e:	a90e      	add	r1, sp, #56	@ 0x38
 8002b90:	4620      	mov	r0, r4
 8002b92:	f003 fb21 	bl	80061d8 <HAL_TIMEx_MasterConfigSynchronization>
 8002b96:	4605      	mov	r5, r0
 8002b98:	b108      	cbz	r0, 8002b9e <main+0x7a>
 8002b9a:	b672      	cpsid	i
 8002b9c:	e7fe      	b.n	8002b9c <main+0x78>
 8002b9e:	f7ff fd95 	bl	80026cc <MX_ADC1_Init>
 8002ba2:	f7ff fdbb 	bl	800271c <MX_ADC2_Init>
 8002ba6:	f04f 33ff 	mov.w	r3, #4294967295
 8002baa:	4a8a      	ldr	r2, [pc, #552]	@ (8002dd4 <main+0x2b0>)
 8002bac:	e9cd 5514 	strd	r5, r5, [sp, #80]	@ 0x50
 8002bb0:	f8ad 502c 	strh.w	r5, [sp, #44]	@ 0x2c
 8002bb4:	f88d 502e 	strb.w	r5, [sp, #46]	@ 0x2e
 8002bb8:	950e      	str	r5, [sp, #56]	@ 0x38
 8002bba:	4d87      	ldr	r5, [pc, #540]	@ (8002dd8 <main+0x2b4>)
 8002bbc:	e9c5 2300 	strd	r2, r3, [r5]
 8002bc0:	f44f 7380 	mov.w	r3, #256	@ 0x100
 8002bc4:	4628      	mov	r0, r5
 8002bc6:	60ab      	str	r3, [r5, #8]
 8002bc8:	f003 f978 	bl	8005ebc <HAL_RTC_Init>
 8002bcc:	4602      	mov	r2, r0
 8002bce:	b108      	cbz	r0, 8002bd4 <main+0xb0>
 8002bd0:	b672      	cpsid	i
 8002bd2:	e7fe      	b.n	8002bd2 <main+0xae>
 8002bd4:	f8ad 002c 	strh.w	r0, [sp, #44]	@ 0x2c
 8002bd8:	f88d 002e 	strb.w	r0, [sp, #46]	@ 0x2e
 8002bdc:	a90b      	add	r1, sp, #44	@ 0x2c
 8002bde:	4628      	mov	r0, r5
 8002be0:	f002 ff6e 	bl	8005ac0 <HAL_RTC_SetTime>
 8002be4:	4602      	mov	r2, r0
 8002be6:	b108      	cbz	r0, 8002bec <main+0xc8>
 8002be8:	b672      	cpsid	i
 8002bea:	e7fe      	b.n	8002bea <main+0xc6>
 8002bec:	4b7b      	ldr	r3, [pc, #492]	@ (8002ddc <main+0x2b8>)
 8002bee:	4628      	mov	r0, r5
 8002bf0:	a90e      	add	r1, sp, #56	@ 0x38
 8002bf2:	930e      	str	r3, [sp, #56]	@ 0x38
 8002bf4:	f003 f86a 	bl	8005ccc <HAL_RTC_SetDate>
 8002bf8:	4602      	mov	r2, r0
 8002bfa:	b108      	cbz	r0, 8002c00 <main+0xdc>
 8002bfc:	b672      	cpsid	i
 8002bfe:	e7fe      	b.n	8002bfe <main+0xda>
 8002c00:	230c      	movs	r3, #12
 8002c02:	f88d 0052 	strb.w	r0, [sp, #82]	@ 0x52
 8002c06:	9015      	str	r0, [sp, #84]	@ 0x54
 8002c08:	a914      	add	r1, sp, #80	@ 0x50
 8002c0a:	4628      	mov	r0, r5
 8002c0c:	f8ad 3050 	strh.w	r3, [sp, #80]	@ 0x50
 8002c10:	f003 f8b2 	bl	8005d78 <HAL_RTC_SetAlarm_IT>
 8002c14:	b108      	cbz	r0, 8002c1a <main+0xf6>
 8002c16:	b672      	cpsid	i
 8002c18:	e7fe      	b.n	8002c18 <main+0xf4>
 8002c1a:	f44f 72fa 	mov.w	r2, #500	@ 0x1f4
 8002c1e:	4970      	ldr	r1, [pc, #448]	@ (8002de0 <main+0x2bc>)
 8002c20:	4870      	ldr	r0, [pc, #448]	@ (8002de4 <main+0x2c0>)
 8002c22:	f003 fde8 	bl	80067f6 <HAL_UARTEx_ReceiveToIdle_IT>
 8002c26:	f44f 72fa 	mov.w	r2, #500	@ 0x1f4
 8002c2a:	496f      	ldr	r1, [pc, #444]	@ (8002de8 <main+0x2c4>)
 8002c2c:	486f      	ldr	r0, [pc, #444]	@ (8002dec <main+0x2c8>)
 8002c2e:	f003 fde2 	bl	80067f6 <HAL_UARTEx_ReceiveToIdle_IT>
 8002c32:	486f      	ldr	r0, [pc, #444]	@ (8002df0 <main+0x2cc>)
 8002c34:	f7ff fc6a 	bl	800250c <WATER_InitDefault>
 8002c38:	496d      	ldr	r1, [pc, #436]	@ (8002df0 <main+0x2cc>)
 8002c3a:	2001      	movs	r0, #1
 8002c3c:	f7ff fa12 	bl	8002064 <initVL53L0X>
 8002c40:	a808      	add	r0, sp, #32
 8002c42:	f7ff f827 	bl	8001c94 <VL53L0X_OFFSET>
 8002c46:	f7fe fa69 	bl	800111c <__aeabi_f2uiz>
 8002c4a:	b286      	uxth	r6, r0
 8002c4c:	4620      	mov	r0, r4
 8002c4e:	f003 f99b 	bl	8005f88 <HAL_TIM_Base_Start>
 8002c52:	4868      	ldr	r0, [pc, #416]	@ (8002df4 <main+0x2d0>)
 8002c54:	f001 f92e 	bl	8003eb4 <HAL_ADC_Start>
 8002c58:	4867      	ldr	r0, [pc, #412]	@ (8002df8 <main+0x2d4>)
 8002c5a:	f001 f92b 	bl	8003eb4 <HAL_ADC_Start>
 8002c5e:	2211      	movs	r2, #17
 8002c60:	4b66      	ldr	r3, [pc, #408]	@ (8002dfc <main+0x2d8>)
 8002c62:	4639      	mov	r1, r7
 8002c64:	701a      	strb	r2, [r3, #0]
 8002c66:	4866      	ldr	r0, [pc, #408]	@ (8002e00 <main+0x2dc>)
 8002c68:	2201      	movs	r2, #1
 8002c6a:	f001 fc9b 	bl	80045a4 <HAL_GPIO_WritePin>
 8002c6e:	2201      	movs	r2, #1
 8002c70:	2102      	movs	r1, #2
 8002c72:	4863      	ldr	r0, [pc, #396]	@ (8002e00 <main+0x2dc>)
 8002c74:	f001 fc96 	bl	80045a4 <HAL_GPIO_WritePin>
 8002c78:	4962      	ldr	r1, [pc, #392]	@ (8002e04 <main+0x2e0>)
 8002c7a:	4863      	ldr	r0, [pc, #396]	@ (8002e08 <main+0x2e4>)
 8002c7c:	f7ff fe32 	bl	80028e4 <LOG>
 8002c80:	f640 30b8 	movw	r0, #3000	@ 0xbb8
 8002c84:	f7fe fd60 	bl	8001748 <SIM_Sleep>
 8002c88:	4f60      	ldr	r7, [pc, #384]	@ (8002e0c <main+0x2e8>)
 8002c8a:	4c61      	ldr	r4, [pc, #388]	@ (8002e10 <main+0x2ec>)
 8002c8c:	4d54      	ldr	r5, [pc, #336]	@ (8002de0 <main+0x2bc>)
 8002c8e:	4a61      	ldr	r2, [pc, #388]	@ (8002e14 <main+0x2f0>)
 8002c90:	7813      	ldrb	r3, [r2, #0]
 8002c92:	2b00      	cmp	r3, #0
 8002c94:	d0fc      	beq.n	8002c90 <main+0x16c>
 8002c96:	f8df 9164 	ldr.w	r9, [pc, #356]	@ 8002dfc <main+0x2d8>
 8002c9a:	f7ff fe4b 	bl	8002934 <CheckHeader>
 8002c9e:	f899 3000 	ldrb.w	r3, [r9]
 8002ca2:	2b11      	cmp	r3, #17
 8002ca4:	f200 82e0 	bhi.w	8003268 <main+0x744>
 8002ca8:	e8df f013 	tbh	[pc, r3, lsl #1]
 8002cac:	00c20012 	.word	0x00c20012
 8002cb0:	014f0114 	.word	0x014f0114
 8002cb4:	01a7017b 	.word	0x01a7017b
 8002cb8:	02600200 	.word	0x02600200
 8002cbc:	036c02e5 	.word	0x036c02e5
 8002cc0:	036e0378 	.word	0x036e0378
 8002cc4:	0392037e 	.word	0x0392037e
 8002cc8:	047203f4 	.word	0x047203f4
 8002ccc:	02de047d 	.word	0x02de047d
 8002cd0:	f04f 0820 	mov.w	r8, #32
 8002cd4:	2200      	movs	r2, #0
 8002cd6:	2102      	movs	r1, #2
 8002cd8:	4849      	ldr	r0, [pc, #292]	@ (8002e00 <main+0x2dc>)
 8002cda:	f001 fc63 	bl	80045a4 <HAL_GPIO_WritePin>
 8002cde:	4944      	ldr	r1, [pc, #272]	@ (8002df0 <main+0x2cc>)
 8002ce0:	2001      	movs	r0, #1
 8002ce2:	f7ff f9bf 	bl	8002064 <initVL53L0X>
 8002ce6:	4b46      	ldr	r3, [pc, #280]	@ (8002e00 <main+0x2dc>)
 8002ce8:	f44f 7280 	mov.w	r2, #256	@ 0x100
 8002cec:	4619      	mov	r1, r3
 8002cee:	f8cd 8000 	str.w	r8, [sp]
 8002cf2:	a80e      	add	r0, sp, #56	@ 0x38
 8002cf4:	9701      	str	r7, [sp, #4]
 8002cf6:	f7fe fa31 	bl	800115c <HX711_Init>
 8002cfa:	4b41      	ldr	r3, [pc, #260]	@ (8002e00 <main+0x2dc>)
 8002cfc:	f44f 7200 	mov.w	r2, #512	@ 0x200
 8002d00:	4619      	mov	r1, r3
 8002d02:	f8cd 8000 	str.w	r8, [sp]
 8002d06:	a814      	add	r0, sp, #80	@ 0x50
 8002d08:	9701      	str	r7, [sp, #4]
 8002d0a:	f7fe fa27 	bl	800115c <HX711_Init>
 8002d0e:	f640 30b8 	movw	r0, #3000	@ 0xbb8
 8002d12:	f7fe fd69 	bl	80017e8 <SIM_Wakeup>
 8002d16:	f1b0 0800 	subs.w	r8, r0, #0
 8002d1a:	a808      	add	r0, sp, #32
 8002d1c:	bf18      	it	ne
 8002d1e:	f04f 0801 	movne.w	r8, #1
 8002d22:	f7fe ffb7 	bl	8001c94 <VL53L0X_OFFSET>
 8002d26:	4621      	mov	r1, r4
 8002d28:	f7fe f9a0 	bl	800106c <__aeabi_fcmpeq>
 8002d2c:	b108      	cbz	r0, 8002d32 <main+0x20e>
 8002d2e:	f108 080a 	add.w	r8, r8, #10
 8002d32:	f7fe fdb9 	bl	80018a8 <Ultra_ReadDistance>
 8002d36:	4621      	mov	r1, r4
 8002d38:	f7fe f998 	bl	800106c <__aeabi_fcmpeq>
 8002d3c:	b118      	cbz	r0, 8002d46 <main+0x222>
 8002d3e:	f108 0864 	add.w	r8, r8, #100	@ 0x64
 8002d42:	fa1f f888 	uxth.w	r8, r8
 8002d46:	f7fe fdaf 	bl	80018a8 <Ultra_ReadDistance>
 8002d4a:	4933      	ldr	r1, [pc, #204]	@ (8002e18 <main+0x2f4>)
 8002d4c:	f7fe f9a2 	bl	8001094 <__aeabi_fcmple>
 8002d50:	b148      	cbz	r0, 8002d66 <main+0x242>
 8002d52:	f7fe fda9 	bl	80018a8 <Ultra_ReadDistance>
 8002d56:	2100      	movs	r1, #0
 8002d58:	f7fe f9a6 	bl	80010a8 <__aeabi_fcmpge>
 8002d5c:	b118      	cbz	r0, 8002d66 <main+0x242>
 8002d5e:	492f      	ldr	r1, [pc, #188]	@ (8002e1c <main+0x2f8>)
 8002d60:	482f      	ldr	r0, [pc, #188]	@ (8002e20 <main+0x2fc>)
 8002d62:	f7ff fdbf 	bl	80028e4 <LOG>
 8002d66:	210a      	movs	r1, #10
 8002d68:	f44f 62fa 	mov.w	r2, #2000	@ 0x7d0
 8002d6c:	a80e      	add	r0, sp, #56	@ 0x38
 8002d6e:	f7fe fa53 	bl	8001218 <HX711_Tare>
 8002d72:	4621      	mov	r1, r4
 8002d74:	f7fe f97a 	bl	800106c <__aeabi_fcmpeq>
 8002d78:	b1b8      	cbz	r0, 8002daa <main+0x286>
 8002d7a:	f508 787a 	add.w	r8, r8, #1000	@ 0x3e8
 8002d7e:	fa1f f888 	uxth.w	r8, r8
 8002d82:	4643      	mov	r3, r8
 8002d84:	210a      	movs	r1, #10
 8002d86:	4a27      	ldr	r2, [pc, #156]	@ (8002e24 <main+0x300>)
 8002d88:	a80b      	add	r0, sp, #44	@ 0x2c
 8002d8a:	f004 fa7d 	bl	8007288 <sniprintf>
 8002d8e:	4926      	ldr	r1, [pc, #152]	@ (8002e28 <main+0x304>)
 8002d90:	4823      	ldr	r0, [pc, #140]	@ (8002e20 <main+0x2fc>)
 8002d92:	f7ff fda7 	bl	80028e4 <LOG>
 8002d96:	481c      	ldr	r0, [pc, #112]	@ (8002e08 <main+0x2e4>)
 8002d98:	a90b      	add	r1, sp, #44	@ 0x2c
 8002d9a:	f7ff fda3 	bl	80028e4 <LOG>
 8002d9e:	f640 30b8 	movw	r0, #3000	@ 0xbb8
 8002da2:	f7fe fcd1 	bl	8001748 <SIM_Sleep>
 8002da6:	2311      	movs	r3, #17
 8002da8:	e2de      	b.n	8003368 <main+0x844>
 8002daa:	210a      	movs	r1, #10
 8002dac:	f44f 62fa 	mov.w	r2, #2000	@ 0x7d0
 8002db0:	a814      	add	r0, sp, #80	@ 0x50
 8002db2:	f7fe fa31 	bl	8001218 <HX711_Tare>
 8002db6:	4621      	mov	r1, r4
 8002db8:	f7fe f958 	bl	800106c <__aeabi_fcmpeq>
 8002dbc:	2800      	cmp	r0, #0
 8002dbe:	d1dc      	bne.n	8002d7a <main+0x256>
 8002dc0:	f1b8 0f00 	cmp.w	r8, #0
 8002dc4:	d1dd      	bne.n	8002d82 <main+0x25e>
 8002dc6:	4919      	ldr	r1, [pc, #100]	@ (8002e2c <main+0x308>)
 8002dc8:	4815      	ldr	r0, [pc, #84]	@ (8002e20 <main+0x2fc>)
 8002dca:	e7e6      	b.n	8002d9a <main+0x276>
 8002dcc:	20000824 	.word	0x20000824
 8002dd0:	40012c00 	.word	0x40012c00
 8002dd4:	40002800 	.word	0x40002800
 8002dd8:	2000086c 	.word	0x2000086c
 8002ddc:	00010101 	.word	0x00010101
 8002de0:	20000c44 	.word	0x20000c44
 8002de4:	200007dc 	.word	0x200007dc
 8002de8:	2000031d 	.word	0x2000031d
 8002dec:	20000794 	.word	0x20000794
 8002df0:	20000880 	.word	0x20000880
 8002df4:	20000904 	.word	0x20000904
 8002df8:	200008d4 	.word	0x200008d4
 8002dfc:	20000934 	.word	0x20000934
 8002e00:	40010c00 	.word	0x40010c00
 8002e04:	0800995a 	.word	0x0800995a
 8002e08:	08009964 	.word	0x08009964
 8002e0c:	43480000 	.word	0x43480000
 8002e10:	bf800000 	.word	0xbf800000
 8002e14:	20000a4f 	.word	0x20000a4f
 8002e18:	41a00000 	.word	0x41a00000
 8002e1c:	0800996c 	.word	0x0800996c
 8002e20:	08009897 	.word	0x08009897
 8002e24:	08009971 	.word	0x08009971
 8002e28:	08009974 	.word	0x08009974
 8002e2c:	08009714 	.word	0x08009714
 8002e30:	2214      	movs	r2, #20
 8002e32:	2100      	movs	r1, #0
 8002e34:	48a5      	ldr	r0, [pc, #660]	@ (80030cc <main+0x5a8>)
 8002e36:	f004 faa0 	bl	800737a <memset>
 8002e3a:	2296      	movs	r2, #150	@ 0x96
 8002e3c:	2100      	movs	r1, #0
 8002e3e:	48a4      	ldr	r0, [pc, #656]	@ (80030d0 <main+0x5ac>)
 8002e40:	f004 fa9b 	bl	800737a <memset>
 8002e44:	49a3      	ldr	r1, [pc, #652]	@ (80030d4 <main+0x5b0>)
 8002e46:	4628      	mov	r0, r5
 8002e48:	f004 fac1 	bl	80073ce <strstr>
 8002e4c:	49a2      	ldr	r1, [pc, #648]	@ (80030d8 <main+0x5b4>)
 8002e4e:	f100 0807 	add.w	r8, r0, #7
 8002e52:	4628      	mov	r0, r5
 8002e54:	f004 fabb 	bl	80073ce <strstr>
 8002e58:	4641      	mov	r1, r8
 8002e5a:	eba0 0208 	sub.w	r2, r0, r8
 8002e5e:	489b      	ldr	r0, [pc, #620]	@ (80030cc <main+0x5a8>)
 8002e60:	f004 faa2 	bl	80073a8 <strncpy>
 8002e64:	4b9d      	ldr	r3, [pc, #628]	@ (80030dc <main+0x5b8>)
 8002e66:	2196      	movs	r1, #150	@ 0x96
 8002e68:	9301      	str	r3, [sp, #4]
 8002e6a:	4b9d      	ldr	r3, [pc, #628]	@ (80030e0 <main+0x5bc>)
 8002e6c:	4a9d      	ldr	r2, [pc, #628]	@ (80030e4 <main+0x5c0>)
 8002e6e:	9300      	str	r3, [sp, #0]
 8002e70:	4897      	ldr	r0, [pc, #604]	@ (80030d0 <main+0x5ac>)
 8002e72:	4b96      	ldr	r3, [pc, #600]	@ (80030cc <main+0x5a8>)
 8002e74:	f004 fa08 	bl	8007288 <sniprintf>
 8002e78:	f640 30b8 	movw	r0, #3000	@ 0xbb8
 8002e7c:	f7fe fcb4 	bl	80017e8 <SIM_Wakeup>
 8002e80:	b118      	cbz	r0, 8002e8a <main+0x366>
 8002e82:	4999      	ldr	r1, [pc, #612]	@ (80030e8 <main+0x5c4>)
 8002e84:	4899      	ldr	r0, [pc, #612]	@ (80030ec <main+0x5c8>)
 8002e86:	f7ff fd2d 	bl	80028e4 <LOG>
 8002e8a:	f241 3288 	movw	r2, #5000	@ 0x1388
 8002e8e:	4998      	ldr	r1, [pc, #608]	@ (80030f0 <main+0x5cc>)
 8002e90:	488f      	ldr	r0, [pc, #572]	@ (80030d0 <main+0x5ac>)
 8002e92:	f7fe fbd7 	bl	8001644 <SIMCom_Post>
 8002e96:	2800      	cmp	r0, #0
 8002e98:	d181      	bne.n	8002d9e <main+0x27a>
 8002e9a:	4996      	ldr	r1, [pc, #600]	@ (80030f4 <main+0x5d0>)
 8002e9c:	4896      	ldr	r0, [pc, #600]	@ (80030f8 <main+0x5d4>)
 8002e9e:	f004 fa96 	bl	80073ce <strstr>
 8002ea2:	2800      	cmp	r0, #0
 8002ea4:	d18f      	bne.n	8002dc6 <main+0x2a2>
 8002ea6:	4995      	ldr	r1, [pc, #596]	@ (80030fc <main+0x5d8>)
 8002ea8:	4893      	ldr	r0, [pc, #588]	@ (80030f8 <main+0x5d4>)
 8002eaa:	f004 fa90 	bl	80073ce <strstr>
 8002eae:	b108      	cbz	r0, 8002eb4 <main+0x390>
 8002eb0:	4993      	ldr	r1, [pc, #588]	@ (8003100 <main+0x5dc>)
 8002eb2:	e789      	b.n	8002dc8 <main+0x2a4>
 8002eb4:	4993      	ldr	r1, [pc, #588]	@ (8003104 <main+0x5e0>)
 8002eb6:	4890      	ldr	r0, [pc, #576]	@ (80030f8 <main+0x5d4>)
 8002eb8:	f004 fa89 	bl	80073ce <strstr>
 8002ebc:	b108      	cbz	r0, 8002ec2 <main+0x39e>
 8002ebe:	4992      	ldr	r1, [pc, #584]	@ (8003108 <main+0x5e4>)
 8002ec0:	e782      	b.n	8002dc8 <main+0x2a4>
 8002ec2:	4992      	ldr	r1, [pc, #584]	@ (800310c <main+0x5e8>)
 8002ec4:	488c      	ldr	r0, [pc, #560]	@ (80030f8 <main+0x5d4>)
 8002ec6:	f004 fa82 	bl	80073ce <strstr>
 8002eca:	b108      	cbz	r0, 8002ed0 <main+0x3ac>
 8002ecc:	4990      	ldr	r1, [pc, #576]	@ (8003110 <main+0x5ec>)
 8002ece:	e77b      	b.n	8002dc8 <main+0x2a4>
 8002ed0:	4985      	ldr	r1, [pc, #532]	@ (80030e8 <main+0x5c4>)
 8002ed2:	e779      	b.n	8002dc8 <main+0x2a4>
 8002ed4:	2296      	movs	r2, #150	@ 0x96
 8002ed6:	2100      	movs	r1, #0
 8002ed8:	487d      	ldr	r0, [pc, #500]	@ (80030d0 <main+0x5ac>)
 8002eda:	f004 fa4e 	bl	800737a <memset>
 8002ede:	4b8d      	ldr	r3, [pc, #564]	@ (8003114 <main+0x5f0>)
 8002ee0:	6818      	ldr	r0, [r3, #0]
 8002ee2:	f7fd faa1 	bl	8000428 <__aeabi_f2d>
 8002ee6:	e9cd 0104 	strd	r0, r1, [sp, #16]
 8002eea:	4b8b      	ldr	r3, [pc, #556]	@ (8003118 <main+0x5f4>)
 8002eec:	6818      	ldr	r0, [r3, #0]
 8002eee:	f7fd fa9b 	bl	8000428 <__aeabi_f2d>
 8002ef2:	4b7a      	ldr	r3, [pc, #488]	@ (80030dc <main+0x5b8>)
 8002ef4:	e9cd 0102 	strd	r0, r1, [sp, #8]
 8002ef8:	9301      	str	r3, [sp, #4]
 8002efa:	4b79      	ldr	r3, [pc, #484]	@ (80030e0 <main+0x5bc>)
 8002efc:	2196      	movs	r1, #150	@ 0x96
 8002efe:	9300      	str	r3, [sp, #0]
 8002f00:	4a86      	ldr	r2, [pc, #536]	@ (800311c <main+0x5f8>)
 8002f02:	4b72      	ldr	r3, [pc, #456]	@ (80030cc <main+0x5a8>)
 8002f04:	4872      	ldr	r0, [pc, #456]	@ (80030d0 <main+0x5ac>)
 8002f06:	f004 f9bf 	bl	8007288 <sniprintf>
 8002f0a:	f640 30b8 	movw	r0, #3000	@ 0xbb8
 8002f0e:	f7fe fc6b 	bl	80017e8 <SIM_Wakeup>
 8002f12:	b118      	cbz	r0, 8002f1c <main+0x3f8>
 8002f14:	4974      	ldr	r1, [pc, #464]	@ (80030e8 <main+0x5c4>)
 8002f16:	4875      	ldr	r0, [pc, #468]	@ (80030ec <main+0x5c8>)
 8002f18:	f7ff fce4 	bl	80028e4 <LOG>
 8002f1c:	f241 3288 	movw	r2, #5000	@ 0x1388
 8002f20:	497f      	ldr	r1, [pc, #508]	@ (8003120 <main+0x5fc>)
 8002f22:	486b      	ldr	r0, [pc, #428]	@ (80030d0 <main+0x5ac>)
 8002f24:	f7fe fb8e 	bl	8001644 <SIMCom_Post>
 8002f28:	2800      	cmp	r0, #0
 8002f2a:	d1d1      	bne.n	8002ed0 <main+0x3ac>
 8002f2c:	497d      	ldr	r1, [pc, #500]	@ (8003124 <main+0x600>)
 8002f2e:	4872      	ldr	r0, [pc, #456]	@ (80030f8 <main+0x5d4>)
 8002f30:	f004 fa4d 	bl	80073ce <strstr>
 8002f34:	2800      	cmp	r0, #0
 8002f36:	f47f af46 	bne.w	8002dc6 <main+0x2a2>
 8002f3a:	497b      	ldr	r1, [pc, #492]	@ (8003128 <main+0x604>)
 8002f3c:	486e      	ldr	r0, [pc, #440]	@ (80030f8 <main+0x5d4>)
 8002f3e:	f004 fa46 	bl	80073ce <strstr>
 8002f42:	2800      	cmp	r0, #0
 8002f44:	d1b4      	bne.n	8002eb0 <main+0x38c>
 8002f46:	4979      	ldr	r1, [pc, #484]	@ (800312c <main+0x608>)
 8002f48:	e73e      	b.n	8002dc8 <main+0x2a4>
 8002f4a:	2296      	movs	r2, #150	@ 0x96
 8002f4c:	2100      	movs	r1, #0
 8002f4e:	4860      	ldr	r0, [pc, #384]	@ (80030d0 <main+0x5ac>)
 8002f50:	f004 fa13 	bl	800737a <memset>
 8002f54:	f7fe fca8 	bl	80018a8 <Ultra_ReadDistance>
 8002f58:	f8df 81d4 	ldr.w	r8, [pc, #468]	@ 8003130 <main+0x60c>
 8002f5c:	f8c8 0000 	str.w	r0, [r8]
 8002f60:	f7ff fa9a 	bl	8002498 <Read_Voltage>
 8002f64:	4b73      	ldr	r3, [pc, #460]	@ (8003134 <main+0x610>)
 8002f66:	6018      	str	r0, [r3, #0]
 8002f68:	f7fd fa5e 	bl	8000428 <__aeabi_f2d>
 8002f6c:	e9cd 0102 	strd	r0, r1, [sp, #8]
 8002f70:	f8d8 0000 	ldr.w	r0, [r8]
 8002f74:	f7fd fa58 	bl	8000428 <__aeabi_f2d>
 8002f78:	4b58      	ldr	r3, [pc, #352]	@ (80030dc <main+0x5b8>)
 8002f7a:	e9cd 0100 	strd	r0, r1, [sp]
 8002f7e:	4a6e      	ldr	r2, [pc, #440]	@ (8003138 <main+0x614>)
 8002f80:	2196      	movs	r1, #150	@ 0x96
 8002f82:	4853      	ldr	r0, [pc, #332]	@ (80030d0 <main+0x5ac>)
 8002f84:	f004 f980 	bl	8007288 <sniprintf>
 8002f88:	f640 30b8 	movw	r0, #3000	@ 0xbb8
 8002f8c:	f7fe fc2c 	bl	80017e8 <SIM_Wakeup>
 8002f90:	b118      	cbz	r0, 8002f9a <main+0x476>
 8002f92:	4955      	ldr	r1, [pc, #340]	@ (80030e8 <main+0x5c4>)
 8002f94:	4855      	ldr	r0, [pc, #340]	@ (80030ec <main+0x5c8>)
 8002f96:	f7ff fca5 	bl	80028e4 <LOG>
 8002f9a:	f241 3288 	movw	r2, #5000	@ 0x1388
 8002f9e:	4967      	ldr	r1, [pc, #412]	@ (800313c <main+0x618>)
 8002fa0:	e7bf      	b.n	8002f22 <main+0x3fe>
 8002fa2:	2201      	movs	r2, #1
 8002fa4:	f44f 4180 	mov.w	r1, #16384	@ 0x4000
 8002fa8:	4865      	ldr	r0, [pc, #404]	@ (8003140 <main+0x61c>)
 8002faa:	f001 fafb 	bl	80045a4 <HAL_GPIO_WritePin>
 8002fae:	2200      	movs	r2, #0
 8002fb0:	f44f 4100 	mov.w	r1, #32768	@ 0x8000
 8002fb4:	4862      	ldr	r0, [pc, #392]	@ (8003140 <main+0x61c>)
 8002fb6:	f001 faf5 	bl	80045a4 <HAL_GPIO_WritePin>
 8002fba:	2201      	movs	r2, #1
 8002fbc:	2180      	movs	r1, #128	@ 0x80
 8002fbe:	4861      	ldr	r0, [pc, #388]	@ (8003144 <main+0x620>)
 8002fc0:	f001 faf0 	bl	80045a4 <HAL_GPIO_WritePin>
 8002fc4:	f44f 63fa 	mov.w	r3, #2000	@ 0x7d0
 8002fc8:	220a      	movs	r2, #10
 8002fca:	a914      	add	r1, sp, #80	@ 0x50
 8002fcc:	a80e      	add	r0, sp, #56	@ 0x38
 8002fce:	f7fe f975 	bl	80012bc <HX711_Get_CombinedMass>
 8002fd2:	f8df 8174 	ldr.w	r8, [pc, #372]	@ 8003148 <main+0x624>
 8002fd6:	495d      	ldr	r1, [pc, #372]	@ (800314c <main+0x628>)
 8002fd8:	f8c8 0000 	str.w	r0, [r8]
 8002fdc:	4843      	ldr	r0, [pc, #268]	@ (80030ec <main+0x5c8>)
 8002fde:	f7ff fc81 	bl	80028e4 <LOG>
 8002fe2:	f8d8 0000 	ldr.w	r0, [r8]
 8002fe6:	f7fd fa1f 	bl	8000428 <__aeabi_f2d>
 8002fea:	4a59      	ldr	r2, [pc, #356]	@ (8003150 <main+0x62c>)
 8002fec:	e9cd 0100 	strd	r0, r1, [sp]
 8002ff0:	2164      	movs	r1, #100	@ 0x64
 8002ff2:	4858      	ldr	r0, [pc, #352]	@ (8003154 <main+0x630>)
 8002ff4:	f004 f948 	bl	8007288 <sniprintf>
 8002ff8:	e6d5      	b.n	8002da6 <main+0x282>
 8002ffa:	2200      	movs	r2, #0
 8002ffc:	f44f 4180 	mov.w	r1, #16384	@ 0x4000
 8003000:	484f      	ldr	r0, [pc, #316]	@ (8003140 <main+0x61c>)
 8003002:	f001 facf 	bl	80045a4 <HAL_GPIO_WritePin>
 8003006:	2201      	movs	r2, #1
 8003008:	f44f 4100 	mov.w	r1, #32768	@ 0x8000
 800300c:	484c      	ldr	r0, [pc, #304]	@ (8003140 <main+0x61c>)
 800300e:	f001 fac9 	bl	80045a4 <HAL_GPIO_WritePin>
 8003012:	4631      	mov	r1, r6
 8003014:	a808      	add	r0, sp, #32
 8003016:	f7fe fe59 	bl	8001ccc <VL53L0X_ReadDistance>
 800301a:	4b4f      	ldr	r3, [pc, #316]	@ (8003158 <main+0x634>)
 800301c:	220a      	movs	r2, #10
 800301e:	6018      	str	r0, [r3, #0]
 8003020:	a914      	add	r1, sp, #80	@ 0x50
 8003022:	f44f 63fa 	mov.w	r3, #2000	@ 0x7d0
 8003026:	a80e      	add	r0, sp, #56	@ 0x38
 8003028:	f7fe f948 	bl	80012bc <HX711_Get_CombinedMass>
 800302c:	4b4b      	ldr	r3, [pc, #300]	@ (800315c <main+0x638>)
 800302e:	f8df 8130 	ldr.w	r8, [pc, #304]	@ 8003160 <main+0x63c>
 8003032:	6018      	str	r0, [r3, #0]
 8003034:	4b44      	ldr	r3, [pc, #272]	@ (8003148 <main+0x624>)
 8003036:	f8df a0dc 	ldr.w	sl, [pc, #220]	@ 8003114 <main+0x5f0>
 800303a:	6819      	ldr	r1, [r3, #0]
 800303c:	f7fd fd78 	bl	8000b30 <__aeabi_fsub>
 8003040:	f8c8 0000 	str.w	r0, [r8]
 8003044:	20dc      	movs	r0, #220	@ 0xdc
 8003046:	f7ff faf5 	bl	8002634 <WATER_ReadHeightMM_Quick>
 800304a:	f7fd fe27 	bl	8000c9c <__aeabi_i2f>
 800304e:	4b45      	ldr	r3, [pc, #276]	@ (8003164 <main+0x640>)
 8003050:	6018      	str	r0, [r3, #0]
 8003052:	20dc      	movs	r0, #220	@ 0xdc
 8003054:	f7ff fafa 	bl	800264c <WATER_ReadLastOn_Quick>
 8003058:	f7fd fe20 	bl	8000c9c <__aeabi_i2f>
 800305c:	2201      	movs	r2, #1
 800305e:	f8ca 0000 	str.w	r0, [sl]
 8003062:	2102      	movs	r1, #2
 8003064:	4836      	ldr	r0, [pc, #216]	@ (8003140 <main+0x61c>)
 8003066:	f001 fa9d 	bl	80045a4 <HAL_GPIO_WritePin>
 800306a:	f8da a000 	ldr.w	sl, [sl]
 800306e:	f8d8 0000 	ldr.w	r0, [r8]
 8003072:	4651      	mov	r1, sl
 8003074:	f7fd fd5c 	bl	8000b30 <__aeabi_fsub>
 8003078:	4b27      	ldr	r3, [pc, #156]	@ (8003118 <main+0x5f4>)
 800307a:	2264      	movs	r2, #100	@ 0x64
 800307c:	6018      	str	r0, [r3, #0]
 800307e:	4680      	mov	r8, r0
 8003080:	2100      	movs	r1, #0
 8003082:	4834      	ldr	r0, [pc, #208]	@ (8003154 <main+0x630>)
 8003084:	f004 f979 	bl	800737a <memset>
 8003088:	4650      	mov	r0, sl
 800308a:	f7fd f9cd 	bl	8000428 <__aeabi_f2d>
 800308e:	e9cd 0102 	strd	r0, r1, [sp, #8]
 8003092:	4640      	mov	r0, r8
 8003094:	f7fd f9c8 	bl	8000428 <__aeabi_f2d>
 8003098:	4a33      	ldr	r2, [pc, #204]	@ (8003168 <main+0x644>)
 800309a:	e9cd 0100 	strd	r0, r1, [sp]
 800309e:	2128      	movs	r1, #40	@ 0x28
 80030a0:	482c      	ldr	r0, [pc, #176]	@ (8003154 <main+0x630>)
 80030a2:	f004 f8f1 	bl	8007288 <sniprintf>
 80030a6:	492b      	ldr	r1, [pc, #172]	@ (8003154 <main+0x630>)
 80030a8:	4810      	ldr	r0, [pc, #64]	@ (80030ec <main+0x5c8>)
 80030aa:	e1ac      	b.n	8003406 <main+0x8e2>
 80030ac:	2201      	movs	r2, #1
 80030ae:	2140      	movs	r1, #64	@ 0x40
 80030b0:	4824      	ldr	r0, [pc, #144]	@ (8003144 <main+0x620>)
 80030b2:	f001 fa77 	bl	80045a4 <HAL_GPIO_WritePin>
 80030b6:	f44f 70fa 	mov.w	r0, #500	@ 0x1f4
 80030ba:	f000 fd79 	bl	8003bb0 <HAL_Delay>
 80030be:	2200      	movs	r2, #0
 80030c0:	2140      	movs	r1, #64	@ 0x40
 80030c2:	4820      	ldr	r0, [pc, #128]	@ (8003144 <main+0x620>)
 80030c4:	f001 fa6e 	bl	80045a4 <HAL_GPIO_WritePin>
 80030c8:	4920      	ldr	r1, [pc, #128]	@ (800314c <main+0x628>)
 80030ca:	e7ed      	b.n	80030a8 <main+0x584>
 80030cc:	20000a3a 	.word	0x20000a3a
 80030d0:	200009a4 	.word	0x200009a4
 80030d4:	080098ac 	.word	0x080098ac
 80030d8:	080098b4 	.word	0x080098b4
 80030dc:	08009e3a 	.word	0x08009e3a
 80030e0:	08009e36 	.word	0x08009e36
 80030e4:	08009979 	.word	0x08009979
 80030e8:	08009974 	.word	0x08009974
 80030ec:	08009897 	.word	0x08009897
 80030f0:	08009de5 	.word	0x08009de5
 80030f4:	080099b7 	.word	0x080099b7
 80030f8:	20000511 	.word	0x20000511
 80030fc:	080099c6 	.word	0x080099c6
 8003100:	080099e0 	.word	0x080099e0
 8003104:	080099e7 	.word	0x080099e7
 8003108:	080099f5 	.word	0x080099f5
 800310c:	08009a01 	.word	0x08009a01
 8003110:	08009a1b 	.word	0x08009a1b
 8003114:	20000044 	.word	0x20000044
 8003118:	20000040 	.word	0x20000040
 800311c:	08009a28 	.word	0x08009a28
 8003120:	08009dc0 	.word	0x08009dc0
 8003124:	080099f0 	.word	0x080099f0
 8003128:	080099c0 	.word	0x080099c0
 800312c:	08009a87 	.word	0x08009a87
 8003130:	2000093c 	.word	0x2000093c
 8003134:	20000938 	.word	0x20000938
 8003138:	08009a90 	.word	0x08009a90
 800313c:	08009e0b 	.word	0x08009e0b
 8003140:	40010c00 	.word	0x40010c00
 8003144:	40010800 	.word	0x40010800
 8003148:	20000050 	.word	0x20000050
 800314c:	08009714 	.word	0x08009714
 8003150:	08009ac6 	.word	0x08009ac6
 8003154:	20000940 	.word	0x20000940
 8003158:	20000054 	.word	0x20000054
 800315c:	2000004c 	.word	0x2000004c
 8003160:	20000048 	.word	0x20000048
 8003164:	2000003c 	.word	0x2000003c
 8003168:	08009adf 	.word	0x08009adf
 800316c:	f04f 0801 	mov.w	r8, #1
 8003170:	2201      	movs	r2, #1
 8003172:	2102      	movs	r1, #2
 8003174:	48a5      	ldr	r0, [pc, #660]	@ (800340c <main+0x8e8>)
 8003176:	f001 fa15 	bl	80045a4 <HAL_GPIO_WritePin>
 800317a:	2200      	movs	r2, #0
 800317c:	f44f 5180 	mov.w	r1, #4096	@ 0x1000
 8003180:	48a2      	ldr	r0, [pc, #648]	@ (800340c <main+0x8e8>)
 8003182:	f001 fa0f 	bl	80045a4 <HAL_GPIO_WritePin>
 8003186:	48a2      	ldr	r0, [pc, #648]	@ (8003410 <main+0x8ec>)
 8003188:	f000 ff9a 	bl	80040c0 <HAL_ADC_DeInit>
 800318c:	48a1      	ldr	r0, [pc, #644]	@ (8003414 <main+0x8f0>)
 800318e:	f000 ff97 	bl	80040c0 <HAL_ADC_DeInit>
 8003192:	2140      	movs	r1, #64	@ 0x40
 8003194:	48a0      	ldr	r0, [pc, #640]	@ (8003418 <main+0x8f4>)
 8003196:	f001 f991 	bl	80044bc <HAL_GPIO_DeInit>
 800319a:	2180      	movs	r1, #128	@ 0x80
 800319c:	489e      	ldr	r0, [pc, #632]	@ (8003418 <main+0x8f4>)
 800319e:	f001 f98d 	bl	80044bc <HAL_GPIO_DeInit>
 80031a2:	2101      	movs	r1, #1
 80031a4:	4899      	ldr	r0, [pc, #612]	@ (800340c <main+0x8e8>)
 80031a6:	f001 f989 	bl	80044bc <HAL_GPIO_DeInit>
 80031aa:	f44f 5180 	mov.w	r1, #4096	@ 0x1000
 80031ae:	4897      	ldr	r0, [pc, #604]	@ (800340c <main+0x8e8>)
 80031b0:	f001 f984 	bl	80044bc <HAL_GPIO_DeInit>
 80031b4:	f44f 4180 	mov.w	r1, #16384	@ 0x4000
 80031b8:	4894      	ldr	r0, [pc, #592]	@ (800340c <main+0x8e8>)
 80031ba:	f001 f97f 	bl	80044bc <HAL_GPIO_DeInit>
 80031be:	f44f 4100 	mov.w	r1, #32768	@ 0x8000
 80031c2:	4892      	ldr	r0, [pc, #584]	@ (800340c <main+0x8e8>)
 80031c4:	f001 f97a 	bl	80044bc <HAL_GPIO_DeInit>
 80031c8:	2108      	movs	r1, #8
 80031ca:	4890      	ldr	r0, [pc, #576]	@ (800340c <main+0x8e8>)
 80031cc:	f001 f976 	bl	80044bc <HAL_GPIO_DeInit>
 80031d0:	2110      	movs	r1, #16
 80031d2:	488e      	ldr	r0, [pc, #568]	@ (800340c <main+0x8e8>)
 80031d4:	f001 f972 	bl	80044bc <HAL_GPIO_DeInit>
 80031d8:	2120      	movs	r1, #32
 80031da:	488c      	ldr	r0, [pc, #560]	@ (800340c <main+0x8e8>)
 80031dc:	f001 f96e 	bl	80044bc <HAL_GPIO_DeInit>
 80031e0:	f44f 7180 	mov.w	r1, #256	@ 0x100
 80031e4:	4889      	ldr	r0, [pc, #548]	@ (800340c <main+0x8e8>)
 80031e6:	f001 f969 	bl	80044bc <HAL_GPIO_DeInit>
 80031ea:	f44f 7100 	mov.w	r1, #512	@ 0x200
 80031ee:	4887      	ldr	r0, [pc, #540]	@ (800340c <main+0x8e8>)
 80031f0:	f001 f964 	bl	80044bc <HAL_GPIO_DeInit>
 80031f4:	f8df 9224 	ldr.w	r9, [pc, #548]	@ 800341c <main+0x8f8>
 80031f8:	4889      	ldr	r0, [pc, #548]	@ (8003420 <main+0x8fc>)
 80031fa:	f001 fc8f 	bl	8004b1c <HAL_I2C_DeInit>
 80031fe:	4989      	ldr	r1, [pc, #548]	@ (8003424 <main+0x900>)
 8003200:	4889      	ldr	r0, [pc, #548]	@ (8003428 <main+0x904>)
 8003202:	f889 8000 	strb.w	r8, [r9]
 8003206:	f7ff fb6d 	bl	80028e4 <LOG>
 800320a:	f000 fce3 	bl	8003bd4 <HAL_SuspendTick>
 800320e:	4641      	mov	r1, r8
 8003210:	4640      	mov	r0, r8
 8003212:	f002 f827 	bl	8005264 <HAL_PWR_EnterSTOPMode>
 8003216:	f000 fce4 	bl	8003be2 <HAL_ResumeTick>
 800321a:	f7ff fc3d 	bl	8002a98 <SystemClock_Config>
 800321e:	f7ff fa21 	bl	8002664 <MX_USART1_UART_Init>
 8003222:	f7ff fa39 	bl	8002698 <MX_USART2_UART_Init>
 8003226:	f44f 72fa 	mov.w	r2, #500	@ 0x1f4
 800322a:	4629      	mov	r1, r5
 800322c:	487f      	ldr	r0, [pc, #508]	@ (800342c <main+0x908>)
 800322e:	f003 fae2 	bl	80067f6 <HAL_UARTEx_ReceiveToIdle_IT>
 8003232:	f44f 72fa 	mov.w	r2, #500	@ 0x1f4
 8003236:	497e      	ldr	r1, [pc, #504]	@ (8003430 <main+0x90c>)
 8003238:	487e      	ldr	r0, [pc, #504]	@ (8003434 <main+0x910>)
 800323a:	f003 fadc 	bl	80067f6 <HAL_UARTEx_ReceiveToIdle_IT>
 800323e:	f7ff fa45 	bl	80026cc <MX_ADC1_Init>
 8003242:	f7ff fa6b 	bl	800271c <MX_ADC2_Init>
 8003246:	f7ff fa91 	bl	800276c <MX_GPIO_Init>
 800324a:	f7ff fb2f 	bl	80028ac <MX_I2C1_Init>
 800324e:	2300      	movs	r3, #0
 8003250:	4979      	ldr	r1, [pc, #484]	@ (8003438 <main+0x914>)
 8003252:	4875      	ldr	r0, [pc, #468]	@ (8003428 <main+0x904>)
 8003254:	f889 3000 	strb.w	r3, [r9]
 8003258:	f7ff fb44 	bl	80028e4 <LOG>
 800325c:	4642      	mov	r2, r8
 800325e:	f44f 5180 	mov.w	r1, #4096	@ 0x1000
 8003262:	486a      	ldr	r0, [pc, #424]	@ (800340c <main+0x8e8>)
 8003264:	f001 f99e 	bl	80045a4 <HAL_GPIO_WritePin>
 8003268:	f44f 72fa 	mov.w	r2, #500	@ 0x1f4
 800326c:	2100      	movs	r1, #0
 800326e:	4628      	mov	r0, r5
 8003270:	f004 f883 	bl	800737a <memset>
 8003274:	e50b      	b.n	8002c8e <main+0x16a>
 8003276:	f04f 0820 	mov.w	r8, #32
 800327a:	4970      	ldr	r1, [pc, #448]	@ (800343c <main+0x918>)
 800327c:	4870      	ldr	r0, [pc, #448]	@ (8003440 <main+0x91c>)
 800327e:	f7ff fb31 	bl	80028e4 <LOG>
 8003282:	2200      	movs	r2, #0
 8003284:	2102      	movs	r1, #2
 8003286:	4861      	ldr	r0, [pc, #388]	@ (800340c <main+0x8e8>)
 8003288:	f001 f98c 	bl	80045a4 <HAL_GPIO_WritePin>
 800328c:	4964      	ldr	r1, [pc, #400]	@ (8003420 <main+0x8fc>)
 800328e:	2001      	movs	r0, #1
 8003290:	f7fe fee8 	bl	8002064 <initVL53L0X>
 8003294:	4b5d      	ldr	r3, [pc, #372]	@ (800340c <main+0x8e8>)
 8003296:	f44f 7280 	mov.w	r2, #256	@ 0x100
 800329a:	4619      	mov	r1, r3
 800329c:	a80e      	add	r0, sp, #56	@ 0x38
 800329e:	9701      	str	r7, [sp, #4]
 80032a0:	f8cd 8000 	str.w	r8, [sp]
 80032a4:	f7fd ff5a 	bl	800115c <HX711_Init>
 80032a8:	4b58      	ldr	r3, [pc, #352]	@ (800340c <main+0x8e8>)
 80032aa:	f44f 7200 	mov.w	r2, #512	@ 0x200
 80032ae:	4619      	mov	r1, r3
 80032b0:	a814      	add	r0, sp, #80	@ 0x50
 80032b2:	9701      	str	r7, [sp, #4]
 80032b4:	f8cd 8000 	str.w	r8, [sp]
 80032b8:	f7fd ff50 	bl	800115c <HX711_Init>
 80032bc:	f640 30b8 	movw	r0, #3000	@ 0xbb8
 80032c0:	f7fe fa92 	bl	80017e8 <SIM_Wakeup>
 80032c4:	eb0d 0008 	add.w	r0, sp, r8
 80032c8:	f7fe fce4 	bl	8001c94 <VL53L0X_OFFSET>
 80032cc:	f7fe faec 	bl	80018a8 <Ultra_ReadDistance>
 80032d0:	210a      	movs	r1, #10
 80032d2:	f44f 62fa 	mov.w	r2, #2000	@ 0x7d0
 80032d6:	a80e      	add	r0, sp, #56	@ 0x38
 80032d8:	f7fd ff9e 	bl	8001218 <HX711_Tare>
 80032dc:	4621      	mov	r1, r4
 80032de:	f7fd fec5 	bl	800106c <__aeabi_fcmpeq>
 80032e2:	b928      	cbnz	r0, 80032f0 <main+0x7cc>
 80032e4:	f44f 62fa 	mov.w	r2, #2000	@ 0x7d0
 80032e8:	210a      	movs	r1, #10
 80032ea:	a814      	add	r0, sp, #80	@ 0x50
 80032ec:	f7fd ff94 	bl	8001218 <HX711_Tare>
 80032f0:	f7fe fada 	bl	80018a8 <Ultra_ReadDistance>
 80032f4:	f8df 814c 	ldr.w	r8, [pc, #332]	@ 8003444 <main+0x920>
 80032f8:	f8c8 0000 	str.w	r0, [r8]
 80032fc:	f7ff f8cc 	bl	8002498 <Read_Voltage>
 8003300:	4b51      	ldr	r3, [pc, #324]	@ (8003448 <main+0x924>)
 8003302:	6018      	str	r0, [r3, #0]
 8003304:	f7fd f890 	bl	8000428 <__aeabi_f2d>
 8003308:	e9cd 0102 	strd	r0, r1, [sp, #8]
 800330c:	f8d8 0000 	ldr.w	r0, [r8]
 8003310:	f7fd f88a 	bl	8000428 <__aeabi_f2d>
 8003314:	4b4d      	ldr	r3, [pc, #308]	@ (800344c <main+0x928>)
 8003316:	e9cd 0100 	strd	r0, r1, [sp]
 800331a:	4a4d      	ldr	r2, [pc, #308]	@ (8003450 <main+0x92c>)
 800331c:	2196      	movs	r1, #150	@ 0x96
 800331e:	484d      	ldr	r0, [pc, #308]	@ (8003454 <main+0x930>)
 8003320:	f003 ffb2 	bl	8007288 <sniprintf>
 8003324:	f640 30b8 	movw	r0, #3000	@ 0xbb8
 8003328:	f7fe fa5e 	bl	80017e8 <SIM_Wakeup>
 800332c:	b118      	cbz	r0, 8003336 <main+0x812>
 800332e:	494a      	ldr	r1, [pc, #296]	@ (8003458 <main+0x934>)
 8003330:	483d      	ldr	r0, [pc, #244]	@ (8003428 <main+0x904>)
 8003332:	f7ff fad7 	bl	80028e4 <LOG>
 8003336:	f241 3288 	movw	r2, #5000	@ 0x1388
 800333a:	4948      	ldr	r1, [pc, #288]	@ (800345c <main+0x938>)
 800333c:	4845      	ldr	r0, [pc, #276]	@ (8003454 <main+0x930>)
 800333e:	f7fe f981 	bl	8001644 <SIMCom_Post>
 8003342:	b9e8      	cbnz	r0, 8003380 <main+0x85c>
 8003344:	4946      	ldr	r1, [pc, #280]	@ (8003460 <main+0x93c>)
 8003346:	4847      	ldr	r0, [pc, #284]	@ (8003464 <main+0x940>)
 8003348:	f004 f841 	bl	80073ce <strstr>
 800334c:	b178      	cbz	r0, 800336e <main+0x84a>
 800334e:	4946      	ldr	r1, [pc, #280]	@ (8003468 <main+0x944>)
 8003350:	4835      	ldr	r0, [pc, #212]	@ (8003428 <main+0x904>)
 8003352:	f7ff fac7 	bl	80028e4 <LOG>
 8003356:	f640 30b8 	movw	r0, #3000	@ 0xbb8
 800335a:	f7fe f9f5 	bl	8001748 <SIM_Sleep>
 800335e:	4943      	ldr	r1, [pc, #268]	@ (800346c <main+0x948>)
 8003360:	4831      	ldr	r0, [pc, #196]	@ (8003428 <main+0x904>)
 8003362:	f7ff fabf 	bl	80028e4 <LOG>
 8003366:	2307      	movs	r3, #7
 8003368:	f889 3000 	strb.w	r3, [r9]
 800336c:	e77c      	b.n	8003268 <main+0x744>
 800336e:	4940      	ldr	r1, [pc, #256]	@ (8003470 <main+0x94c>)
 8003370:	483c      	ldr	r0, [pc, #240]	@ (8003464 <main+0x940>)
 8003372:	f004 f82c 	bl	80073ce <strstr>
 8003376:	b108      	cbz	r0, 800337c <main+0x858>
 8003378:	493e      	ldr	r1, [pc, #248]	@ (8003474 <main+0x950>)
 800337a:	e7e9      	b.n	8003350 <main+0x82c>
 800337c:	493e      	ldr	r1, [pc, #248]	@ (8003478 <main+0x954>)
 800337e:	e7e7      	b.n	8003350 <main+0x82c>
 8003380:	4935      	ldr	r1, [pc, #212]	@ (8003458 <main+0x934>)
 8003382:	e7e5      	b.n	8003350 <main+0x82c>
 8003384:	493d      	ldr	r1, [pc, #244]	@ (800347c <main+0x958>)
 8003386:	e68f      	b.n	80030a8 <main+0x584>
 8003388:	493d      	ldr	r1, [pc, #244]	@ (8003480 <main+0x95c>)
 800338a:	4827      	ldr	r0, [pc, #156]	@ (8003428 <main+0x904>)
 800338c:	f7ff faaa 	bl	80028e4 <LOG>
 8003390:	2201      	movs	r2, #1
 8003392:	2180      	movs	r1, #128	@ 0x80
 8003394:	4820      	ldr	r0, [pc, #128]	@ (8003418 <main+0x8f4>)
 8003396:	f001 f905 	bl	80045a4 <HAL_GPIO_WritePin>
 800339a:	e504      	b.n	8002da6 <main+0x282>
 800339c:	4939      	ldr	r1, [pc, #228]	@ (8003484 <main+0x960>)
 800339e:	4822      	ldr	r0, [pc, #136]	@ (8003428 <main+0x904>)
 80033a0:	f7ff faa0 	bl	80028e4 <LOG>
 80033a4:	2200      	movs	r2, #0
 80033a6:	e7f4      	b.n	8003392 <main+0x86e>
 80033a8:	4937      	ldr	r1, [pc, #220]	@ (8003488 <main+0x964>)
 80033aa:	481f      	ldr	r0, [pc, #124]	@ (8003428 <main+0x904>)
 80033ac:	f7ff fa9a 	bl	80028e4 <LOG>
 80033b0:	2200      	movs	r2, #0
 80033b2:	f44f 4180 	mov.w	r1, #16384	@ 0x4000
 80033b6:	4815      	ldr	r0, [pc, #84]	@ (800340c <main+0x8e8>)
 80033b8:	f001 f8f4 	bl	80045a4 <HAL_GPIO_WritePin>
 80033bc:	2200      	movs	r2, #0
 80033be:	f44f 4100 	mov.w	r1, #32768	@ 0x8000
 80033c2:	4812      	ldr	r0, [pc, #72]	@ (800340c <main+0x8e8>)
 80033c4:	f001 f8ee 	bl	80045a4 <HAL_GPIO_WritePin>
 80033c8:	2201      	movs	r2, #1
 80033ca:	2102      	movs	r1, #2
 80033cc:	480f      	ldr	r0, [pc, #60]	@ (800340c <main+0x8e8>)
 80033ce:	e7e2      	b.n	8003396 <main+0x872>
 80033d0:	f7fe fa6a 	bl	80018a8 <Ultra_ReadDistance>
 80033d4:	f8df 806c 	ldr.w	r8, [pc, #108]	@ 8003444 <main+0x920>
 80033d8:	f8c8 0000 	str.w	r0, [r8]
 80033dc:	f7ff f85c 	bl	8002498 <Read_Voltage>
 80033e0:	4b19      	ldr	r3, [pc, #100]	@ (8003448 <main+0x924>)
 80033e2:	6018      	str	r0, [r3, #0]
 80033e4:	f7fd f820 	bl	8000428 <__aeabi_f2d>
 80033e8:	e9cd 0102 	strd	r0, r1, [sp, #8]
 80033ec:	f8d8 0000 	ldr.w	r0, [r8]
 80033f0:	f7fd f81a 	bl	8000428 <__aeabi_f2d>
 80033f4:	4a25      	ldr	r2, [pc, #148]	@ (800348c <main+0x968>)
 80033f6:	e9cd 0100 	strd	r0, r1, [sp]
 80033fa:	2196      	movs	r1, #150	@ 0x96
 80033fc:	4815      	ldr	r0, [pc, #84]	@ (8003454 <main+0x930>)
 80033fe:	f003 ff43 	bl	8007288 <sniprintf>
 8003402:	4914      	ldr	r1, [pc, #80]	@ (8003454 <main+0x930>)
 8003404:	4822      	ldr	r0, [pc, #136]	@ (8003490 <main+0x96c>)
 8003406:	f7ff fa6d 	bl	80028e4 <LOG>
 800340a:	e4cc      	b.n	8002da6 <main+0x282>
 800340c:	40010c00 	.word	0x40010c00
 8003410:	20000904 	.word	0x20000904
 8003414:	200008d4 	.word	0x200008d4
 8003418:	40010800 	.word	0x40010800
 800341c:	20000a4e 	.word	0x20000a4e
 8003420:	20000880 	.word	0x20000880
 8003424:	08009aeb 	.word	0x08009aeb
 8003428:	08009897 	.word	0x08009897
 800342c:	200007dc 	.word	0x200007dc
 8003430:	2000031d 	.word	0x2000031d
 8003434:	20000794 	.word	0x20000794
 8003438:	08009af5 	.word	0x08009af5
 800343c:	08009b01 	.word	0x08009b01
 8003440:	08009b08 	.word	0x08009b08
 8003444:	2000093c 	.word	0x2000093c
 8003448:	20000938 	.word	0x20000938
 800344c:	08009e3a 	.word	0x08009e3a
 8003450:	08009a90 	.word	0x08009a90
 8003454:	200009a4 	.word	0x200009a4
 8003458:	08009974 	.word	0x08009974
 800345c:	08009e0b 	.word	0x08009e0b
 8003460:	080099f0 	.word	0x080099f0
 8003464:	20000511 	.word	0x20000511
 8003468:	08009714 	.word	0x08009714
 800346c:	08009b0e 	.word	0x08009b0e
 8003470:	080099c0 	.word	0x080099c0
 8003474:	080099e0 	.word	0x080099e0
 8003478:	08009a87 	.word	0x08009a87
 800347c:	08009b13 	.word	0x08009b13
 8003480:	08009b1f 	.word	0x08009b1f
 8003484:	08009b2b 	.word	0x08009b2b
 8003488:	08009b36 	.word	0x08009b36
 800348c:	08009b4a 	.word	0x08009b4a
 8003490:	08009b6b 	.word	0x08009b6b
 8003494:	2200      	movs	r2, #0
 8003496:	2102      	movs	r1, #2
 8003498:	4847      	ldr	r0, [pc, #284]	@ (80035b8 <main+0xa94>)
 800349a:	f001 f883 	bl	80045a4 <HAL_GPIO_WritePin>
 800349e:	f44f 70fa 	mov.w	r0, #500	@ 0x1f4
 80034a2:	f000 fb85 	bl	8003bb0 <HAL_Delay>
 80034a6:	4631      	mov	r1, r6
 80034a8:	a808      	add	r0, sp, #32
 80034aa:	f7fe fc0f 	bl	8001ccc <VL53L0X_ReadDistance>
 80034ae:	f8df b10c 	ldr.w	fp, [pc, #268]	@ 80035bc <main+0xa98>
 80034b2:	f44f 63fa 	mov.w	r3, #2000	@ 0x7d0
 80034b6:	220a      	movs	r2, #10
 80034b8:	f8cb 0000 	str.w	r0, [fp]
 80034bc:	a914      	add	r1, sp, #80	@ 0x50
 80034be:	a80e      	add	r0, sp, #56	@ 0x38
 80034c0:	f7fd fefc 	bl	80012bc <HX711_Get_CombinedMass>
 80034c4:	f8df a0f8 	ldr.w	sl, [pc, #248]	@ 80035c0 <main+0xa9c>
 80034c8:	f44f 63fa 	mov.w	r3, #2000	@ 0x7d0
 80034cc:	220a      	movs	r2, #10
 80034ce:	f8ca 0000 	str.w	r0, [sl]
 80034d2:	a914      	add	r1, sp, #80	@ 0x50
 80034d4:	a80e      	add	r0, sp, #56	@ 0x38
 80034d6:	f7fd fef1 	bl	80012bc <HX711_Get_CombinedMass>
 80034da:	4b3a      	ldr	r3, [pc, #232]	@ (80035c4 <main+0xaa0>)
 80034dc:	f44f 62fa 	mov.w	r2, #2000	@ 0x7d0
 80034e0:	6018      	str	r0, [r3, #0]
 80034e2:	210a      	movs	r1, #10
 80034e4:	a80e      	add	r0, sp, #56	@ 0x38
 80034e6:	f7fd feb7 	bl	8001258 <HX711_Get_Value>
 80034ea:	f44f 62fa 	mov.w	r2, #2000	@ 0x7d0
 80034ee:	210a      	movs	r1, #10
 80034f0:	9007      	str	r0, [sp, #28]
 80034f2:	a814      	add	r0, sp, #80	@ 0x50
 80034f4:	f7fd feb0 	bl	8001258 <HX711_Get_Value>
 80034f8:	4680      	mov	r8, r0
 80034fa:	20dc      	movs	r0, #220	@ 0xdc
 80034fc:	f7ff f8a6 	bl	800264c <WATER_ReadLastOn_Quick>
 8003500:	f7fd fbcc 	bl	8000c9c <__aeabi_i2f>
 8003504:	f8df 90c0 	ldr.w	r9, [pc, #192]	@ 80035c8 <main+0xaa4>
 8003508:	2201      	movs	r2, #1
 800350a:	2102      	movs	r1, #2
 800350c:	f8c9 0000 	str.w	r0, [r9]
 8003510:	4829      	ldr	r0, [pc, #164]	@ (80035b8 <main+0xa94>)
 8003512:	f001 f847 	bl	80045a4 <HAL_GPIO_WritePin>
 8003516:	4640      	mov	r0, r8
 8003518:	f7fc ff86 	bl	8000428 <__aeabi_f2d>
 800351c:	e9cd 0104 	strd	r0, r1, [sp, #16]
 8003520:	9807      	ldr	r0, [sp, #28]
 8003522:	f7fc ff81 	bl	8000428 <__aeabi_f2d>
 8003526:	e9cd 0102 	strd	r0, r1, [sp, #8]
 800352a:	f8db 0000 	ldr.w	r0, [fp]
 800352e:	f7fc ff7b 	bl	8000428 <__aeabi_f2d>
 8003532:	4a26      	ldr	r2, [pc, #152]	@ (80035cc <main+0xaa8>)
 8003534:	e9cd 0100 	strd	r0, r1, [sp]
 8003538:	2164      	movs	r1, #100	@ 0x64
 800353a:	4825      	ldr	r0, [pc, #148]	@ (80035d0 <main+0xaac>)
 800353c:	f003 fea4 	bl	8007288 <sniprintf>
 8003540:	4b20      	ldr	r3, [pc, #128]	@ (80035c4 <main+0xaa0>)
 8003542:	6818      	ldr	r0, [r3, #0]
 8003544:	f7fc ff70 	bl	8000428 <__aeabi_f2d>
 8003548:	e9cd 0102 	strd	r0, r1, [sp, #8]
 800354c:	f8da 0000 	ldr.w	r0, [sl]
 8003550:	f7fc ff6a 	bl	8000428 <__aeabi_f2d>
 8003554:	4a1f      	ldr	r2, [pc, #124]	@ (80035d4 <main+0xab0>)
 8003556:	e9cd 0100 	strd	r0, r1, [sp]
 800355a:	2164      	movs	r1, #100	@ 0x64
 800355c:	481c      	ldr	r0, [pc, #112]	@ (80035d0 <main+0xaac>)
 800355e:	f003 fe93 	bl	8007288 <sniprintf>
 8003562:	491b      	ldr	r1, [pc, #108]	@ (80035d0 <main+0xaac>)
 8003564:	481c      	ldr	r0, [pc, #112]	@ (80035d8 <main+0xab4>)
 8003566:	f7ff f9bd 	bl	80028e4 <LOG>
 800356a:	f8d9 0000 	ldr.w	r0, [r9]
 800356e:	f7fc ff5b 	bl	8000428 <__aeabi_f2d>
 8003572:	4a1a      	ldr	r2, [pc, #104]	@ (80035dc <main+0xab8>)
 8003574:	e9cd 0100 	strd	r0, r1, [sp]
 8003578:	2164      	movs	r1, #100	@ 0x64
 800357a:	4815      	ldr	r0, [pc, #84]	@ (80035d0 <main+0xaac>)
 800357c:	f003 fe84 	bl	8007288 <sniprintf>
 8003580:	4913      	ldr	r1, [pc, #76]	@ (80035d0 <main+0xaac>)
 8003582:	4817      	ldr	r0, [pc, #92]	@ (80035e0 <main+0xabc>)
 8003584:	f7ff f9ae 	bl	80028e4 <LOG>
 8003588:	2211      	movs	r2, #17
 800358a:	4b16      	ldr	r3, [pc, #88]	@ (80035e4 <main+0xac0>)
 800358c:	701a      	strb	r2, [r3, #0]
 800358e:	e66b      	b.n	8003268 <main+0x744>
 8003590:	2200      	movs	r2, #0
 8003592:	f44f 4180 	mov.w	r1, #16384	@ 0x4000
 8003596:	4808      	ldr	r0, [pc, #32]	@ (80035b8 <main+0xa94>)
 8003598:	f001 f804 	bl	80045a4 <HAL_GPIO_WritePin>
 800359c:	2201      	movs	r2, #1
 800359e:	f44f 4100 	mov.w	r1, #32768	@ 0x8000
 80035a2:	4805      	ldr	r0, [pc, #20]	@ (80035b8 <main+0xa94>)
 80035a4:	e58e      	b.n	80030c4 <main+0x5a0>
 80035a6:	2201      	movs	r2, #1
 80035a8:	f44f 4180 	mov.w	r1, #16384	@ 0x4000
 80035ac:	4802      	ldr	r0, [pc, #8]	@ (80035b8 <main+0xa94>)
 80035ae:	f000 fff9 	bl	80045a4 <HAL_GPIO_WritePin>
 80035b2:	2200      	movs	r2, #0
 80035b4:	e7f3      	b.n	800359e <main+0xa7a>
 80035b6:	bf00      	nop
 80035b8:	40010c00 	.word	0x40010c00
 80035bc:	20000054 	.word	0x20000054
 80035c0:	20000050 	.word	0x20000050
 80035c4:	2000004c 	.word	0x2000004c
 80035c8:	20000044 	.word	0x20000044
 80035cc:	08009b70 	.word	0x08009b70
 80035d0:	20000940 	.word	0x20000940
 80035d4:	08009bae 	.word	0x08009bae
 80035d8:	08009897 	.word	0x08009897
 80035dc:	08009bdf 	.word	0x08009bdf
 80035e0:	08009964 	.word	0x08009964
 80035e4:	20000934 	.word	0x20000934

080035e8 <HAL_UARTEx_RxEventCallback>:
 80035e8:	6802      	ldr	r2, [r0, #0]
 80035ea:	4b0f      	ldr	r3, [pc, #60]	@ (8003628 <HAL_UARTEx_RxEventCallback+0x40>)
 80035ec:	b510      	push	{r4, lr}
 80035ee:	429a      	cmp	r2, r3
 80035f0:	4604      	mov	r4, r0
 80035f2:	d108      	bne.n	8003606 <HAL_UARTEx_RxEventCallback+0x1e>
 80035f4:	2201      	movs	r2, #1
 80035f6:	4b0d      	ldr	r3, [pc, #52]	@ (800362c <HAL_UARTEx_RxEventCallback+0x44>)
 80035f8:	490d      	ldr	r1, [pc, #52]	@ (8003630 <HAL_UARTEx_RxEventCallback+0x48>)
 80035fa:	701a      	strb	r2, [r3, #0]
 80035fc:	480d      	ldr	r0, [pc, #52]	@ (8003634 <HAL_UARTEx_RxEventCallback+0x4c>)
 80035fe:	f44f 72fa 	mov.w	r2, #500	@ 0x1f4
 8003602:	f003 f8f8 	bl	80067f6 <HAL_UARTEx_ReceiveToIdle_IT>
 8003606:	6822      	ldr	r2, [r4, #0]
 8003608:	4b0b      	ldr	r3, [pc, #44]	@ (8003638 <HAL_UARTEx_RxEventCallback+0x50>)
 800360a:	429a      	cmp	r2, r3
 800360c:	d10a      	bne.n	8003624 <HAL_UARTEx_RxEventCallback+0x3c>
 800360e:	e8bd 4010 	ldmia.w	sp!, {r4, lr}
 8003612:	2201      	movs	r2, #1
 8003614:	4b09      	ldr	r3, [pc, #36]	@ (800363c <HAL_UARTEx_RxEventCallback+0x54>)
 8003616:	490a      	ldr	r1, [pc, #40]	@ (8003640 <HAL_UARTEx_RxEventCallback+0x58>)
 8003618:	701a      	strb	r2, [r3, #0]
 800361a:	480a      	ldr	r0, [pc, #40]	@ (8003644 <HAL_UARTEx_RxEventCallback+0x5c>)
 800361c:	f44f 72fa 	mov.w	r2, #500	@ 0x1f4
 8003620:	f003 b8e9 	b.w	80067f6 <HAL_UARTEx_ReceiveToIdle_IT>
 8003624:	bd10      	pop	{r4, pc}
 8003626:	bf00      	nop
 8003628:	40013800 	.word	0x40013800
 800362c:	20000a4f 	.word	0x20000a4f
 8003630:	20000c44 	.word	0x20000c44
 8003634:	200007dc 	.word	0x200007dc
 8003638:	40004400 	.word	0x40004400
 800363c:	20000705 	.word	0x20000705
 8003640:	2000031d 	.word	0x2000031d
 8003644:	20000794 	.word	0x20000794

08003648 <HAL_GPIO_EXTI_Callback>:
 8003648:	f5b0 7f80 	cmp.w	r0, #256	@ 0x100
 800364c:	b508      	push	{r3, lr}
 800364e:	d10e      	bne.n	800366e <HAL_GPIO_EXTI_Callback+0x26>
 8003650:	4b07      	ldr	r3, [pc, #28]	@ (8003670 <HAL_GPIO_EXTI_Callback+0x28>)
 8003652:	781b      	ldrb	r3, [r3, #0]
 8003654:	b15b      	cbz	r3, 800366e <HAL_GPIO_EXTI_Callback+0x26>
 8003656:	f44f 72fa 	mov.w	r2, #500	@ 0x1f4
 800365a:	4906      	ldr	r1, [pc, #24]	@ (8003674 <HAL_GPIO_EXTI_Callback+0x2c>)
 800365c:	4806      	ldr	r0, [pc, #24]	@ (8003678 <HAL_GPIO_EXTI_Callback+0x30>)
 800365e:	f003 f8ca 	bl	80067f6 <HAL_UARTEx_ReceiveToIdle_IT>
 8003662:	2201      	movs	r2, #1
 8003664:	4b05      	ldr	r3, [pc, #20]	@ (800367c <HAL_GPIO_EXTI_Callback+0x34>)
 8003666:	701a      	strb	r2, [r3, #0]
 8003668:	2209      	movs	r2, #9
 800366a:	4b05      	ldr	r3, [pc, #20]	@ (8003680 <HAL_GPIO_EXTI_Callback+0x38>)
 800366c:	701a      	strb	r2, [r3, #0]
 800366e:	bd08      	pop	{r3, pc}
 8003670:	20000a4e 	.word	0x20000a4e
 8003674:	20000c44 	.word	0x20000c44
 8003678:	200007dc 	.word	0x200007dc
 800367c:	20000a4f 	.word	0x20000a4f
 8003680:	20000934 	.word	0x20000934

08003684 <HAL_RTC_AlarmAEventCallback>:
 8003684:	2201      	movs	r2, #1
 8003686:	4b05      	ldr	r3, [pc, #20]	@ (800369c <HAL_RTC_AlarmAEventCallback+0x18>)
 8003688:	701a      	strb	r2, [r3, #0]
 800368a:	2208      	movs	r2, #8
 800368c:	4b04      	ldr	r3, [pc, #16]	@ (80036a0 <HAL_RTC_AlarmAEventCallback+0x1c>)
 800368e:	701a      	strb	r2, [r3, #0]
 8003690:	2200      	movs	r2, #0
 8003692:	4611      	mov	r1, r2
 8003694:	4610      	mov	r0, r2
 8003696:	f7fd be81 	b.w	800139c <Set_RTC>
 800369a:	bf00      	nop
 800369c:	20000a4f 	.word	0x20000a4f
 80036a0:	20000934 	.word	0x20000934

080036a4 <HAL_MspInit>:
 80036a4:	4b0e      	ldr	r3, [pc, #56]	@ (80036e0 <HAL_MspInit+0x3c>)
 80036a6:	b082      	sub	sp, #8
 80036a8:	699a      	ldr	r2, [r3, #24]
 80036aa:	f042 0201 	orr.w	r2, r2, #1
 80036ae:	619a      	str	r2, [r3, #24]
 80036b0:	699a      	ldr	r2, [r3, #24]
 80036b2:	f002 0201 	and.w	r2, r2, #1
 80036b6:	9200      	str	r2, [sp, #0]
 80036b8:	9a00      	ldr	r2, [sp, #0]
 80036ba:	69da      	ldr	r2, [r3, #28]
 80036bc:	f042 5280 	orr.w	r2, r2, #268435456	@ 0x10000000
 80036c0:	61da      	str	r2, [r3, #28]
 80036c2:	69db      	ldr	r3, [r3, #28]
 80036c4:	4a07      	ldr	r2, [pc, #28]	@ (80036e4 <HAL_MspInit+0x40>)
 80036c6:	f003 5380 	and.w	r3, r3, #268435456	@ 0x10000000
 80036ca:	9301      	str	r3, [sp, #4]
 80036cc:	9b01      	ldr	r3, [sp, #4]
 80036ce:	6853      	ldr	r3, [r2, #4]
 80036d0:	f023 63e0 	bic.w	r3, r3, #117440512	@ 0x7000000
 80036d4:	f043 7300 	orr.w	r3, r3, #33554432	@ 0x2000000
 80036d8:	6053      	str	r3, [r2, #4]
 80036da:	b002      	add	sp, #8
 80036dc:	4770      	bx	lr
 80036de:	bf00      	nop
 80036e0:	40021000 	.word	0x40021000
 80036e4:	40010000 	.word	0x40010000

080036e8 <HAL_ADC_MspInit>:
 80036e8:	2210      	movs	r2, #16
 80036ea:	b510      	push	{r4, lr}
 80036ec:	4604      	mov	r4, r0
 80036ee:	b088      	sub	sp, #32
 80036f0:	eb0d 0002 	add.w	r0, sp, r2
 80036f4:	2100      	movs	r1, #0
 80036f6:	f003 fe40 	bl	800737a <memset>
 80036fa:	6823      	ldr	r3, [r4, #0]
 80036fc:	4a1b      	ldr	r2, [pc, #108]	@ (800376c <HAL_ADC_MspInit+0x84>)
 80036fe:	4293      	cmp	r3, r2
 8003700:	d11c      	bne.n	800373c <HAL_ADC_MspInit+0x54>
 8003702:	4b1b      	ldr	r3, [pc, #108]	@ (8003770 <HAL_ADC_MspInit+0x88>)
 8003704:	699a      	ldr	r2, [r3, #24]
 8003706:	f442 7200 	orr.w	r2, r2, #512	@ 0x200
 800370a:	619a      	str	r2, [r3, #24]
 800370c:	699a      	ldr	r2, [r3, #24]
 800370e:	f402 7200 	and.w	r2, r2, #512	@ 0x200
 8003712:	9200      	str	r2, [sp, #0]
 8003714:	9a00      	ldr	r2, [sp, #0]
 8003716:	699a      	ldr	r2, [r3, #24]
 8003718:	f042 0204 	orr.w	r2, r2, #4
 800371c:	619a      	str	r2, [r3, #24]
 800371e:	699b      	ldr	r3, [r3, #24]
 8003720:	f003 0304 	and.w	r3, r3, #4
 8003724:	9301      	str	r3, [sp, #4]
 8003726:	9b01      	ldr	r3, [sp, #4]
 8003728:	2301      	movs	r3, #1
 800372a:	9304      	str	r3, [sp, #16]
 800372c:	2303      	movs	r3, #3
 800372e:	4811      	ldr	r0, [pc, #68]	@ (8003774 <HAL_ADC_MspInit+0x8c>)
 8003730:	a904      	add	r1, sp, #16
 8003732:	9305      	str	r3, [sp, #20]
 8003734:	f000 fdee 	bl	8004314 <HAL_GPIO_Init>
 8003738:	b008      	add	sp, #32
 800373a:	bd10      	pop	{r4, pc}
 800373c:	4a0e      	ldr	r2, [pc, #56]	@ (8003778 <HAL_ADC_MspInit+0x90>)
 800373e:	4293      	cmp	r3, r2
 8003740:	d1fa      	bne.n	8003738 <HAL_ADC_MspInit+0x50>
 8003742:	4b0b      	ldr	r3, [pc, #44]	@ (8003770 <HAL_ADC_MspInit+0x88>)
 8003744:	699a      	ldr	r2, [r3, #24]
 8003746:	f442 6280 	orr.w	r2, r2, #1024	@ 0x400
 800374a:	619a      	str	r2, [r3, #24]
 800374c:	699a      	ldr	r2, [r3, #24]
 800374e:	f402 6280 	and.w	r2, r2, #1024	@ 0x400
 8003752:	9202      	str	r2, [sp, #8]
 8003754:	9a02      	ldr	r2, [sp, #8]
 8003756:	699a      	ldr	r2, [r3, #24]
 8003758:	f042 0204 	orr.w	r2, r2, #4
 800375c:	619a      	str	r2, [r3, #24]
 800375e:	699b      	ldr	r3, [r3, #24]
 8003760:	f003 0304 	and.w	r3, r3, #4
 8003764:	9303      	str	r3, [sp, #12]
 8003766:	9b03      	ldr	r3, [sp, #12]
 8003768:	2302      	movs	r3, #2
 800376a:	e7de      	b.n	800372a <HAL_ADC_MspInit+0x42>
 800376c:	40012400 	.word	0x40012400
 8003770:	40021000 	.word	0x40021000
 8003774:	40010800 	.word	0x40010800
 8003778:	40012800 	.word	0x40012800

0800377c <HAL_ADC_MspDeInit>:
 800377c:	6803      	ldr	r3, [r0, #0]
 800377e:	4a0c      	ldr	r2, [pc, #48]	@ (80037b0 <HAL_ADC_MspDeInit+0x34>)
 8003780:	4293      	cmp	r3, r2
 8003782:	d109      	bne.n	8003798 <HAL_ADC_MspDeInit+0x1c>
 8003784:	2101      	movs	r1, #1
 8003786:	f502 426c 	add.w	r2, r2, #60416	@ 0xec00
 800378a:	6993      	ldr	r3, [r2, #24]
 800378c:	f423 7300 	bic.w	r3, r3, #512	@ 0x200
 8003790:	6193      	str	r3, [r2, #24]
 8003792:	4808      	ldr	r0, [pc, #32]	@ (80037b4 <HAL_ADC_MspDeInit+0x38>)
 8003794:	f000 be92 	b.w	80044bc <HAL_GPIO_DeInit>
 8003798:	4a07      	ldr	r2, [pc, #28]	@ (80037b8 <HAL_ADC_MspDeInit+0x3c>)
 800379a:	4293      	cmp	r3, r2
 800379c:	d107      	bne.n	80037ae <HAL_ADC_MspDeInit+0x32>
 800379e:	f502 4268 	add.w	r2, r2, #59392	@ 0xe800
 80037a2:	6993      	ldr	r3, [r2, #24]
 80037a4:	2102      	movs	r1, #2
 80037a6:	f423 6380 	bic.w	r3, r3, #1024	@ 0x400
 80037aa:	6193      	str	r3, [r2, #24]
 80037ac:	e7f1      	b.n	8003792 <HAL_ADC_MspDeInit+0x16>
 80037ae:	4770      	bx	lr
 80037b0:	40012400 	.word	0x40012400
 80037b4:	40010800 	.word	0x40010800
 80037b8:	40012800 	.word	0x40012800

080037bc <HAL_I2C_MspInit>:
 80037bc:	b510      	push	{r4, lr}
 80037be:	4604      	mov	r4, r0
 80037c0:	b086      	sub	sp, #24
 80037c2:	2210      	movs	r2, #16
 80037c4:	2100      	movs	r1, #0
 80037c6:	a802      	add	r0, sp, #8
 80037c8:	f003 fdd7 	bl	800737a <memset>
 80037cc:	6822      	ldr	r2, [r4, #0]
 80037ce:	4b11      	ldr	r3, [pc, #68]	@ (8003814 <HAL_I2C_MspInit+0x58>)
 80037d0:	429a      	cmp	r2, r3
 80037d2:	d11c      	bne.n	800380e <HAL_I2C_MspInit+0x52>
 80037d4:	4c10      	ldr	r4, [pc, #64]	@ (8003818 <HAL_I2C_MspInit+0x5c>)
 80037d6:	22c0      	movs	r2, #192	@ 0xc0
 80037d8:	69a3      	ldr	r3, [r4, #24]
 80037da:	4810      	ldr	r0, [pc, #64]	@ (800381c <HAL_I2C_MspInit+0x60>)
 80037dc:	f043 0308 	orr.w	r3, r3, #8
 80037e0:	61a3      	str	r3, [r4, #24]
 80037e2:	69a3      	ldr	r3, [r4, #24]
 80037e4:	a902      	add	r1, sp, #8
 80037e6:	f003 0308 	and.w	r3, r3, #8
 80037ea:	9300      	str	r3, [sp, #0]
 80037ec:	9b00      	ldr	r3, [sp, #0]
 80037ee:	2312      	movs	r3, #18
 80037f0:	e9cd 2302 	strd	r2, r3, [sp, #8]
 80037f4:	2303      	movs	r3, #3
 80037f6:	9305      	str	r3, [sp, #20]
 80037f8:	f000 fd8c 	bl	8004314 <HAL_GPIO_Init>
 80037fc:	69e3      	ldr	r3, [r4, #28]
 80037fe:	f443 1300 	orr.w	r3, r3, #2097152	@ 0x200000
 8003802:	61e3      	str	r3, [r4, #28]
 8003804:	69e3      	ldr	r3, [r4, #28]
 8003806:	f403 1300 	and.w	r3, r3, #2097152	@ 0x200000
 800380a:	9301      	str	r3, [sp, #4]
 800380c:	9b01      	ldr	r3, [sp, #4]
 800380e:	b006      	add	sp, #24
 8003810:	bd10      	pop	{r4, pc}
 8003812:	bf00      	nop
 8003814:	40005400 	.word	0x40005400
 8003818:	40021000 	.word	0x40021000
 800381c:	40010c00 	.word	0x40010c00

08003820 <HAL_I2C_MspDeInit>:
 8003820:	b508      	push	{r3, lr}
 8003822:	6802      	ldr	r2, [r0, #0]
 8003824:	4b09      	ldr	r3, [pc, #36]	@ (800384c <HAL_I2C_MspDeInit+0x2c>)
 8003826:	429a      	cmp	r2, r3
 8003828:	d10e      	bne.n	8003848 <HAL_I2C_MspDeInit+0x28>
 800382a:	4a09      	ldr	r2, [pc, #36]	@ (8003850 <HAL_I2C_MspDeInit+0x30>)
 800382c:	2140      	movs	r1, #64	@ 0x40
 800382e:	69d3      	ldr	r3, [r2, #28]
 8003830:	4808      	ldr	r0, [pc, #32]	@ (8003854 <HAL_I2C_MspDeInit+0x34>)
 8003832:	f423 1300 	bic.w	r3, r3, #2097152	@ 0x200000
 8003836:	61d3      	str	r3, [r2, #28]
 8003838:	f000 fe40 	bl	80044bc <HAL_GPIO_DeInit>
 800383c:	e8bd 4008 	ldmia.w	sp!, {r3, lr}
 8003840:	2180      	movs	r1, #128	@ 0x80
 8003842:	4804      	ldr	r0, [pc, #16]	@ (8003854 <HAL_I2C_MspDeInit+0x34>)
 8003844:	f000 be3a 	b.w	80044bc <HAL_GPIO_DeInit>
 8003848:	bd08      	pop	{r3, pc}
 800384a:	bf00      	nop
 800384c:	40005400 	.word	0x40005400
 8003850:	40021000 	.word	0x40021000
 8003854:	40010c00 	.word	0x40010c00

08003858 <HAL_RTC_MspInit>:
 8003858:	b507      	push	{r0, r1, r2, lr}
 800385a:	4b15      	ldr	r3, [pc, #84]	@ (80038b0 <HAL_RTC_MspInit+0x58>)
 800385c:	6802      	ldr	r2, [r0, #0]
 800385e:	429a      	cmp	r2, r3
 8003860:	d122      	bne.n	80038a8 <HAL_RTC_MspInit+0x50>
 8003862:	f001 fcf9 	bl	8005258 <HAL_PWR_EnableBkUpAccess>
 8003866:	4b13      	ldr	r3, [pc, #76]	@ (80038b4 <HAL_RTC_MspInit+0x5c>)
 8003868:	2003      	movs	r0, #3
 800386a:	69da      	ldr	r2, [r3, #28]
 800386c:	f042 6200 	orr.w	r2, r2, #134217728	@ 0x8000000
 8003870:	61da      	str	r2, [r3, #28]
 8003872:	2201      	movs	r2, #1
 8003874:	69db      	ldr	r3, [r3, #28]
 8003876:	f003 6300 	and.w	r3, r3, #134217728	@ 0x8000000
 800387a:	9301      	str	r3, [sp, #4]
 800387c:	9b01      	ldr	r3, [sp, #4]
 800387e:	4b0e      	ldr	r3, [pc, #56]	@ (80038b8 <HAL_RTC_MspInit+0x60>)
 8003880:	f8c3 243c 	str.w	r2, [r3, #1084]	@ 0x43c
 8003884:	2200      	movs	r2, #0
 8003886:	4611      	mov	r1, r2
 8003888:	f000 fc8c 	bl	80041a4 <HAL_NVIC_SetPriority>
 800388c:	2003      	movs	r0, #3
 800388e:	f000 fcb9 	bl	8004204 <HAL_NVIC_EnableIRQ>
 8003892:	2200      	movs	r2, #0
 8003894:	2029      	movs	r0, #41	@ 0x29
 8003896:	4611      	mov	r1, r2
 8003898:	f000 fc84 	bl	80041a4 <HAL_NVIC_SetPriority>
 800389c:	2029      	movs	r0, #41	@ 0x29
 800389e:	b003      	add	sp, #12
 80038a0:	f85d eb04 	ldr.w	lr, [sp], #4
 80038a4:	f000 bcae 	b.w	8004204 <HAL_NVIC_EnableIRQ>
 80038a8:	b003      	add	sp, #12
 80038aa:	f85d fb04 	ldr.w	pc, [sp], #4
 80038ae:	bf00      	nop
 80038b0:	40002800 	.word	0x40002800
 80038b4:	40021000 	.word	0x40021000
 80038b8:	42420000 	.word	0x42420000

080038bc <HAL_TIM_Base_MspInit>:
 80038bc:	6802      	ldr	r2, [r0, #0]
 80038be:	4b08      	ldr	r3, [pc, #32]	@ (80038e0 <HAL_TIM_Base_MspInit+0x24>)
 80038c0:	b082      	sub	sp, #8
 80038c2:	429a      	cmp	r2, r3
 80038c4:	d10a      	bne.n	80038dc <HAL_TIM_Base_MspInit+0x20>
 80038c6:	f503 4364 	add.w	r3, r3, #58368	@ 0xe400
 80038ca:	699a      	ldr	r2, [r3, #24]
 80038cc:	f442 6200 	orr.w	r2, r2, #2048	@ 0x800
 80038d0:	619a      	str	r2, [r3, #24]
 80038d2:	699b      	ldr	r3, [r3, #24]
 80038d4:	f403 6300 	and.w	r3, r3, #2048	@ 0x800
 80038d8:	9301      	str	r3, [sp, #4]
 80038da:	9b01      	ldr	r3, [sp, #4]
 80038dc:	b002      	add	sp, #8
 80038de:	4770      	bx	lr
 80038e0:	40012c00 	.word	0x40012c00

080038e4 <HAL_UART_MspInit>:
 80038e4:	2210      	movs	r2, #16
 80038e6:	b510      	push	{r4, lr}
 80038e8:	4604      	mov	r4, r0
 80038ea:	b088      	sub	sp, #32
 80038ec:	eb0d 0002 	add.w	r0, sp, r2
 80038f0:	2100      	movs	r1, #0
 80038f2:	f003 fd42 	bl	800737a <memset>
 80038f6:	6823      	ldr	r3, [r4, #0]
 80038f8:	4a32      	ldr	r2, [pc, #200]	@ (80039c4 <HAL_UART_MspInit+0xe0>)
 80038fa:	4293      	cmp	r3, r2
 80038fc:	d131      	bne.n	8003962 <HAL_UART_MspInit+0x7e>
 80038fe:	4b32      	ldr	r3, [pc, #200]	@ (80039c8 <HAL_UART_MspInit+0xe4>)
 8003900:	f44f 7100 	mov.w	r1, #512	@ 0x200
 8003904:	699a      	ldr	r2, [r3, #24]
 8003906:	4831      	ldr	r0, [pc, #196]	@ (80039cc <HAL_UART_MspInit+0xe8>)
 8003908:	f442 4280 	orr.w	r2, r2, #16384	@ 0x4000
 800390c:	619a      	str	r2, [r3, #24]
 800390e:	699a      	ldr	r2, [r3, #24]
 8003910:	2400      	movs	r4, #0
 8003912:	f402 4280 	and.w	r2, r2, #16384	@ 0x4000
 8003916:	9200      	str	r2, [sp, #0]
 8003918:	9a00      	ldr	r2, [sp, #0]
 800391a:	699a      	ldr	r2, [r3, #24]
 800391c:	f042 0204 	orr.w	r2, r2, #4
 8003920:	619a      	str	r2, [r3, #24]
 8003922:	699b      	ldr	r3, [r3, #24]
 8003924:	f003 0304 	and.w	r3, r3, #4
 8003928:	9301      	str	r3, [sp, #4]
 800392a:	9b01      	ldr	r3, [sp, #4]
 800392c:	2302      	movs	r3, #2
 800392e:	e9cd 1304 	strd	r1, r3, [sp, #16]
 8003932:	2303      	movs	r3, #3
 8003934:	a904      	add	r1, sp, #16
 8003936:	9307      	str	r3, [sp, #28]
 8003938:	f000 fcec 	bl	8004314 <HAL_GPIO_Init>
 800393c:	f44f 6380 	mov.w	r3, #1024	@ 0x400
 8003940:	4822      	ldr	r0, [pc, #136]	@ (80039cc <HAL_UART_MspInit+0xe8>)
 8003942:	a904      	add	r1, sp, #16
 8003944:	e9cd 3404 	strd	r3, r4, [sp, #16]
 8003948:	9406      	str	r4, [sp, #24]
 800394a:	f000 fce3 	bl	8004314 <HAL_GPIO_Init>
 800394e:	2025      	movs	r0, #37	@ 0x25
 8003950:	4622      	mov	r2, r4
 8003952:	4621      	mov	r1, r4
 8003954:	f000 fc26 	bl	80041a4 <HAL_NVIC_SetPriority>
 8003958:	2025      	movs	r0, #37	@ 0x25
 800395a:	f000 fc53 	bl	8004204 <HAL_NVIC_EnableIRQ>
 800395e:	b008      	add	sp, #32
 8003960:	bd10      	pop	{r4, pc}
 8003962:	4a1b      	ldr	r2, [pc, #108]	@ (80039d0 <HAL_UART_MspInit+0xec>)
 8003964:	4293      	cmp	r3, r2
 8003966:	d1fa      	bne.n	800395e <HAL_UART_MspInit+0x7a>
 8003968:	4b17      	ldr	r3, [pc, #92]	@ (80039c8 <HAL_UART_MspInit+0xe4>)
 800396a:	4818      	ldr	r0, [pc, #96]	@ (80039cc <HAL_UART_MspInit+0xe8>)
 800396c:	69da      	ldr	r2, [r3, #28]
 800396e:	a904      	add	r1, sp, #16
 8003970:	f442 3200 	orr.w	r2, r2, #131072	@ 0x20000
 8003974:	61da      	str	r2, [r3, #28]
 8003976:	69da      	ldr	r2, [r3, #28]
 8003978:	2400      	movs	r4, #0
 800397a:	f402 3200 	and.w	r2, r2, #131072	@ 0x20000
 800397e:	9202      	str	r2, [sp, #8]
 8003980:	9a02      	ldr	r2, [sp, #8]
 8003982:	699a      	ldr	r2, [r3, #24]
 8003984:	f042 0204 	orr.w	r2, r2, #4
 8003988:	619a      	str	r2, [r3, #24]
 800398a:	699b      	ldr	r3, [r3, #24]
 800398c:	2204      	movs	r2, #4
 800398e:	f003 0304 	and.w	r3, r3, #4
 8003992:	9303      	str	r3, [sp, #12]
 8003994:	9b03      	ldr	r3, [sp, #12]
 8003996:	2302      	movs	r3, #2
 8003998:	e9cd 2304 	strd	r2, r3, [sp, #16]
 800399c:	2303      	movs	r3, #3
 800399e:	9307      	str	r3, [sp, #28]
 80039a0:	f000 fcb8 	bl	8004314 <HAL_GPIO_Init>
 80039a4:	2308      	movs	r3, #8
 80039a6:	4809      	ldr	r0, [pc, #36]	@ (80039cc <HAL_UART_MspInit+0xe8>)
 80039a8:	a904      	add	r1, sp, #16
 80039aa:	e9cd 3404 	strd	r3, r4, [sp, #16]
 80039ae:	9406      	str	r4, [sp, #24]
 80039b0:	f000 fcb0 	bl	8004314 <HAL_GPIO_Init>
 80039b4:	2026      	movs	r0, #38	@ 0x26
 80039b6:	4622      	mov	r2, r4
 80039b8:	4621      	mov	r1, r4
 80039ba:	f000 fbf3 	bl	80041a4 <HAL_NVIC_SetPriority>
 80039be:	2026      	movs	r0, #38	@ 0x26
 80039c0:	e7cb      	b.n	800395a <HAL_UART_MspInit+0x76>
 80039c2:	bf00      	nop
 80039c4:	40013800 	.word	0x40013800
 80039c8:	40021000 	.word	0x40021000
 80039cc:	40010800 	.word	0x40010800
 80039d0:	40004400 	.word	0x40004400

080039d4 <NMI_Handler>:
 80039d4:	e7fe      	b.n	80039d4 <NMI_Handler>

080039d6 <HardFault_Handler>:
 80039d6:	e7fe      	b.n	80039d6 <HardFault_Handler>

080039d8 <MemManage_Handler>:
 80039d8:	e7fe      	b.n	80039d8 <MemManage_Handler>

080039da <BusFault_Handler>:
 80039da:	e7fe      	b.n	80039da <BusFault_Handler>

080039dc <UsageFault_Handler>:
 80039dc:	e7fe      	b.n	80039dc <UsageFault_Handler>

080039de <SVC_Handler>:
 80039de:	4770      	bx	lr

080039e0 <DebugMon_Handler>:
 80039e0:	4770      	bx	lr

080039e2 <PendSV_Handler>:
 80039e2:	4770      	bx	lr

080039e4 <SysTick_Handler>:
 80039e4:	f000 b8d2 	b.w	8003b8c <HAL_IncTick>

080039e8 <RTC_IRQHandler>:
 80039e8:	4801      	ldr	r0, [pc, #4]	@ (80039f0 <RTC_IRQHandler+0x8>)
 80039ea:	f002 baaf 	b.w	8005f4c <HAL_RTCEx_RTCIRQHandler>
 80039ee:	bf00      	nop
 80039f0:	2000086c 	.word	0x2000086c

080039f4 <EXTI9_5_IRQHandler>:
 80039f4:	f44f 7080 	mov.w	r0, #256	@ 0x100
 80039f8:	f000 bdda 	b.w	80045b0 <HAL_GPIO_EXTI_IRQHandler>

080039fc <USART1_IRQHandler>:
 80039fc:	4801      	ldr	r0, [pc, #4]	@ (8003a04 <USART1_IRQHandler+0x8>)
 80039fe:	f002 bd97 	b.w	8006530 <HAL_UART_IRQHandler>
 8003a02:	bf00      	nop
 8003a04:	200007dc 	.word	0x200007dc

08003a08 <USART2_IRQHandler>:
 8003a08:	4801      	ldr	r0, [pc, #4]	@ (8003a10 <USART2_IRQHandler+0x8>)
 8003a0a:	f002 bd91 	b.w	8006530 <HAL_UART_IRQHandler>
 8003a0e:	bf00      	nop
 8003a10:	20000794 	.word	0x20000794

08003a14 <RTC_Alarm_IRQHandler>:
 8003a14:	4801      	ldr	r0, [pc, #4]	@ (8003a1c <RTC_Alarm_IRQHandler+0x8>)
 8003a16:	f002 ba1b 	b.w	8005e50 <HAL_RTC_AlarmIRQHandler>
 8003a1a:	bf00      	nop
 8003a1c:	2000086c 	.word	0x2000086c

08003a20 <_getpid>:
 8003a20:	2001      	movs	r0, #1
 8003a22:	4770      	bx	lr

08003a24 <_kill>:
 8003a24:	b508      	push	{r3, lr}
 8003a26:	f003 fd33 	bl	8007490 <__errno>
 8003a2a:	2316      	movs	r3, #22
 8003a2c:	6003      	str	r3, [r0, #0]
 8003a2e:	f04f 30ff 	mov.w	r0, #4294967295
 8003a32:	bd08      	pop	{r3, pc}

08003a34 <_exit>:
 8003a34:	b508      	push	{r3, lr}
 8003a36:	f003 fd2b 	bl	8007490 <__errno>
 8003a3a:	2316      	movs	r3, #22
 8003a3c:	6003      	str	r3, [r0, #0]
 8003a3e:	e7fe      	b.n	8003a3e <_exit+0xa>

08003a40 <_read>:
 8003a40:	b570      	push	{r4, r5, r6, lr}
 8003a42:	460d      	mov	r5, r1
 8003a44:	4614      	mov	r4, r2
 8003a46:	460e      	mov	r6, r1
 8003a48:	1b73      	subs	r3, r6, r5
 8003a4a:	429c      	cmp	r4, r3
 8003a4c:	dc01      	bgt.n	8003a52 <_read+0x12>
 8003a4e:	4620      	mov	r0, r4
 8003a50:	bd70      	pop	{r4, r5, r6, pc}
 8003a52:	f3af 8000 	nop.w
 8003a56:	f806 0b01 	strb.w	r0, [r6], #1
 8003a5a:	e7f5      	b.n	8003a48 <_read+0x8>

08003a5c <_write>:
 8003a5c:	b570      	push	{r4, r5, r6, lr}
 8003a5e:	460d      	mov	r5, r1
 8003a60:	4614      	mov	r4, r2
 8003a62:	460e      	mov	r6, r1
 8003a64:	1b73      	subs	r3, r6, r5
 8003a66:	429c      	cmp	r4, r3
 8003a68:	dc01      	bgt.n	8003a6e <_write+0x12>
 8003a6a:	4620      	mov	r0, r4
 8003a6c:	bd70      	pop	{r4, r5, r6, pc}
 8003a6e:	f816 0b01 	ldrb.w	r0, [r6], #1
 8003a72:	f3af 8000 	nop.w
 8003a76:	e7f5      	b.n	8003a64 <_write+0x8>

08003a78 <_close>:
 8003a78:	f04f 30ff 	mov.w	r0, #4294967295
 8003a7c:	4770      	bx	lr

08003a7e <_fstat>:
 8003a7e:	f44f 5300 	mov.w	r3, #8192	@ 0x2000
 8003a82:	2000      	movs	r0, #0
 8003a84:	604b      	str	r3, [r1, #4]
 8003a86:	4770      	bx	lr

08003a88 <_isatty>:
 8003a88:	2001      	movs	r0, #1
 8003a8a:	4770      	bx	lr

08003a8c <_lseek>:
 8003a8c:	2000      	movs	r0, #0
 8003a8e:	4770      	bx	lr

08003a90 <_sbrk>:
 8003a90:	4a0b      	ldr	r2, [pc, #44]	@ (8003ac0 <_sbrk+0x30>)
 8003a92:	4603      	mov	r3, r0
 8003a94:	6811      	ldr	r1, [r2, #0]
 8003a96:	b510      	push	{r4, lr}
 8003a98:	b909      	cbnz	r1, 8003a9e <_sbrk+0xe>
 8003a9a:	490a      	ldr	r1, [pc, #40]	@ (8003ac4 <_sbrk+0x34>)
 8003a9c:	6011      	str	r1, [r2, #0]
 8003a9e:	6810      	ldr	r0, [r2, #0]
 8003aa0:	4909      	ldr	r1, [pc, #36]	@ (8003ac8 <_sbrk+0x38>)
 8003aa2:	4c0a      	ldr	r4, [pc, #40]	@ (8003acc <_sbrk+0x3c>)
 8003aa4:	4403      	add	r3, r0
 8003aa6:	1b09      	subs	r1, r1, r4
 8003aa8:	428b      	cmp	r3, r1
 8003aaa:	d906      	bls.n	8003aba <_sbrk+0x2a>
 8003aac:	f003 fcf0 	bl	8007490 <__errno>
 8003ab0:	230c      	movs	r3, #12
 8003ab2:	6003      	str	r3, [r0, #0]
 8003ab4:	f04f 30ff 	mov.w	r0, #4294967295
 8003ab8:	bd10      	pop	{r4, pc}
 8003aba:	6013      	str	r3, [r2, #0]
 8003abc:	e7fc      	b.n	8003ab8 <_sbrk+0x28>
 8003abe:	bf00      	nop
 8003ac0:	20000e3c 	.word	0x20000e3c
 8003ac4:	20000f90 	.word	0x20000f90
 8003ac8:	20005000 	.word	0x20005000
 8003acc:	00000400 	.word	0x00000400

08003ad0 <SystemInit>:
 8003ad0:	4770      	bx	lr
	...

08003ad4 <Reset_Handler>:
 8003ad4:	f7ff fffc 	bl	8003ad0 <SystemInit>
 8003ad8:	480b      	ldr	r0, [pc, #44]	@ (8003b08 <LoopFillZerobss+0xe>)
 8003ada:	490c      	ldr	r1, [pc, #48]	@ (8003b0c <LoopFillZerobss+0x12>)
 8003adc:	4a0c      	ldr	r2, [pc, #48]	@ (8003b10 <LoopFillZerobss+0x16>)
 8003ade:	2300      	movs	r3, #0
 8003ae0:	e002      	b.n	8003ae8 <LoopCopyDataInit>

08003ae2 <CopyDataInit>:
 8003ae2:	58d4      	ldr	r4, [r2, r3]
 8003ae4:	50c4      	str	r4, [r0, r3]
 8003ae6:	3304      	adds	r3, #4

08003ae8 <LoopCopyDataInit>:
 8003ae8:	18c4      	adds	r4, r0, r3
 8003aea:	428c      	cmp	r4, r1
 8003aec:	d3f9      	bcc.n	8003ae2 <CopyDataInit>
 8003aee:	4a09      	ldr	r2, [pc, #36]	@ (8003b14 <LoopFillZerobss+0x1a>)
 8003af0:	4c09      	ldr	r4, [pc, #36]	@ (8003b18 <LoopFillZerobss+0x1e>)
 8003af2:	2300      	movs	r3, #0
 8003af4:	e001      	b.n	8003afa <LoopFillZerobss>

08003af6 <FillZerobss>:
 8003af6:	6013      	str	r3, [r2, #0]
 8003af8:	3204      	adds	r2, #4

08003afa <LoopFillZerobss>:
 8003afa:	42a2      	cmp	r2, r4
 8003afc:	d3fb      	bcc.n	8003af6 <FillZerobss>
 8003afe:	f003 fccd 	bl	800749c <__libc_init_array>
 8003b02:	f7ff f80f 	bl	8002b24 <main>
 8003b06:	4770      	bx	lr
 8003b08:	20000000 	.word	0x20000000
 8003b0c:	2000022c 	.word	0x2000022c
 8003b10:	0800a094 	.word	0x0800a094
 8003b14:	2000022c 	.word	0x2000022c
 8003b18:	20000f90 	.word	0x20000f90

08003b1c <ADC1_2_IRQHandler>:
 8003b1c:	e7fe      	b.n	8003b1c <ADC1_2_IRQHandler>
	...

08003b20 <HAL_InitTick>:
 8003b20:	b538      	push	{r3, r4, r5, lr}
 8003b22:	4b0e      	ldr	r3, [pc, #56]	@ (8003b5c <HAL_InitTick+0x3c>)
 8003b24:	4605      	mov	r5, r0
 8003b26:	781a      	ldrb	r2, [r3, #0]
 8003b28:	f44f 737a 	mov.w	r3, #1000	@ 0x3e8
 8003b2c:	fbb3 f3f2 	udiv	r3, r3, r2
 8003b30:	4a0b      	ldr	r2, [pc, #44]	@ (8003b60 <HAL_InitTick+0x40>)
 8003b32:	6810      	ldr	r0, [r2, #0]
 8003b34:	fbb0 f0f3 	udiv	r0, r0, r3
 8003b38:	f000 fb72 	bl	8004220 <HAL_SYSTICK_Config>
 8003b3c:	4604      	mov	r4, r0
 8003b3e:	b958      	cbnz	r0, 8003b58 <HAL_InitTick+0x38>
 8003b40:	2d0f      	cmp	r5, #15
 8003b42:	d809      	bhi.n	8003b58 <HAL_InitTick+0x38>
 8003b44:	4602      	mov	r2, r0
 8003b46:	4629      	mov	r1, r5
 8003b48:	f04f 30ff 	mov.w	r0, #4294967295
 8003b4c:	f000 fb2a 	bl	80041a4 <HAL_NVIC_SetPriority>
 8003b50:	4620      	mov	r0, r4
 8003b52:	4b04      	ldr	r3, [pc, #16]	@ (8003b64 <HAL_InitTick+0x44>)
 8003b54:	601d      	str	r5, [r3, #0]
 8003b56:	bd38      	pop	{r3, r4, r5, pc}
 8003b58:	2001      	movs	r0, #1
 8003b5a:	e7fc      	b.n	8003b56 <HAL_InitTick+0x36>
 8003b5c:	2000005c 	.word	0x2000005c
 8003b60:	20000058 	.word	0x20000058
 8003b64:	20000060 	.word	0x20000060

08003b68 <HAL_Init>:
 8003b68:	4a07      	ldr	r2, [pc, #28]	@ (8003b88 <HAL_Init+0x20>)
 8003b6a:	b508      	push	{r3, lr}
 8003b6c:	6813      	ldr	r3, [r2, #0]
 8003b6e:	2003      	movs	r0, #3
 8003b70:	f043 0310 	orr.w	r3, r3, #16
 8003b74:	6013      	str	r3, [r2, #0]
 8003b76:	f000 fb03 	bl	8004180 <HAL_NVIC_SetPriorityGrouping>
 8003b7a:	200f      	movs	r0, #15
 8003b7c:	f7ff ffd0 	bl	8003b20 <HAL_InitTick>
 8003b80:	f7ff fd90 	bl	80036a4 <HAL_MspInit>
 8003b84:	2000      	movs	r0, #0
 8003b86:	bd08      	pop	{r3, pc}
 8003b88:	40022000 	.word	0x40022000

08003b8c <HAL_IncTick>:
 8003b8c:	4a03      	ldr	r2, [pc, #12]	@ (8003b9c <HAL_IncTick+0x10>)
 8003b8e:	4b04      	ldr	r3, [pc, #16]	@ (8003ba0 <HAL_IncTick+0x14>)
 8003b90:	6811      	ldr	r1, [r2, #0]
 8003b92:	781b      	ldrb	r3, [r3, #0]
 8003b94:	440b      	add	r3, r1
 8003b96:	6013      	str	r3, [r2, #0]
 8003b98:	4770      	bx	lr
 8003b9a:	bf00      	nop
 8003b9c:	20000e40 	.word	0x20000e40
 8003ba0:	2000005c 	.word	0x2000005c

08003ba4 <HAL_GetTick>:
 8003ba4:	4b01      	ldr	r3, [pc, #4]	@ (8003bac <HAL_GetTick+0x8>)
 8003ba6:	6818      	ldr	r0, [r3, #0]
 8003ba8:	4770      	bx	lr
 8003baa:	bf00      	nop
 8003bac:	20000e40 	.word	0x20000e40

08003bb0 <HAL_Delay>:
 8003bb0:	b538      	push	{r3, r4, r5, lr}
 8003bb2:	4604      	mov	r4, r0
 8003bb4:	f7ff fff6 	bl	8003ba4 <HAL_GetTick>
 8003bb8:	4605      	mov	r5, r0
 8003bba:	1c63      	adds	r3, r4, #1
 8003bbc:	bf1e      	ittt	ne
 8003bbe:	4b04      	ldrne	r3, [pc, #16]	@ (8003bd0 <HAL_Delay+0x20>)
 8003bc0:	781b      	ldrbne	r3, [r3, #0]
 8003bc2:	18e4      	addne	r4, r4, r3
 8003bc4:	f7ff ffee 	bl	8003ba4 <HAL_GetTick>
 8003bc8:	1b43      	subs	r3, r0, r5
 8003bca:	42a3      	cmp	r3, r4
 8003bcc:	d3fa      	bcc.n	8003bc4 <HAL_Delay+0x14>
 8003bce:	bd38      	pop	{r3, r4, r5, pc}
 8003bd0:	2000005c 	.word	0x2000005c

08003bd4 <HAL_SuspendTick>:
 8003bd4:	f04f 22e0 	mov.w	r2, #3758153728	@ 0xe000e000
 8003bd8:	6913      	ldr	r3, [r2, #16]
 8003bda:	f023 0302 	bic.w	r3, r3, #2
 8003bde:	6113      	str	r3, [r2, #16]
 8003be0:	4770      	bx	lr

08003be2 <HAL_ResumeTick>:
 8003be2:	f04f 22e0 	mov.w	r2, #3758153728	@ 0xe000e000
 8003be6:	6913      	ldr	r3, [r2, #16]
 8003be8:	f043 0302 	orr.w	r3, r3, #2
 8003bec:	6113      	str	r3, [r2, #16]
 8003bee:	4770      	bx	lr

08003bf0 <HAL_ADC_PollForConversion>:
 8003bf0:	b5f7      	push	{r0, r1, r2, r4, r5, r6, r7, lr}
 8003bf2:	2600      	movs	r6, #0
 8003bf4:	4604      	mov	r4, r0
 8003bf6:	460d      	mov	r5, r1
 8003bf8:	9601      	str	r6, [sp, #4]
 8003bfa:	f7ff ffd3 	bl	8003ba4 <HAL_GetTick>
 8003bfe:	6823      	ldr	r3, [r4, #0]
 8003c00:	4607      	mov	r7, r0
 8003c02:	689a      	ldr	r2, [r3, #8]
 8003c04:	05d1      	lsls	r1, r2, #23
 8003c06:	d508      	bpl.n	8003c1a <HAL_ADC_PollForConversion+0x2a>
 8003c08:	2001      	movs	r0, #1
 8003c0a:	6aa3      	ldr	r3, [r4, #40]	@ 0x28
 8003c0c:	f884 6024 	strb.w	r6, [r4, #36]	@ 0x24
 8003c10:	f043 0320 	orr.w	r3, r3, #32
 8003c14:	62a3      	str	r3, [r4, #40]	@ 0x28
 8003c16:	b003      	add	sp, #12
 8003c18:	bdf0      	pop	{r4, r5, r6, r7, pc}
 8003c1a:	685a      	ldr	r2, [r3, #4]
 8003c1c:	05d2      	lsls	r2, r2, #23
 8003c1e:	d403      	bmi.n	8003c28 <HAL_ADC_PollForConversion+0x38>
 8003c20:	6adb      	ldr	r3, [r3, #44]	@ 0x2c
 8003c22:	f413 0f70 	tst.w	r3, #15728640	@ 0xf00000
 8003c26:	d03d      	beq.n	8003ca4 <HAL_ADC_PollForConversion+0xb4>
 8003c28:	4b3d      	ldr	r3, [pc, #244]	@ (8003d20 <HAL_ADC_PollForConversion+0x130>)
 8003c2a:	2002      	movs	r0, #2
 8003c2c:	681e      	ldr	r6, [r3, #0]
 8003c2e:	f001 fe35 	bl	800589c <HAL_RCCEx_GetPeriphCLKFreq>
 8003c32:	6823      	ldr	r3, [r4, #0]
 8003c34:	4a3b      	ldr	r2, [pc, #236]	@ (8003d24 <HAL_ADC_PollForConversion+0x134>)
 8003c36:	6919      	ldr	r1, [r3, #16]
 8003c38:	fbb6 f6f0 	udiv	r6, r6, r0
 8003c3c:	4211      	tst	r1, r2
 8003c3e:	4a3a      	ldr	r2, [pc, #232]	@ (8003d28 <HAL_ADC_PollForConversion+0x138>)
 8003c40:	d151      	bne.n	8003ce6 <HAL_ADC_PollForConversion+0xf6>
 8003c42:	68d8      	ldr	r0, [r3, #12]
 8003c44:	4939      	ldr	r1, [pc, #228]	@ (8003d2c <HAL_ADC_PollForConversion+0x13c>)
 8003c46:	4208      	tst	r0, r1
 8003c48:	d14d      	bne.n	8003ce6 <HAL_ADC_PollForConversion+0xf6>
 8003c4a:	6919      	ldr	r1, [r3, #16]
 8003c4c:	4211      	tst	r1, r2
 8003c4e:	d15b      	bne.n	8003d08 <HAL_ADC_PollForConversion+0x118>
 8003c50:	68da      	ldr	r2, [r3, #12]
 8003c52:	4b37      	ldr	r3, [pc, #220]	@ (8003d30 <HAL_ADC_PollForConversion+0x140>)
 8003c54:	421a      	tst	r2, r3
 8003c56:	bf0c      	ite	eq
 8003c58:	2314      	moveq	r3, #20
 8003c5a:	2329      	movne	r3, #41	@ 0x29
 8003c5c:	435e      	muls	r6, r3
 8003c5e:	9b01      	ldr	r3, [sp, #4]
 8003c60:	42b3      	cmp	r3, r6
 8003c62:	d223      	bcs.n	8003cac <HAL_ADC_PollForConversion+0xbc>
 8003c64:	1c6a      	adds	r2, r5, #1
 8003c66:	d004      	beq.n	8003c72 <HAL_ADC_PollForConversion+0x82>
 8003c68:	2d00      	cmp	r5, #0
 8003c6a:	d153      	bne.n	8003d14 <HAL_ADC_PollForConversion+0x124>
 8003c6c:	9b01      	ldr	r3, [sp, #4]
 8003c6e:	42b3      	cmp	r3, r6
 8003c70:	d30a      	bcc.n	8003c88 <HAL_ADC_PollForConversion+0x98>
 8003c72:	9b01      	ldr	r3, [sp, #4]
 8003c74:	3301      	adds	r3, #1
 8003c76:	9301      	str	r3, [sp, #4]
 8003c78:	e7f1      	b.n	8003c5e <HAL_ADC_PollForConversion+0x6e>
 8003c7a:	1c6e      	adds	r6, r5, #1
 8003c7c:	d013      	beq.n	8003ca6 <HAL_ADC_PollForConversion+0xb6>
 8003c7e:	b965      	cbnz	r5, 8003c9a <HAL_ADC_PollForConversion+0xaa>
 8003c80:	6823      	ldr	r3, [r4, #0]
 8003c82:	681b      	ldr	r3, [r3, #0]
 8003c84:	0798      	lsls	r0, r3, #30
 8003c86:	d40d      	bmi.n	8003ca4 <HAL_ADC_PollForConversion+0xb4>
 8003c88:	6aa3      	ldr	r3, [r4, #40]	@ 0x28
 8003c8a:	2003      	movs	r0, #3
 8003c8c:	f043 0304 	orr.w	r3, r3, #4
 8003c90:	62a3      	str	r3, [r4, #40]	@ 0x28
 8003c92:	2300      	movs	r3, #0
 8003c94:	f884 3024 	strb.w	r3, [r4, #36]	@ 0x24
 8003c98:	e7bd      	b.n	8003c16 <HAL_ADC_PollForConversion+0x26>
 8003c9a:	f7ff ff83 	bl	8003ba4 <HAL_GetTick>
 8003c9e:	1bc0      	subs	r0, r0, r7
 8003ca0:	42a8      	cmp	r0, r5
 8003ca2:	d8ed      	bhi.n	8003c80 <HAL_ADC_PollForConversion+0x90>
 8003ca4:	6822      	ldr	r2, [r4, #0]
 8003ca6:	6813      	ldr	r3, [r2, #0]
 8003ca8:	0799      	lsls	r1, r3, #30
 8003caa:	d5e6      	bpl.n	8003c7a <HAL_ADC_PollForConversion+0x8a>
 8003cac:	f06f 0312 	mvn.w	r3, #18
 8003cb0:	6822      	ldr	r2, [r4, #0]
 8003cb2:	6013      	str	r3, [r2, #0]
 8003cb4:	6aa3      	ldr	r3, [r4, #40]	@ 0x28
 8003cb6:	f443 7300 	orr.w	r3, r3, #512	@ 0x200
 8003cba:	62a3      	str	r3, [r4, #40]	@ 0x28
 8003cbc:	6893      	ldr	r3, [r2, #8]
 8003cbe:	f403 2360 	and.w	r3, r3, #917504	@ 0xe0000
 8003cc2:	f5b3 2f60 	cmp.w	r3, #917504	@ 0xe0000
 8003cc6:	d10c      	bne.n	8003ce2 <HAL_ADC_PollForConversion+0xf2>
 8003cc8:	7b23      	ldrb	r3, [r4, #12]
 8003cca:	b953      	cbnz	r3, 8003ce2 <HAL_ADC_PollForConversion+0xf2>
 8003ccc:	6aa3      	ldr	r3, [r4, #40]	@ 0x28
 8003cce:	f423 7380 	bic.w	r3, r3, #256	@ 0x100
 8003cd2:	62a3      	str	r3, [r4, #40]	@ 0x28
 8003cd4:	6aa3      	ldr	r3, [r4, #40]	@ 0x28
 8003cd6:	04db      	lsls	r3, r3, #19
 8003cd8:	d403      	bmi.n	8003ce2 <HAL_ADC_PollForConversion+0xf2>
 8003cda:	6aa3      	ldr	r3, [r4, #40]	@ 0x28
 8003cdc:	f043 0301 	orr.w	r3, r3, #1
 8003ce0:	62a3      	str	r3, [r4, #40]	@ 0x28
 8003ce2:	2000      	movs	r0, #0
 8003ce4:	e797      	b.n	8003c16 <HAL_ADC_PollForConversion+0x26>
 8003ce6:	6919      	ldr	r1, [r3, #16]
 8003ce8:	4211      	tst	r1, r2
 8003cea:	d103      	bne.n	8003cf4 <HAL_ADC_PollForConversion+0x104>
 8003cec:	68d9      	ldr	r1, [r3, #12]
 8003cee:	4a10      	ldr	r2, [pc, #64]	@ (8003d30 <HAL_ADC_PollForConversion+0x140>)
 8003cf0:	4211      	tst	r1, r2
 8003cf2:	d00b      	beq.n	8003d0c <HAL_ADC_PollForConversion+0x11c>
 8003cf4:	6919      	ldr	r1, [r3, #16]
 8003cf6:	4a0f      	ldr	r2, [pc, #60]	@ (8003d34 <HAL_ADC_PollForConversion+0x144>)
 8003cf8:	4211      	tst	r1, r2
 8003cfa:	d109      	bne.n	8003d10 <HAL_ADC_PollForConversion+0x120>
 8003cfc:	68db      	ldr	r3, [r3, #12]
 8003cfe:	4213      	tst	r3, r2
 8003d00:	bf0c      	ite	eq
 8003d02:	2354      	moveq	r3, #84	@ 0x54
 8003d04:	23fc      	movne	r3, #252	@ 0xfc
 8003d06:	e7a9      	b.n	8003c5c <HAL_ADC_PollForConversion+0x6c>
 8003d08:	2329      	movs	r3, #41	@ 0x29
 8003d0a:	e7a7      	b.n	8003c5c <HAL_ADC_PollForConversion+0x6c>
 8003d0c:	2354      	movs	r3, #84	@ 0x54
 8003d0e:	e7a5      	b.n	8003c5c <HAL_ADC_PollForConversion+0x6c>
 8003d10:	23fc      	movs	r3, #252	@ 0xfc
 8003d12:	e7a3      	b.n	8003c5c <HAL_ADC_PollForConversion+0x6c>
 8003d14:	f7ff ff46 	bl	8003ba4 <HAL_GetTick>
 8003d18:	1bc0      	subs	r0, r0, r7
 8003d1a:	42a8      	cmp	r0, r5
 8003d1c:	d8a6      	bhi.n	8003c6c <HAL_ADC_PollForConversion+0x7c>
 8003d1e:	e7a8      	b.n	8003c72 <HAL_ADC_PollForConversion+0x82>
 8003d20:	20000058 	.word	0x20000058
 8003d24:	24924924 	.word	0x24924924
 8003d28:	12492492 	.word	0x12492492
 8003d2c:	00924924 	.word	0x00924924
 8003d30:	00492492 	.word	0x00492492
 8003d34:	00249249 	.word	0x00249249

08003d38 <HAL_ADC_GetValue>:
 8003d38:	6803      	ldr	r3, [r0, #0]
 8003d3a:	6cd8      	ldr	r0, [r3, #76]	@ 0x4c
 8003d3c:	4770      	bx	lr
	...

08003d40 <HAL_ADC_ConfigChannel>:
 8003d40:	2300      	movs	r3, #0
 8003d42:	b573      	push	{r0, r1, r4, r5, r6, lr}
 8003d44:	9301      	str	r3, [sp, #4]
 8003d46:	f890 3024 	ldrb.w	r3, [r0, #36]	@ 0x24
 8003d4a:	4604      	mov	r4, r0
 8003d4c:	2b01      	cmp	r3, #1
 8003d4e:	d06c      	beq.n	8003e2a <HAL_ADC_ConfigChannel+0xea>
 8003d50:	2301      	movs	r3, #1
 8003d52:	f880 3024 	strb.w	r3, [r0, #36]	@ 0x24
 8003d56:	684d      	ldr	r5, [r1, #4]
 8003d58:	6802      	ldr	r2, [r0, #0]
 8003d5a:	2d06      	cmp	r5, #6
 8003d5c:	6808      	ldr	r0, [r1, #0]
 8003d5e:	eb05 0385 	add.w	r3, r5, r5, lsl #2
 8003d62:	d822      	bhi.n	8003daa <HAL_ADC_ConfigChannel+0x6a>
 8003d64:	261f      	movs	r6, #31
 8003d66:	6b55      	ldr	r5, [r2, #52]	@ 0x34
 8003d68:	3b05      	subs	r3, #5
 8003d6a:	409e      	lsls	r6, r3
 8003d6c:	ea25 0506 	bic.w	r5, r5, r6
 8003d70:	fa00 f303 	lsl.w	r3, r0, r3
 8003d74:	432b      	orrs	r3, r5
 8003d76:	6353      	str	r3, [r2, #52]	@ 0x34
 8003d78:	2809      	cmp	r0, #9
 8003d7a:	688b      	ldr	r3, [r1, #8]
 8003d7c:	eb00 0540 	add.w	r5, r0, r0, lsl #1
 8003d80:	f04f 0107 	mov.w	r1, #7
 8003d84:	d929      	bls.n	8003dda <HAL_ADC_ConfigChannel+0x9a>
 8003d86:	68d6      	ldr	r6, [r2, #12]
 8003d88:	3d1e      	subs	r5, #30
 8003d8a:	40a9      	lsls	r1, r5
 8003d8c:	ea26 0101 	bic.w	r1, r6, r1
 8003d90:	40ab      	lsls	r3, r5
 8003d92:	430b      	orrs	r3, r1
 8003d94:	60d3      	str	r3, [r2, #12]
 8003d96:	f1a0 0310 	sub.w	r3, r0, #16
 8003d9a:	2b01      	cmp	r3, #1
 8003d9c:	d925      	bls.n	8003dea <HAL_ADC_ConfigChannel+0xaa>
 8003d9e:	2000      	movs	r0, #0
 8003da0:	2300      	movs	r3, #0
 8003da2:	f884 3024 	strb.w	r3, [r4, #36]	@ 0x24
 8003da6:	b002      	add	sp, #8
 8003da8:	bd70      	pop	{r4, r5, r6, pc}
 8003daa:	2d0c      	cmp	r5, #12
 8003dac:	f04f 051f 	mov.w	r5, #31
 8003db0:	d809      	bhi.n	8003dc6 <HAL_ADC_ConfigChannel+0x86>
 8003db2:	6b16      	ldr	r6, [r2, #48]	@ 0x30
 8003db4:	3b23      	subs	r3, #35	@ 0x23
 8003db6:	409d      	lsls	r5, r3
 8003db8:	ea26 0505 	bic.w	r5, r6, r5
 8003dbc:	fa00 f303 	lsl.w	r3, r0, r3
 8003dc0:	432b      	orrs	r3, r5
 8003dc2:	6313      	str	r3, [r2, #48]	@ 0x30
 8003dc4:	e7d8      	b.n	8003d78 <HAL_ADC_ConfigChannel+0x38>
 8003dc6:	6ad6      	ldr	r6, [r2, #44]	@ 0x2c
 8003dc8:	3b41      	subs	r3, #65	@ 0x41
 8003dca:	409d      	lsls	r5, r3
 8003dcc:	ea26 0505 	bic.w	r5, r6, r5
 8003dd0:	fa00 f303 	lsl.w	r3, r0, r3
 8003dd4:	432b      	orrs	r3, r5
 8003dd6:	62d3      	str	r3, [r2, #44]	@ 0x2c
 8003dd8:	e7ce      	b.n	8003d78 <HAL_ADC_ConfigChannel+0x38>
 8003dda:	6910      	ldr	r0, [r2, #16]
 8003ddc:	40a9      	lsls	r1, r5
 8003dde:	ea20 0101 	bic.w	r1, r0, r1
 8003de2:	40ab      	lsls	r3, r5
 8003de4:	430b      	orrs	r3, r1
 8003de6:	6113      	str	r3, [r2, #16]
 8003de8:	e7d9      	b.n	8003d9e <HAL_ADC_ConfigChannel+0x5e>
 8003dea:	4b11      	ldr	r3, [pc, #68]	@ (8003e30 <HAL_ADC_ConfigChannel+0xf0>)
 8003dec:	429a      	cmp	r2, r3
 8003dee:	d116      	bne.n	8003e1e <HAL_ADC_ConfigChannel+0xde>
 8003df0:	6893      	ldr	r3, [r2, #8]
 8003df2:	021b      	lsls	r3, r3, #8
 8003df4:	d4d3      	bmi.n	8003d9e <HAL_ADC_ConfigChannel+0x5e>
 8003df6:	6893      	ldr	r3, [r2, #8]
 8003df8:	2810      	cmp	r0, #16
 8003dfa:	f443 0300 	orr.w	r3, r3, #8388608	@ 0x800000
 8003dfe:	6093      	str	r3, [r2, #8]
 8003e00:	d1cd      	bne.n	8003d9e <HAL_ADC_ConfigChannel+0x5e>
 8003e02:	4b0c      	ldr	r3, [pc, #48]	@ (8003e34 <HAL_ADC_ConfigChannel+0xf4>)
 8003e04:	4a0c      	ldr	r2, [pc, #48]	@ (8003e38 <HAL_ADC_ConfigChannel+0xf8>)
 8003e06:	681b      	ldr	r3, [r3, #0]
 8003e08:	fbb3 f3f2 	udiv	r3, r3, r2
 8003e0c:	220a      	movs	r2, #10
 8003e0e:	4353      	muls	r3, r2
 8003e10:	9301      	str	r3, [sp, #4]
 8003e12:	9b01      	ldr	r3, [sp, #4]
 8003e14:	2b00      	cmp	r3, #0
 8003e16:	d0c2      	beq.n	8003d9e <HAL_ADC_ConfigChannel+0x5e>
 8003e18:	9b01      	ldr	r3, [sp, #4]
 8003e1a:	3b01      	subs	r3, #1
 8003e1c:	e7f8      	b.n	8003e10 <HAL_ADC_ConfigChannel+0xd0>
 8003e1e:	6aa3      	ldr	r3, [r4, #40]	@ 0x28
 8003e20:	2001      	movs	r0, #1
 8003e22:	f043 0320 	orr.w	r3, r3, #32
 8003e26:	62a3      	str	r3, [r4, #40]	@ 0x28
 8003e28:	e7ba      	b.n	8003da0 <HAL_ADC_ConfigChannel+0x60>
 8003e2a:	2002      	movs	r0, #2
 8003e2c:	e7bb      	b.n	8003da6 <HAL_ADC_ConfigChannel+0x66>
 8003e2e:	bf00      	nop
 8003e30:	40012400 	.word	0x40012400
 8003e34:	20000058 	.word	0x20000058
 8003e38:	000f4240 	.word	0x000f4240

08003e3c <ADC_Enable>:
 8003e3c:	2300      	movs	r3, #0
 8003e3e:	b537      	push	{r0, r1, r2, r4, r5, lr}
 8003e40:	9301      	str	r3, [sp, #4]
 8003e42:	6803      	ldr	r3, [r0, #0]
 8003e44:	4604      	mov	r4, r0
 8003e46:	689a      	ldr	r2, [r3, #8]
 8003e48:	07d2      	lsls	r2, r2, #31
 8003e4a:	d502      	bpl.n	8003e52 <ADC_Enable+0x16>
 8003e4c:	2000      	movs	r0, #0
 8003e4e:	b003      	add	sp, #12
 8003e50:	bd30      	pop	{r4, r5, pc}
 8003e52:	689a      	ldr	r2, [r3, #8]
 8003e54:	f042 0201 	orr.w	r2, r2, #1
 8003e58:	609a      	str	r2, [r3, #8]
 8003e5a:	4b14      	ldr	r3, [pc, #80]	@ (8003eac <ADC_Enable+0x70>)
 8003e5c:	4a14      	ldr	r2, [pc, #80]	@ (8003eb0 <ADC_Enable+0x74>)
 8003e5e:	681b      	ldr	r3, [r3, #0]
 8003e60:	fbb3 f3f2 	udiv	r3, r3, r2
 8003e64:	9301      	str	r3, [sp, #4]
 8003e66:	9b01      	ldr	r3, [sp, #4]
 8003e68:	b9e3      	cbnz	r3, 8003ea4 <ADC_Enable+0x68>
 8003e6a:	f7ff fe9b 	bl	8003ba4 <HAL_GetTick>
 8003e6e:	4605      	mov	r5, r0
 8003e70:	6823      	ldr	r3, [r4, #0]
 8003e72:	689b      	ldr	r3, [r3, #8]
 8003e74:	07db      	lsls	r3, r3, #31
 8003e76:	d4e9      	bmi.n	8003e4c <ADC_Enable+0x10>
 8003e78:	f7ff fe94 	bl	8003ba4 <HAL_GetTick>
 8003e7c:	1b40      	subs	r0, r0, r5
 8003e7e:	2802      	cmp	r0, #2
 8003e80:	d9f6      	bls.n	8003e70 <ADC_Enable+0x34>
 8003e82:	6823      	ldr	r3, [r4, #0]
 8003e84:	689b      	ldr	r3, [r3, #8]
 8003e86:	f013 0301 	ands.w	r3, r3, #1
 8003e8a:	d1f1      	bne.n	8003e70 <ADC_Enable+0x34>
 8003e8c:	6aa2      	ldr	r2, [r4, #40]	@ 0x28
 8003e8e:	2001      	movs	r0, #1
 8003e90:	f042 0210 	orr.w	r2, r2, #16
 8003e94:	62a2      	str	r2, [r4, #40]	@ 0x28
 8003e96:	6ae2      	ldr	r2, [r4, #44]	@ 0x2c
 8003e98:	f884 3024 	strb.w	r3, [r4, #36]	@ 0x24
 8003e9c:	f042 0201 	orr.w	r2, r2, #1
 8003ea0:	62e2      	str	r2, [r4, #44]	@ 0x2c
 8003ea2:	e7d4      	b.n	8003e4e <ADC_Enable+0x12>
 8003ea4:	9b01      	ldr	r3, [sp, #4]
 8003ea6:	3b01      	subs	r3, #1
 8003ea8:	e7dc      	b.n	8003e64 <ADC_Enable+0x28>
 8003eaa:	bf00      	nop
 8003eac:	20000058 	.word	0x20000058
 8003eb0:	000f4240 	.word	0x000f4240

08003eb4 <HAL_ADC_Start>:
 8003eb4:	b510      	push	{r4, lr}
 8003eb6:	f890 3024 	ldrb.w	r3, [r0, #36]	@ 0x24
 8003eba:	4604      	mov	r4, r0
 8003ebc:	2b01      	cmp	r3, #1
 8003ebe:	d054      	beq.n	8003f6a <HAL_ADC_Start+0xb6>
 8003ec0:	2301      	movs	r3, #1
 8003ec2:	f880 3024 	strb.w	r3, [r0, #36]	@ 0x24
 8003ec6:	f7ff ffb9 	bl	8003e3c <ADC_Enable>
 8003eca:	2800      	cmp	r0, #0
 8003ecc:	d149      	bne.n	8003f62 <HAL_ADC_Start+0xae>
 8003ece:	6aa3      	ldr	r3, [r4, #40]	@ 0x28
 8003ed0:	4a27      	ldr	r2, [pc, #156]	@ (8003f70 <HAL_ADC_Start+0xbc>)
 8003ed2:	f423 7340 	bic.w	r3, r3, #768	@ 0x300
 8003ed6:	f023 0301 	bic.w	r3, r3, #1
 8003eda:	f443 7380 	orr.w	r3, r3, #256	@ 0x100
 8003ede:	62a3      	str	r3, [r4, #40]	@ 0x28
 8003ee0:	6823      	ldr	r3, [r4, #0]
 8003ee2:	4293      	cmp	r3, r2
 8003ee4:	d104      	bne.n	8003ef0 <HAL_ADC_Start+0x3c>
 8003ee6:	4923      	ldr	r1, [pc, #140]	@ (8003f74 <HAL_ADC_Start+0xc0>)
 8003ee8:	684a      	ldr	r2, [r1, #4]
 8003eea:	f412 2f70 	tst.w	r2, #983040	@ 0xf0000
 8003eee:	d12e      	bne.n	8003f4e <HAL_ADC_Start+0x9a>
 8003ef0:	6aa2      	ldr	r2, [r4, #40]	@ 0x28
 8003ef2:	f422 1280 	bic.w	r2, r2, #1048576	@ 0x100000
 8003ef6:	62a2      	str	r2, [r4, #40]	@ 0x28
 8003ef8:	685a      	ldr	r2, [r3, #4]
 8003efa:	0552      	lsls	r2, r2, #21
 8003efc:	bf41      	itttt	mi
 8003efe:	6aa2      	ldrmi	r2, [r4, #40]	@ 0x28
 8003f00:	f422 5240 	bicmi.w	r2, r2, #12288	@ 0x3000
 8003f04:	f442 5280 	orrmi.w	r2, r2, #4096	@ 0x1000
 8003f08:	62a2      	strmi	r2, [r4, #40]	@ 0x28
 8003f0a:	6aa2      	ldr	r2, [r4, #40]	@ 0x28
 8003f0c:	f412 5280 	ands.w	r2, r2, #4096	@ 0x1000
 8003f10:	bf1c      	itt	ne
 8003f12:	6ae2      	ldrne	r2, [r4, #44]	@ 0x2c
 8003f14:	f022 0206 	bicne.w	r2, r2, #6
 8003f18:	62e2      	str	r2, [r4, #44]	@ 0x2c
 8003f1a:	2200      	movs	r2, #0
 8003f1c:	f884 2024 	strb.w	r2, [r4, #36]	@ 0x24
 8003f20:	f06f 0202 	mvn.w	r2, #2
 8003f24:	601a      	str	r2, [r3, #0]
 8003f26:	689a      	ldr	r2, [r3, #8]
 8003f28:	f402 2260 	and.w	r2, r2, #917504	@ 0xe0000
 8003f2c:	f5b2 2f60 	cmp.w	r2, #917504	@ 0xe0000
 8003f30:	d113      	bne.n	8003f5a <HAL_ADC_Start+0xa6>
 8003f32:	4a0f      	ldr	r2, [pc, #60]	@ (8003f70 <HAL_ADC_Start+0xbc>)
 8003f34:	4293      	cmp	r3, r2
 8003f36:	d105      	bne.n	8003f44 <HAL_ADC_Start+0x90>
 8003f38:	f5a2 6280 	sub.w	r2, r2, #1024	@ 0x400
 8003f3c:	6852      	ldr	r2, [r2, #4]
 8003f3e:	f412 2f70 	tst.w	r2, #983040	@ 0xf0000
 8003f42:	d10a      	bne.n	8003f5a <HAL_ADC_Start+0xa6>
 8003f44:	689a      	ldr	r2, [r3, #8]
 8003f46:	f442 02a0 	orr.w	r2, r2, #5242880	@ 0x500000
 8003f4a:	609a      	str	r2, [r3, #8]
 8003f4c:	bd10      	pop	{r4, pc}
 8003f4e:	6aa2      	ldr	r2, [r4, #40]	@ 0x28
 8003f50:	f442 1280 	orr.w	r2, r2, #1048576	@ 0x100000
 8003f54:	62a2      	str	r2, [r4, #40]	@ 0x28
 8003f56:	684a      	ldr	r2, [r1, #4]
 8003f58:	e7cf      	b.n	8003efa <HAL_ADC_Start+0x46>
 8003f5a:	689a      	ldr	r2, [r3, #8]
 8003f5c:	f442 1280 	orr.w	r2, r2, #1048576	@ 0x100000
 8003f60:	e7f3      	b.n	8003f4a <HAL_ADC_Start+0x96>
 8003f62:	2300      	movs	r3, #0
 8003f64:	f884 3024 	strb.w	r3, [r4, #36]	@ 0x24
 8003f68:	e7f0      	b.n	8003f4c <HAL_ADC_Start+0x98>
 8003f6a:	2002      	movs	r0, #2
 8003f6c:	e7ee      	b.n	8003f4c <HAL_ADC_Start+0x98>
 8003f6e:	bf00      	nop
 8003f70:	40012800 	.word	0x40012800
 8003f74:	40012400 	.word	0x40012400

08003f78 <ADC_ConversionStop_Disable>:
 8003f78:	b538      	push	{r3, r4, r5, lr}
 8003f7a:	6803      	ldr	r3, [r0, #0]
 8003f7c:	4604      	mov	r4, r0
 8003f7e:	689a      	ldr	r2, [r3, #8]
 8003f80:	07d1      	lsls	r1, r2, #31
 8003f82:	d401      	bmi.n	8003f88 <ADC_ConversionStop_Disable+0x10>
 8003f84:	2000      	movs	r0, #0
 8003f86:	bd38      	pop	{r3, r4, r5, pc}
 8003f88:	689a      	ldr	r2, [r3, #8]
 8003f8a:	f022 0201 	bic.w	r2, r2, #1
 8003f8e:	609a      	str	r2, [r3, #8]
 8003f90:	f7ff fe08 	bl	8003ba4 <HAL_GetTick>
 8003f94:	4605      	mov	r5, r0
 8003f96:	6823      	ldr	r3, [r4, #0]
 8003f98:	689b      	ldr	r3, [r3, #8]
 8003f9a:	07db      	lsls	r3, r3, #31
 8003f9c:	d5f2      	bpl.n	8003f84 <ADC_ConversionStop_Disable+0xc>
 8003f9e:	f7ff fe01 	bl	8003ba4 <HAL_GetTick>
 8003fa2:	1b40      	subs	r0, r0, r5
 8003fa4:	2802      	cmp	r0, #2
 8003fa6:	d9f6      	bls.n	8003f96 <ADC_ConversionStop_Disable+0x1e>
 8003fa8:	6823      	ldr	r3, [r4, #0]
 8003faa:	689b      	ldr	r3, [r3, #8]
 8003fac:	07da      	lsls	r2, r3, #31
 8003fae:	d5f2      	bpl.n	8003f96 <ADC_ConversionStop_Disable+0x1e>
 8003fb0:	6aa3      	ldr	r3, [r4, #40]	@ 0x28
 8003fb2:	2001      	movs	r0, #1
 8003fb4:	f043 0310 	orr.w	r3, r3, #16
 8003fb8:	62a3      	str	r3, [r4, #40]	@ 0x28
 8003fba:	6ae3      	ldr	r3, [r4, #44]	@ 0x2c
 8003fbc:	f043 0301 	orr.w	r3, r3, #1
 8003fc0:	62e3      	str	r3, [r4, #44]	@ 0x2c
 8003fc2:	e7e0      	b.n	8003f86 <ADC_ConversionStop_Disable+0xe>

08003fc4 <HAL_ADC_Init>:
 8003fc4:	b5f8      	push	{r3, r4, r5, r6, r7, lr}
 8003fc6:	4604      	mov	r4, r0
 8003fc8:	2800      	cmp	r0, #0
 8003fca:	d06d      	beq.n	80040a8 <HAL_ADC_Init+0xe4>
 8003fcc:	6a83      	ldr	r3, [r0, #40]	@ 0x28
 8003fce:	b923      	cbnz	r3, 8003fda <HAL_ADC_Init+0x16>
 8003fd0:	62c3      	str	r3, [r0, #44]	@ 0x2c
 8003fd2:	f880 3024 	strb.w	r3, [r0, #36]	@ 0x24
 8003fd6:	f7ff fb87 	bl	80036e8 <HAL_ADC_MspInit>
 8003fda:	4620      	mov	r0, r4
 8003fdc:	f7ff ffcc 	bl	8003f78 <ADC_ConversionStop_Disable>
 8003fe0:	6aa3      	ldr	r3, [r4, #40]	@ 0x28
 8003fe2:	f013 0310 	ands.w	r3, r3, #16
 8003fe6:	d161      	bne.n	80040ac <HAL_ADC_Init+0xe8>
 8003fe8:	2800      	cmp	r0, #0
 8003fea:	d15f      	bne.n	80040ac <HAL_ADC_Init+0xe8>
 8003fec:	6aa2      	ldr	r2, [r4, #40]	@ 0x28
 8003fee:	6861      	ldr	r1, [r4, #4]
 8003ff0:	f422 5288 	bic.w	r2, r2, #4352	@ 0x1100
 8003ff4:	f022 0202 	bic.w	r2, r2, #2
 8003ff8:	f042 0202 	orr.w	r2, r2, #2
 8003ffc:	69e5      	ldr	r5, [r4, #28]
 8003ffe:	68a6      	ldr	r6, [r4, #8]
 8004000:	62a2      	str	r2, [r4, #40]	@ 0x28
 8004002:	7b22      	ldrb	r2, [r4, #12]
 8004004:	4329      	orrs	r1, r5
 8004006:	f5b6 7f80 	cmp.w	r6, #256	@ 0x100
 800400a:	ea41 0142 	orr.w	r1, r1, r2, lsl #1
 800400e:	d036      	beq.n	800407e <HAL_ADC_Init+0xba>
 8004010:	1e77      	subs	r7, r6, #1
 8004012:	427d      	negs	r5, r7
 8004014:	417d      	adcs	r5, r7
 8004016:	022d      	lsls	r5, r5, #8
 8004018:	7d27      	ldrb	r7, [r4, #20]
 800401a:	2f01      	cmp	r7, #1
 800401c:	d106      	bne.n	800402c <HAL_ADC_Init+0x68>
 800401e:	bb82      	cbnz	r2, 8004082 <HAL_ADC_Init+0xbe>
 8004020:	69a2      	ldr	r2, [r4, #24]
 8004022:	3a01      	subs	r2, #1
 8004024:	ea45 3242 	orr.w	r2, r5, r2, lsl #13
 8004028:	f442 6500 	orr.w	r5, r2, #2048	@ 0x800
 800402c:	6822      	ldr	r2, [r4, #0]
 800402e:	f5b6 7f80 	cmp.w	r6, #256	@ 0x100
 8004032:	6857      	ldr	r7, [r2, #4]
 8004034:	f427 4769 	bic.w	r7, r7, #59648	@ 0xe900
 8004038:	ea45 0507 	orr.w	r5, r5, r7
 800403c:	6055      	str	r5, [r2, #4]
 800403e:	6897      	ldr	r7, [r2, #8]
 8004040:	4d1d      	ldr	r5, [pc, #116]	@ (80040b8 <HAL_ADC_Init+0xf4>)
 8004042:	ea05 0507 	and.w	r5, r5, r7
 8004046:	ea45 0501 	orr.w	r5, r5, r1
 800404a:	6095      	str	r5, [r2, #8]
 800404c:	d001      	beq.n	8004052 <HAL_ADC_Init+0x8e>
 800404e:	2e01      	cmp	r6, #1
 8004050:	d102      	bne.n	8004058 <HAL_ADC_Init+0x94>
 8004052:	6923      	ldr	r3, [r4, #16]
 8004054:	3b01      	subs	r3, #1
 8004056:	051b      	lsls	r3, r3, #20
 8004058:	6ad5      	ldr	r5, [r2, #44]	@ 0x2c
 800405a:	f425 0570 	bic.w	r5, r5, #15728640	@ 0xf00000
 800405e:	432b      	orrs	r3, r5
 8004060:	62d3      	str	r3, [r2, #44]	@ 0x2c
 8004062:	6892      	ldr	r2, [r2, #8]
 8004064:	4b15      	ldr	r3, [pc, #84]	@ (80040bc <HAL_ADC_Init+0xf8>)
 8004066:	4013      	ands	r3, r2
 8004068:	4299      	cmp	r1, r3
 800406a:	d113      	bne.n	8004094 <HAL_ADC_Init+0xd0>
 800406c:	2300      	movs	r3, #0
 800406e:	62e3      	str	r3, [r4, #44]	@ 0x2c
 8004070:	6aa3      	ldr	r3, [r4, #40]	@ 0x28
 8004072:	f023 0303 	bic.w	r3, r3, #3
 8004076:	f043 0301 	orr.w	r3, r3, #1
 800407a:	62a3      	str	r3, [r4, #40]	@ 0x28
 800407c:	bdf8      	pop	{r3, r4, r5, r6, r7, pc}
 800407e:	4635      	mov	r5, r6
 8004080:	e7ca      	b.n	8004018 <HAL_ADC_Init+0x54>
 8004082:	6aa2      	ldr	r2, [r4, #40]	@ 0x28
 8004084:	f042 0220 	orr.w	r2, r2, #32
 8004088:	62a2      	str	r2, [r4, #40]	@ 0x28
 800408a:	6ae2      	ldr	r2, [r4, #44]	@ 0x2c
 800408c:	f042 0201 	orr.w	r2, r2, #1
 8004090:	62e2      	str	r2, [r4, #44]	@ 0x2c
 8004092:	e7cb      	b.n	800402c <HAL_ADC_Init+0x68>
 8004094:	6aa3      	ldr	r3, [r4, #40]	@ 0x28
 8004096:	f023 0312 	bic.w	r3, r3, #18
 800409a:	f043 0310 	orr.w	r3, r3, #16
 800409e:	62a3      	str	r3, [r4, #40]	@ 0x28
 80040a0:	6ae3      	ldr	r3, [r4, #44]	@ 0x2c
 80040a2:	f043 0301 	orr.w	r3, r3, #1
 80040a6:	62e3      	str	r3, [r4, #44]	@ 0x2c
 80040a8:	2001      	movs	r0, #1
 80040aa:	e7e7      	b.n	800407c <HAL_ADC_Init+0xb8>
 80040ac:	6aa3      	ldr	r3, [r4, #40]	@ 0x28
 80040ae:	f043 0310 	orr.w	r3, r3, #16
 80040b2:	62a3      	str	r3, [r4, #40]	@ 0x28
 80040b4:	e7f8      	b.n	80040a8 <HAL_ADC_Init+0xe4>
 80040b6:	bf00      	nop
 80040b8:	ffe1f7fd 	.word	0xffe1f7fd
 80040bc:	ff1f0efe 	.word	0xff1f0efe

080040c0 <HAL_ADC_DeInit>:
 80040c0:	b538      	push	{r3, r4, r5, lr}
 80040c2:	4604      	mov	r4, r0
 80040c4:	2800      	cmp	r0, #0
 80040c6:	d050      	beq.n	800416a <HAL_ADC_DeInit+0xaa>
 80040c8:	6a83      	ldr	r3, [r0, #40]	@ 0x28
 80040ca:	f043 0302 	orr.w	r3, r3, #2
 80040ce:	6283      	str	r3, [r0, #40]	@ 0x28
 80040d0:	f7ff ff52 	bl	8003f78 <ADC_ConversionStop_Disable>
 80040d4:	4605      	mov	r5, r0
 80040d6:	2800      	cmp	r0, #0
 80040d8:	d142      	bne.n	8004160 <HAL_ADC_DeInit+0xa0>
 80040da:	f06f 021f 	mvn.w	r2, #31
 80040de:	6823      	ldr	r3, [r4, #0]
 80040e0:	4620      	mov	r0, r4
 80040e2:	601a      	str	r2, [r3, #0]
 80040e4:	6859      	ldr	r1, [r3, #4]
 80040e6:	4a22      	ldr	r2, [pc, #136]	@ (8004170 <HAL_ADC_DeInit+0xb0>)
 80040e8:	400a      	ands	r2, r1
 80040ea:	605a      	str	r2, [r3, #4]
 80040ec:	6899      	ldr	r1, [r3, #8]
 80040ee:	4a21      	ldr	r2, [pc, #132]	@ (8004174 <HAL_ADC_DeInit+0xb4>)
 80040f0:	400a      	ands	r2, r1
 80040f2:	609a      	str	r2, [r3, #8]
 80040f4:	68da      	ldr	r2, [r3, #12]
 80040f6:	f002 427f 	and.w	r2, r2, #4278190080	@ 0xff000000
 80040fa:	60da      	str	r2, [r3, #12]
 80040fc:	691a      	ldr	r2, [r3, #16]
 80040fe:	f002 4240 	and.w	r2, r2, #3221225472	@ 0xc0000000
 8004102:	611a      	str	r2, [r3, #16]
 8004104:	6959      	ldr	r1, [r3, #20]
 8004106:	4a1c      	ldr	r2, [pc, #112]	@ (8004178 <HAL_ADC_DeInit+0xb8>)
 8004108:	4011      	ands	r1, r2
 800410a:	6159      	str	r1, [r3, #20]
 800410c:	6999      	ldr	r1, [r3, #24]
 800410e:	4011      	ands	r1, r2
 8004110:	6199      	str	r1, [r3, #24]
 8004112:	69d9      	ldr	r1, [r3, #28]
 8004114:	4011      	ands	r1, r2
 8004116:	61d9      	str	r1, [r3, #28]
 8004118:	6a19      	ldr	r1, [r3, #32]
 800411a:	4011      	ands	r1, r2
 800411c:	6219      	str	r1, [r3, #32]
 800411e:	6a59      	ldr	r1, [r3, #36]	@ 0x24
 8004120:	4011      	ands	r1, r2
 8004122:	6259      	str	r1, [r3, #36]	@ 0x24
 8004124:	6a99      	ldr	r1, [r3, #40]	@ 0x28
 8004126:	400a      	ands	r2, r1
 8004128:	629a      	str	r2, [r3, #40]	@ 0x28
 800412a:	6ada      	ldr	r2, [r3, #44]	@ 0x2c
 800412c:	4913      	ldr	r1, [pc, #76]	@ (800417c <HAL_ADC_DeInit+0xbc>)
 800412e:	f002 427f 	and.w	r2, r2, #4278190080	@ 0xff000000
 8004132:	62da      	str	r2, [r3, #44]	@ 0x2c
 8004134:	6ada      	ldr	r2, [r3, #44]	@ 0x2c
 8004136:	f002 427f 	and.w	r2, r2, #4278190080	@ 0xff000000
 800413a:	62da      	str	r2, [r3, #44]	@ 0x2c
 800413c:	6b1a      	ldr	r2, [r3, #48]	@ 0x30
 800413e:	f002 4240 	and.w	r2, r2, #3221225472	@ 0xc0000000
 8004142:	631a      	str	r2, [r3, #48]	@ 0x30
 8004144:	6b5a      	ldr	r2, [r3, #52]	@ 0x34
 8004146:	f002 4240 	and.w	r2, r2, #3221225472	@ 0xc0000000
 800414a:	635a      	str	r2, [r3, #52]	@ 0x34
 800414c:	6b9a      	ldr	r2, [r3, #56]	@ 0x38
 800414e:	400a      	ands	r2, r1
 8004150:	639a      	str	r2, [r3, #56]	@ 0x38
 8004152:	6b9a      	ldr	r2, [r3, #56]	@ 0x38
 8004154:	400a      	ands	r2, r1
 8004156:	639a      	str	r2, [r3, #56]	@ 0x38
 8004158:	f7ff fb10 	bl	800377c <HAL_ADC_MspDeInit>
 800415c:	62e5      	str	r5, [r4, #44]	@ 0x2c
 800415e:	62a5      	str	r5, [r4, #40]	@ 0x28
 8004160:	2300      	movs	r3, #0
 8004162:	f884 3024 	strb.w	r3, [r4, #36]	@ 0x24
 8004166:	4628      	mov	r0, r5
 8004168:	bd38      	pop	{r3, r4, r5, pc}
 800416a:	2501      	movs	r5, #1
 800416c:	e7fb      	b.n	8004166 <HAL_ADC_DeInit+0xa6>
 800416e:	bf00      	nop
 8004170:	ff3f0000 	.word	0xff3f0000
 8004174:	ff0106f0 	.word	0xff0106f0
 8004178:	fffff000 	.word	0xfffff000
 800417c:	ffc00000 	.word	0xffc00000

08004180 <HAL_NVIC_SetPriorityGrouping>:
 8004180:	4907      	ldr	r1, [pc, #28]	@ (80041a0 <HAL_NVIC_SetPriorityGrouping+0x20>)
 8004182:	0203      	lsls	r3, r0, #8
 8004184:	68ca      	ldr	r2, [r1, #12]
 8004186:	f403 63e0 	and.w	r3, r3, #1792	@ 0x700
 800418a:	f422 62e0 	bic.w	r2, r2, #1792	@ 0x700
 800418e:	0412      	lsls	r2, r2, #16
 8004190:	0c12      	lsrs	r2, r2, #16
 8004192:	4313      	orrs	r3, r2
 8004194:	f043 63bf 	orr.w	r3, r3, #100139008	@ 0x5f80000
 8004198:	f443 3300 	orr.w	r3, r3, #131072	@ 0x20000
 800419c:	60cb      	str	r3, [r1, #12]
 800419e:	4770      	bx	lr
 80041a0:	e000ed00 	.word	0xe000ed00

080041a4 <HAL_NVIC_SetPriority>:
 80041a4:	4b15      	ldr	r3, [pc, #84]	@ (80041fc <HAL_NVIC_SetPriority+0x58>)
 80041a6:	b530      	push	{r4, r5, lr}
 80041a8:	68dc      	ldr	r4, [r3, #12]
 80041aa:	f3c4 2402 	ubfx	r4, r4, #8, #3
 80041ae:	f1c4 0307 	rsb	r3, r4, #7
 80041b2:	1d25      	adds	r5, r4, #4
 80041b4:	2b04      	cmp	r3, #4
 80041b6:	bf28      	it	cs
 80041b8:	2304      	movcs	r3, #4
 80041ba:	2d06      	cmp	r5, #6
 80041bc:	f04f 35ff 	mov.w	r5, #4294967295
 80041c0:	bf94      	ite	ls
 80041c2:	2400      	movls	r4, #0
 80041c4:	3c03      	subhi	r4, #3
 80041c6:	fa05 f303 	lsl.w	r3, r5, r3
 80041ca:	ea21 0303 	bic.w	r3, r1, r3
 80041ce:	40a5      	lsls	r5, r4
 80041d0:	ea22 0205 	bic.w	r2, r2, r5
 80041d4:	40a3      	lsls	r3, r4
 80041d6:	2800      	cmp	r0, #0
 80041d8:	ea43 0302 	orr.w	r3, r3, r2
 80041dc:	bfac      	ite	ge
 80041de:	f100 4060 	addge.w	r0, r0, #3758096384	@ 0xe0000000
 80041e2:	4a07      	ldrlt	r2, [pc, #28]	@ (8004200 <HAL_NVIC_SetPriority+0x5c>)
 80041e4:	ea4f 1303 	mov.w	r3, r3, lsl #4
 80041e8:	b2db      	uxtb	r3, r3
 80041ea:	bfab      	itete	ge
 80041ec:	f500 4061 	addge.w	r0, r0, #57600	@ 0xe100
 80041f0:	f000 000f 	andlt.w	r0, r0, #15
 80041f4:	f880 3300 	strbge.w	r3, [r0, #768]	@ 0x300
 80041f8:	5413      	strblt	r3, [r2, r0]
 80041fa:	bd30      	pop	{r4, r5, pc}
 80041fc:	e000ed00 	.word	0xe000ed00
 8004200:	e000ed14 	.word	0xe000ed14

08004204 <HAL_NVIC_EnableIRQ>:
 8004204:	2800      	cmp	r0, #0
 8004206:	db07      	blt.n	8004218 <HAL_NVIC_EnableIRQ+0x14>
 8004208:	2301      	movs	r3, #1
 800420a:	0941      	lsrs	r1, r0, #5
 800420c:	4a03      	ldr	r2, [pc, #12]	@ (800421c <HAL_NVIC_EnableIRQ+0x18>)
 800420e:	f000 001f 	and.w	r0, r0, #31
 8004212:	4083      	lsls	r3, r0
 8004214:	f842 3021 	str.w	r3, [r2, r1, lsl #2]
 8004218:	4770      	bx	lr
 800421a:	bf00      	nop
 800421c:	e000e100 	.word	0xe000e100

08004220 <HAL_SYSTICK_Config>:
 8004220:	3801      	subs	r0, #1
 8004222:	f1b0 7f80 	cmp.w	r0, #16777216	@ 0x1000000
 8004226:	d20b      	bcs.n	8004240 <HAL_SYSTICK_Config+0x20>
 8004228:	f04f 23e0 	mov.w	r3, #3758153728	@ 0xe000e000
 800422c:	21f0      	movs	r1, #240	@ 0xf0
 800422e:	4a05      	ldr	r2, [pc, #20]	@ (8004244 <HAL_SYSTICK_Config+0x24>)
 8004230:	6158      	str	r0, [r3, #20]
 8004232:	f882 1023 	strb.w	r1, [r2, #35]	@ 0x23
 8004236:	2000      	movs	r0, #0
 8004238:	2207      	movs	r2, #7
 800423a:	6198      	str	r0, [r3, #24]
 800423c:	611a      	str	r2, [r3, #16]
 800423e:	4770      	bx	lr
 8004240:	2001      	movs	r0, #1
 8004242:	4770      	bx	lr
 8004244:	e000ed00 	.word	0xe000ed00

08004248 <HAL_DMA_Abort>:
 8004248:	f890 2021 	ldrb.w	r2, [r0, #33]	@ 0x21
 800424c:	4603      	mov	r3, r0
 800424e:	2a02      	cmp	r2, #2
 8004250:	d006      	beq.n	8004260 <HAL_DMA_Abort+0x18>
 8004252:	2204      	movs	r2, #4
 8004254:	6382      	str	r2, [r0, #56]	@ 0x38
 8004256:	2001      	movs	r0, #1
 8004258:	2200      	movs	r2, #0
 800425a:	f883 2020 	strb.w	r2, [r3, #32]
 800425e:	4770      	bx	lr
 8004260:	6802      	ldr	r2, [r0, #0]
 8004262:	6bc0      	ldr	r0, [r0, #60]	@ 0x3c
 8004264:	6811      	ldr	r1, [r2, #0]
 8004266:	f021 010e 	bic.w	r1, r1, #14
 800426a:	6011      	str	r1, [r2, #0]
 800426c:	6811      	ldr	r1, [r2, #0]
 800426e:	f021 0101 	bic.w	r1, r1, #1
 8004272:	6011      	str	r1, [r2, #0]
 8004274:	2101      	movs	r1, #1
 8004276:	6c1a      	ldr	r2, [r3, #64]	@ 0x40
 8004278:	fa01 f202 	lsl.w	r2, r1, r2
 800427c:	6042      	str	r2, [r0, #4]
 800427e:	2000      	movs	r0, #0
 8004280:	f883 1021 	strb.w	r1, [r3, #33]	@ 0x21
 8004284:	e7e8      	b.n	8004258 <HAL_DMA_Abort+0x10>
	...

08004288 <HAL_DMA_Abort_IT>:
 8004288:	b508      	push	{r3, lr}
 800428a:	f890 3021 	ldrb.w	r3, [r0, #33]	@ 0x21
 800428e:	2b02      	cmp	r3, #2
 8004290:	d003      	beq.n	800429a <HAL_DMA_Abort_IT+0x12>
 8004292:	2304      	movs	r3, #4
 8004294:	6383      	str	r3, [r0, #56]	@ 0x38
 8004296:	2001      	movs	r0, #1
 8004298:	bd08      	pop	{r3, pc}
 800429a:	6803      	ldr	r3, [r0, #0]
 800429c:	681a      	ldr	r2, [r3, #0]
 800429e:	f022 020e 	bic.w	r2, r2, #14
 80042a2:	601a      	str	r2, [r3, #0]
 80042a4:	681a      	ldr	r2, [r3, #0]
 80042a6:	f022 0201 	bic.w	r2, r2, #1
 80042aa:	601a      	str	r2, [r3, #0]
 80042ac:	4a17      	ldr	r2, [pc, #92]	@ (800430c <HAL_DMA_Abort_IT+0x84>)
 80042ae:	4293      	cmp	r3, r2
 80042b0:	d01f      	beq.n	80042f2 <HAL_DMA_Abort_IT+0x6a>
 80042b2:	3214      	adds	r2, #20
 80042b4:	4293      	cmp	r3, r2
 80042b6:	d01e      	beq.n	80042f6 <HAL_DMA_Abort_IT+0x6e>
 80042b8:	3214      	adds	r2, #20
 80042ba:	4293      	cmp	r3, r2
 80042bc:	d01d      	beq.n	80042fa <HAL_DMA_Abort_IT+0x72>
 80042be:	3214      	adds	r2, #20
 80042c0:	4293      	cmp	r3, r2
 80042c2:	d01d      	beq.n	8004300 <HAL_DMA_Abort_IT+0x78>
 80042c4:	3214      	adds	r2, #20
 80042c6:	4293      	cmp	r3, r2
 80042c8:	d01d      	beq.n	8004306 <HAL_DMA_Abort_IT+0x7e>
 80042ca:	3214      	adds	r2, #20
 80042cc:	4293      	cmp	r3, r2
 80042ce:	bf14      	ite	ne
 80042d0:	f04f 7380 	movne.w	r3, #16777216	@ 0x1000000
 80042d4:	f44f 1380 	moveq.w	r3, #1048576	@ 0x100000
 80042d8:	4a0d      	ldr	r2, [pc, #52]	@ (8004310 <HAL_DMA_Abort_IT+0x88>)
 80042da:	6053      	str	r3, [r2, #4]
 80042dc:	2301      	movs	r3, #1
 80042de:	f880 3021 	strb.w	r3, [r0, #33]	@ 0x21
 80042e2:	2300      	movs	r3, #0
 80042e4:	f880 3020 	strb.w	r3, [r0, #32]
 80042e8:	6b43      	ldr	r3, [r0, #52]	@ 0x34
 80042ea:	b103      	cbz	r3, 80042ee <HAL_DMA_Abort_IT+0x66>
 80042ec:	4798      	blx	r3
 80042ee:	2000      	movs	r0, #0
 80042f0:	e7d2      	b.n	8004298 <HAL_DMA_Abort_IT+0x10>
 80042f2:	2301      	movs	r3, #1
 80042f4:	e7f0      	b.n	80042d8 <HAL_DMA_Abort_IT+0x50>
 80042f6:	2310      	movs	r3, #16
 80042f8:	e7ee      	b.n	80042d8 <HAL_DMA_Abort_IT+0x50>
 80042fa:	f44f 7380 	mov.w	r3, #256	@ 0x100
 80042fe:	e7eb      	b.n	80042d8 <HAL_DMA_Abort_IT+0x50>
 8004300:	f44f 5380 	mov.w	r3, #4096	@ 0x1000
 8004304:	e7e8      	b.n	80042d8 <HAL_DMA_Abort_IT+0x50>
 8004306:	f44f 3380 	mov.w	r3, #65536	@ 0x10000
 800430a:	e7e5      	b.n	80042d8 <HAL_DMA_Abort_IT+0x50>
 800430c:	40020008 	.word	0x40020008
 8004310:	40020000 	.word	0x40020000

08004314 <HAL_GPIO_Init>:
 8004314:	e92d 4ff7 	stmdb	sp!, {r0, r1, r2, r4, r5, r6, r7, r8, r9, sl, fp, lr}
 8004318:	2400      	movs	r4, #0
 800431a:	f04f 0e0f 	mov.w	lr, #15
 800431e:	4626      	mov	r6, r4
 8004320:	f8df c184 	ldr.w	ip, [pc, #388]	@ 80044a8 <HAL_GPIO_Init+0x194>
 8004324:	4b61      	ldr	r3, [pc, #388]	@ (80044ac <HAL_GPIO_Init+0x198>)
 8004326:	f100 0804 	add.w	r8, r0, #4
 800432a:	680a      	ldr	r2, [r1, #0]
 800432c:	fa32 f506 	lsrs.w	r5, r2, r6
 8004330:	d102      	bne.n	8004338 <HAL_GPIO_Init+0x24>
 8004332:	b003      	add	sp, #12
 8004334:	e8bd 8ff0 	ldmia.w	sp!, {r4, r5, r6, r7, r8, r9, sl, fp, pc}
 8004338:	2501      	movs	r5, #1
 800433a:	fa05 f706 	lsl.w	r7, r5, r6
 800433e:	ea02 0507 	and.w	r5, r2, r7
 8004342:	ea37 0202 	bics.w	r2, r7, r2
 8004346:	d176      	bne.n	8004436 <HAL_GPIO_Init+0x122>
 8004348:	684a      	ldr	r2, [r1, #4]
 800434a:	2a03      	cmp	r2, #3
 800434c:	d807      	bhi.n	800435e <HAL_GPIO_Init+0x4a>
 800434e:	3a01      	subs	r2, #1
 8004350:	2a02      	cmp	r2, #2
 8004352:	f200 8083 	bhi.w	800445c <HAL_GPIO_Init+0x148>
 8004356:	e8df f002 	tbb	[pc, r2]
 800435a:	9691      	.short	0x9691
 800435c:	9c          	.byte	0x9c
 800435d:	00          	.byte	0x00
 800435e:	2a12      	cmp	r2, #18
 8004360:	f000 8094 	beq.w	800448c <HAL_GPIO_Init+0x178>
 8004364:	d869      	bhi.n	800443a <HAL_GPIO_Init+0x126>
 8004366:	2a11      	cmp	r2, #17
 8004368:	f000 808a 	beq.w	8004480 <HAL_GPIO_Init+0x16c>
 800436c:	2dff      	cmp	r5, #255	@ 0xff
 800436e:	bf94      	ite	ls
 8004370:	4681      	movls	r9, r0
 8004372:	46c1      	movhi	r9, r8
 8004374:	ea4f 0286 	mov.w	r2, r6, lsl #2
 8004378:	f8d9 7000 	ldr.w	r7, [r9]
 800437c:	bf88      	it	hi
 800437e:	3a20      	subhi	r2, #32
 8004380:	fa0e fa02 	lsl.w	sl, lr, r2
 8004384:	ea27 070a 	bic.w	r7, r7, sl
 8004388:	fa04 f202 	lsl.w	r2, r4, r2
 800438c:	4317      	orrs	r7, r2
 800438e:	f8c9 7000 	str.w	r7, [r9]
 8004392:	f8d1 9004 	ldr.w	r9, [r1, #4]
 8004396:	f019 5f80 	tst.w	r9, #268435456	@ 0x10000000
 800439a:	d04c      	beq.n	8004436 <HAL_GPIO_Init+0x122>
 800439c:	f8dc 2018 	ldr.w	r2, [ip, #24]
 80043a0:	f026 0703 	bic.w	r7, r6, #3
 80043a4:	f042 0201 	orr.w	r2, r2, #1
 80043a8:	f8cc 2018 	str.w	r2, [ip, #24]
 80043ac:	f8dc 2018 	ldr.w	r2, [ip, #24]
 80043b0:	f107 4780 	add.w	r7, r7, #1073741824	@ 0x40000000
 80043b4:	f002 0201 	and.w	r2, r2, #1
 80043b8:	9201      	str	r2, [sp, #4]
 80043ba:	f507 3780 	add.w	r7, r7, #65536	@ 0x10000
 80043be:	f006 0a03 	and.w	sl, r6, #3
 80043c2:	9a01      	ldr	r2, [sp, #4]
 80043c4:	ea4f 0a8a 	mov.w	sl, sl, lsl #2
 80043c8:	68ba      	ldr	r2, [r7, #8]
 80043ca:	fa0e fb0a 	lsl.w	fp, lr, sl
 80043ce:	ea22 0b0b 	bic.w	fp, r2, fp
 80043d2:	4a37      	ldr	r2, [pc, #220]	@ (80044b0 <HAL_GPIO_Init+0x19c>)
 80043d4:	4290      	cmp	r0, r2
 80043d6:	d060      	beq.n	800449a <HAL_GPIO_Init+0x186>
 80043d8:	f502 6280 	add.w	r2, r2, #1024	@ 0x400
 80043dc:	4290      	cmp	r0, r2
 80043de:	d05e      	beq.n	800449e <HAL_GPIO_Init+0x18a>
 80043e0:	f502 6280 	add.w	r2, r2, #1024	@ 0x400
 80043e4:	4290      	cmp	r0, r2
 80043e6:	d05c      	beq.n	80044a2 <HAL_GPIO_Init+0x18e>
 80043e8:	f502 6280 	add.w	r2, r2, #1024	@ 0x400
 80043ec:	4290      	cmp	r0, r2
 80043ee:	bf14      	ite	ne
 80043f0:	2204      	movne	r2, #4
 80043f2:	2203      	moveq	r2, #3
 80043f4:	fa02 f20a 	lsl.w	r2, r2, sl
 80043f8:	ea42 020b 	orr.w	r2, r2, fp
 80043fc:	60ba      	str	r2, [r7, #8]
 80043fe:	689a      	ldr	r2, [r3, #8]
 8004400:	f419 1f80 	tst.w	r9, #1048576	@ 0x100000
 8004404:	bf14      	ite	ne
 8004406:	432a      	orrne	r2, r5
 8004408:	43aa      	biceq	r2, r5
 800440a:	609a      	str	r2, [r3, #8]
 800440c:	68da      	ldr	r2, [r3, #12]
 800440e:	f419 1f00 	tst.w	r9, #2097152	@ 0x200000
 8004412:	bf14      	ite	ne
 8004414:	432a      	orrne	r2, r5
 8004416:	43aa      	biceq	r2, r5
 8004418:	60da      	str	r2, [r3, #12]
 800441a:	685a      	ldr	r2, [r3, #4]
 800441c:	f419 3f00 	tst.w	r9, #131072	@ 0x20000
 8004420:	bf14      	ite	ne
 8004422:	432a      	orrne	r2, r5
 8004424:	43aa      	biceq	r2, r5
 8004426:	605a      	str	r2, [r3, #4]
 8004428:	681a      	ldr	r2, [r3, #0]
 800442a:	f419 3f80 	tst.w	r9, #65536	@ 0x10000
 800442e:	bf14      	ite	ne
 8004430:	432a      	orrne	r2, r5
 8004432:	43aa      	biceq	r2, r5
 8004434:	601a      	str	r2, [r3, #0]
 8004436:	3601      	adds	r6, #1
 8004438:	e777      	b.n	800432a <HAL_GPIO_Init+0x16>
 800443a:	f8df 9078 	ldr.w	r9, [pc, #120]	@ 80044b4 <HAL_GPIO_Init+0x1a0>
 800443e:	454a      	cmp	r2, r9
 8004440:	d00c      	beq.n	800445c <HAL_GPIO_Init+0x148>
 8004442:	d814      	bhi.n	800446e <HAL_GPIO_Init+0x15a>
 8004444:	f5a9 1980 	sub.w	r9, r9, #1048576	@ 0x100000
 8004448:	454a      	cmp	r2, r9
 800444a:	d007      	beq.n	800445c <HAL_GPIO_Init+0x148>
 800444c:	f509 2970 	add.w	r9, r9, #983040	@ 0xf0000
 8004450:	454a      	cmp	r2, r9
 8004452:	d003      	beq.n	800445c <HAL_GPIO_Init+0x148>
 8004454:	f5a9 1980 	sub.w	r9, r9, #1048576	@ 0x100000
 8004458:	454a      	cmp	r2, r9
 800445a:	d187      	bne.n	800436c <HAL_GPIO_Init+0x58>
 800445c:	688a      	ldr	r2, [r1, #8]
 800445e:	b1d2      	cbz	r2, 8004496 <HAL_GPIO_Init+0x182>
 8004460:	2a01      	cmp	r2, #1
 8004462:	f04f 0408 	mov.w	r4, #8
 8004466:	bf0c      	ite	eq
 8004468:	6107      	streq	r7, [r0, #16]
 800446a:	6147      	strne	r7, [r0, #20]
 800446c:	e77e      	b.n	800436c <HAL_GPIO_Init+0x58>
 800446e:	f8df 9048 	ldr.w	r9, [pc, #72]	@ 80044b8 <HAL_GPIO_Init+0x1a4>
 8004472:	454a      	cmp	r2, r9
 8004474:	d0f2      	beq.n	800445c <HAL_GPIO_Init+0x148>
 8004476:	f509 3980 	add.w	r9, r9, #65536	@ 0x10000
 800447a:	e7ed      	b.n	8004458 <HAL_GPIO_Init+0x144>
 800447c:	68cc      	ldr	r4, [r1, #12]
 800447e:	e775      	b.n	800436c <HAL_GPIO_Init+0x58>
 8004480:	68cc      	ldr	r4, [r1, #12]
 8004482:	3404      	adds	r4, #4
 8004484:	e772      	b.n	800436c <HAL_GPIO_Init+0x58>
 8004486:	68cc      	ldr	r4, [r1, #12]
 8004488:	3408      	adds	r4, #8
 800448a:	e76f      	b.n	800436c <HAL_GPIO_Init+0x58>
 800448c:	68cc      	ldr	r4, [r1, #12]
 800448e:	340c      	adds	r4, #12
 8004490:	e76c      	b.n	800436c <HAL_GPIO_Init+0x58>
 8004492:	2400      	movs	r4, #0
 8004494:	e76a      	b.n	800436c <HAL_GPIO_Init+0x58>
 8004496:	2404      	movs	r4, #4
 8004498:	e768      	b.n	800436c <HAL_GPIO_Init+0x58>
 800449a:	2200      	movs	r2, #0
 800449c:	e7aa      	b.n	80043f4 <HAL_GPIO_Init+0xe0>
 800449e:	2201      	movs	r2, #1
 80044a0:	e7a8      	b.n	80043f4 <HAL_GPIO_Init+0xe0>
 80044a2:	2202      	movs	r2, #2
 80044a4:	e7a6      	b.n	80043f4 <HAL_GPIO_Init+0xe0>
 80044a6:	bf00      	nop
 80044a8:	40021000 	.word	0x40021000
 80044ac:	40010400 	.word	0x40010400
 80044b0:	40010800 	.word	0x40010800
 80044b4:	10220000 	.word	0x10220000
 80044b8:	10310000 	.word	0x10310000

080044bc <HAL_GPIO_DeInit>:
 80044bc:	e92d 4ff7 	stmdb	sp!, {r0, r1, r2, r4, r5, r6, r7, r8, r9, sl, fp, lr}
 80044c0:	f04f 0b04 	mov.w	fp, #4
 80044c4:	2200      	movs	r2, #0
 80044c6:	f04f 0a01 	mov.w	sl, #1
 80044ca:	f04f 080f 	mov.w	r8, #15
 80044ce:	eb00 030b 	add.w	r3, r0, fp
 80044d2:	9301      	str	r3, [sp, #4]
 80044d4:	4b2e      	ldr	r3, [pc, #184]	@ (8004590 <HAL_GPIO_DeInit+0xd4>)
 80044d6:	fa31 f402 	lsrs.w	r4, r1, r2
 80044da:	d102      	bne.n	80044e2 <HAL_GPIO_DeInit+0x26>
 80044dc:	b003      	add	sp, #12
 80044de:	e8bd 8ff0 	ldmia.w	sp!, {r4, r5, r6, r7, r8, r9, sl, fp, pc}
 80044e2:	fa0a f702 	lsl.w	r7, sl, r2
 80044e6:	400f      	ands	r7, r1
 80044e8:	d049      	beq.n	800457e <HAL_GPIO_DeInit+0xc2>
 80044ea:	f022 0403 	bic.w	r4, r2, #3
 80044ee:	f104 4480 	add.w	r4, r4, #1073741824	@ 0x40000000
 80044f2:	f504 3480 	add.w	r4, r4, #65536	@ 0x10000
 80044f6:	f002 0c03 	and.w	ip, r2, #3
 80044fa:	68a5      	ldr	r5, [r4, #8]
 80044fc:	ea4f 0c8c 	mov.w	ip, ip, lsl #2
 8004500:	fa08 f90c 	lsl.w	r9, r8, ip
 8004504:	ea09 0e05 	and.w	lr, r9, r5
 8004508:	4d22      	ldr	r5, [pc, #136]	@ (8004594 <HAL_GPIO_DeInit+0xd8>)
 800450a:	42a8      	cmp	r0, r5
 800450c:	d039      	beq.n	8004582 <HAL_GPIO_DeInit+0xc6>
 800450e:	f505 6580 	add.w	r5, r5, #1024	@ 0x400
 8004512:	42a8      	cmp	r0, r5
 8004514:	d037      	beq.n	8004586 <HAL_GPIO_DeInit+0xca>
 8004516:	f505 6580 	add.w	r5, r5, #1024	@ 0x400
 800451a:	42a8      	cmp	r0, r5
 800451c:	d035      	beq.n	800458a <HAL_GPIO_DeInit+0xce>
 800451e:	f505 6580 	add.w	r5, r5, #1024	@ 0x400
 8004522:	42a8      	cmp	r0, r5
 8004524:	bf14      	ite	ne
 8004526:	2504      	movne	r5, #4
 8004528:	2503      	moveq	r5, #3
 800452a:	fa05 f50c 	lsl.w	r5, r5, ip
 800452e:	4575      	cmp	r5, lr
 8004530:	ea6f 0607 	mvn.w	r6, r7
 8004534:	d10f      	bne.n	8004556 <HAL_GPIO_DeInit+0x9a>
 8004536:	681d      	ldr	r5, [r3, #0]
 8004538:	4035      	ands	r5, r6
 800453a:	601d      	str	r5, [r3, #0]
 800453c:	685d      	ldr	r5, [r3, #4]
 800453e:	4035      	ands	r5, r6
 8004540:	605d      	str	r5, [r3, #4]
 8004542:	68dd      	ldr	r5, [r3, #12]
 8004544:	4035      	ands	r5, r6
 8004546:	60dd      	str	r5, [r3, #12]
 8004548:	689d      	ldr	r5, [r3, #8]
 800454a:	4035      	ands	r5, r6
 800454c:	609d      	str	r5, [r3, #8]
 800454e:	68a5      	ldr	r5, [r4, #8]
 8004550:	ea25 0509 	bic.w	r5, r5, r9
 8004554:	60a5      	str	r5, [r4, #8]
 8004556:	2fff      	cmp	r7, #255	@ 0xff
 8004558:	bf94      	ite	ls
 800455a:	4607      	movls	r7, r0
 800455c:	9f01      	ldrhi	r7, [sp, #4]
 800455e:	ea4f 0482 	mov.w	r4, r2, lsl #2
 8004562:	683d      	ldr	r5, [r7, #0]
 8004564:	bf88      	it	hi
 8004566:	3c20      	subhi	r4, #32
 8004568:	fa08 fc04 	lsl.w	ip, r8, r4
 800456c:	ea25 050c 	bic.w	r5, r5, ip
 8004570:	fa0b f404 	lsl.w	r4, fp, r4
 8004574:	4325      	orrs	r5, r4
 8004576:	603d      	str	r5, [r7, #0]
 8004578:	68c4      	ldr	r4, [r0, #12]
 800457a:	4034      	ands	r4, r6
 800457c:	60c4      	str	r4, [r0, #12]
 800457e:	3201      	adds	r2, #1
 8004580:	e7a9      	b.n	80044d6 <HAL_GPIO_DeInit+0x1a>
 8004582:	2500      	movs	r5, #0
 8004584:	e7d1      	b.n	800452a <HAL_GPIO_DeInit+0x6e>
 8004586:	2501      	movs	r5, #1
 8004588:	e7cf      	b.n	800452a <HAL_GPIO_DeInit+0x6e>
 800458a:	2502      	movs	r5, #2
 800458c:	e7cd      	b.n	800452a <HAL_GPIO_DeInit+0x6e>
 800458e:	bf00      	nop
 8004590:	40010400 	.word	0x40010400
 8004594:	40010800 	.word	0x40010800

08004598 <HAL_GPIO_ReadPin>:
 8004598:	6883      	ldr	r3, [r0, #8]
 800459a:	4219      	tst	r1, r3
 800459c:	bf14      	ite	ne
 800459e:	2001      	movne	r0, #1
 80045a0:	2000      	moveq	r0, #0
 80045a2:	4770      	bx	lr

080045a4 <HAL_GPIO_WritePin>:
 80045a4:	b10a      	cbz	r2, 80045aa <HAL_GPIO_WritePin+0x6>
 80045a6:	6101      	str	r1, [r0, #16]
 80045a8:	4770      	bx	lr
 80045aa:	0409      	lsls	r1, r1, #16
 80045ac:	e7fb      	b.n	80045a6 <HAL_GPIO_WritePin+0x2>
	...

080045b0 <HAL_GPIO_EXTI_IRQHandler>:
 80045b0:	4a04      	ldr	r2, [pc, #16]	@ (80045c4 <HAL_GPIO_EXTI_IRQHandler+0x14>)
 80045b2:	b508      	push	{r3, lr}
 80045b4:	6951      	ldr	r1, [r2, #20]
 80045b6:	4201      	tst	r1, r0
 80045b8:	d002      	beq.n	80045c0 <HAL_GPIO_EXTI_IRQHandler+0x10>
 80045ba:	6150      	str	r0, [r2, #20]
 80045bc:	f7ff f844 	bl	8003648 <HAL_GPIO_EXTI_Callback>
 80045c0:	bd08      	pop	{r3, pc}
 80045c2:	bf00      	nop
 80045c4:	40010400 	.word	0x40010400

080045c8 <I2C_IsAcknowledgeFailed>:
 80045c8:	6801      	ldr	r1, [r0, #0]
 80045ca:	2200      	movs	r2, #0
 80045cc:	694b      	ldr	r3, [r1, #20]
 80045ce:	f413 6380 	ands.w	r3, r3, #1024	@ 0x400
 80045d2:	d010      	beq.n	80045f6 <I2C_IsAcknowledgeFailed+0x2e>
 80045d4:	f46f 6380 	mvn.w	r3, #1024	@ 0x400
 80045d8:	614b      	str	r3, [r1, #20]
 80045da:	2320      	movs	r3, #32
 80045dc:	6302      	str	r2, [r0, #48]	@ 0x30
 80045de:	f880 303d 	strb.w	r3, [r0, #61]	@ 0x3d
 80045e2:	f880 203e 	strb.w	r2, [r0, #62]	@ 0x3e
 80045e6:	6c03      	ldr	r3, [r0, #64]	@ 0x40
 80045e8:	f880 203c 	strb.w	r2, [r0, #60]	@ 0x3c
 80045ec:	f043 0304 	orr.w	r3, r3, #4
 80045f0:	6403      	str	r3, [r0, #64]	@ 0x40
 80045f2:	2001      	movs	r0, #1
 80045f4:	4770      	bx	lr
 80045f6:	4618      	mov	r0, r3
 80045f8:	4770      	bx	lr

080045fa <I2C_WaitOnFlagUntilTimeout>:
 80045fa:	e92d 46f8 	stmdb	sp!, {r3, r4, r5, r6, r7, r9, sl, lr}
 80045fe:	4606      	mov	r6, r0
 8004600:	460f      	mov	r7, r1
 8004602:	4691      	mov	r9, r2
 8004604:	461d      	mov	r5, r3
 8004606:	ea4f 4a11 	mov.w	sl, r1, lsr #16
 800460a:	6833      	ldr	r3, [r6, #0]
 800460c:	f1ba 0f01 	cmp.w	sl, #1
 8004610:	bf0c      	ite	eq
 8004612:	695c      	ldreq	r4, [r3, #20]
 8004614:	699c      	ldrne	r4, [r3, #24]
 8004616:	ea27 0404 	bic.w	r4, r7, r4
 800461a:	b2a4      	uxth	r4, r4
 800461c:	fab4 f484 	clz	r4, r4
 8004620:	0964      	lsrs	r4, r4, #5
 8004622:	45a1      	cmp	r9, r4
 8004624:	d001      	beq.n	800462a <I2C_WaitOnFlagUntilTimeout+0x30>
 8004626:	2000      	movs	r0, #0
 8004628:	e025      	b.n	8004676 <I2C_WaitOnFlagUntilTimeout+0x7c>
 800462a:	1c6a      	adds	r2, r5, #1
 800462c:	d0ee      	beq.n	800460c <I2C_WaitOnFlagUntilTimeout+0x12>
 800462e:	f7ff fab9 	bl	8003ba4 <HAL_GetTick>
 8004632:	9b08      	ldr	r3, [sp, #32]
 8004634:	1ac0      	subs	r0, r0, r3
 8004636:	42a8      	cmp	r0, r5
 8004638:	d801      	bhi.n	800463e <I2C_WaitOnFlagUntilTimeout+0x44>
 800463a:	2d00      	cmp	r5, #0
 800463c:	d1e5      	bne.n	800460a <I2C_WaitOnFlagUntilTimeout+0x10>
 800463e:	6833      	ldr	r3, [r6, #0]
 8004640:	f1ba 0f01 	cmp.w	sl, #1
 8004644:	bf0c      	ite	eq
 8004646:	695b      	ldreq	r3, [r3, #20]
 8004648:	699b      	ldrne	r3, [r3, #24]
 800464a:	ea27 0303 	bic.w	r3, r7, r3
 800464e:	b29b      	uxth	r3, r3
 8004650:	fab3 f383 	clz	r3, r3
 8004654:	095b      	lsrs	r3, r3, #5
 8004656:	4599      	cmp	r9, r3
 8004658:	d1d7      	bne.n	800460a <I2C_WaitOnFlagUntilTimeout+0x10>
 800465a:	2300      	movs	r3, #0
 800465c:	2220      	movs	r2, #32
 800465e:	2001      	movs	r0, #1
 8004660:	6333      	str	r3, [r6, #48]	@ 0x30
 8004662:	f886 203d 	strb.w	r2, [r6, #61]	@ 0x3d
 8004666:	f886 303e 	strb.w	r3, [r6, #62]	@ 0x3e
 800466a:	6c32      	ldr	r2, [r6, #64]	@ 0x40
 800466c:	f886 303c 	strb.w	r3, [r6, #60]	@ 0x3c
 8004670:	f042 0220 	orr.w	r2, r2, #32
 8004674:	6432      	str	r2, [r6, #64]	@ 0x40
 8004676:	e8bd 86f8 	ldmia.w	sp!, {r3, r4, r5, r6, r7, r9, sl, pc}

0800467a <I2C_WaitOnMasterAddressFlagUntilTimeout>:
 800467a:	e92d 41f0 	stmdb	sp!, {r4, r5, r6, r7, r8, lr}
 800467e:	4604      	mov	r4, r0
 8004680:	460f      	mov	r7, r1
 8004682:	4616      	mov	r6, r2
 8004684:	4698      	mov	r8, r3
 8004686:	6825      	ldr	r5, [r4, #0]
 8004688:	6968      	ldr	r0, [r5, #20]
 800468a:	ea27 0000 	bic.w	r0, r7, r0
 800468e:	b280      	uxth	r0, r0
 8004690:	b1c0      	cbz	r0, 80046c4 <I2C_WaitOnMasterAddressFlagUntilTimeout+0x4a>
 8004692:	696b      	ldr	r3, [r5, #20]
 8004694:	055a      	lsls	r2, r3, #21
 8004696:	d517      	bpl.n	80046c8 <I2C_WaitOnMasterAddressFlagUntilTimeout+0x4e>
 8004698:	682b      	ldr	r3, [r5, #0]
 800469a:	2220      	movs	r2, #32
 800469c:	f443 7300 	orr.w	r3, r3, #512	@ 0x200
 80046a0:	602b      	str	r3, [r5, #0]
 80046a2:	f46f 6380 	mvn.w	r3, #1024	@ 0x400
 80046a6:	616b      	str	r3, [r5, #20]
 80046a8:	2300      	movs	r3, #0
 80046aa:	6323      	str	r3, [r4, #48]	@ 0x30
 80046ac:	f884 203d 	strb.w	r2, [r4, #61]	@ 0x3d
 80046b0:	f884 303e 	strb.w	r3, [r4, #62]	@ 0x3e
 80046b4:	6c23      	ldr	r3, [r4, #64]	@ 0x40
 80046b6:	f043 0304 	orr.w	r3, r3, #4
 80046ba:	6423      	str	r3, [r4, #64]	@ 0x40
 80046bc:	2300      	movs	r3, #0
 80046be:	2001      	movs	r0, #1
 80046c0:	f884 303c 	strb.w	r3, [r4, #60]	@ 0x3c
 80046c4:	e8bd 81f0 	ldmia.w	sp!, {r4, r5, r6, r7, r8, pc}
 80046c8:	1c73      	adds	r3, r6, #1
 80046ca:	d0dd      	beq.n	8004688 <I2C_WaitOnMasterAddressFlagUntilTimeout+0xe>
 80046cc:	f7ff fa6a 	bl	8003ba4 <HAL_GetTick>
 80046d0:	eba0 0008 	sub.w	r0, r0, r8
 80046d4:	42b0      	cmp	r0, r6
 80046d6:	d801      	bhi.n	80046dc <I2C_WaitOnMasterAddressFlagUntilTimeout+0x62>
 80046d8:	2e00      	cmp	r6, #0
 80046da:	d1d4      	bne.n	8004686 <I2C_WaitOnMasterAddressFlagUntilTimeout+0xc>
 80046dc:	6823      	ldr	r3, [r4, #0]
 80046de:	695a      	ldr	r2, [r3, #20]
 80046e0:	ea27 0202 	bic.w	r2, r7, r2
 80046e4:	b292      	uxth	r2, r2
 80046e6:	2a00      	cmp	r2, #0
 80046e8:	d0cd      	beq.n	8004686 <I2C_WaitOnMasterAddressFlagUntilTimeout+0xc>
 80046ea:	2300      	movs	r3, #0
 80046ec:	2220      	movs	r2, #32
 80046ee:	6323      	str	r3, [r4, #48]	@ 0x30
 80046f0:	f884 203d 	strb.w	r2, [r4, #61]	@ 0x3d
 80046f4:	f884 303e 	strb.w	r3, [r4, #62]	@ 0x3e
 80046f8:	6c23      	ldr	r3, [r4, #64]	@ 0x40
 80046fa:	4313      	orrs	r3, r2
 80046fc:	e7dd      	b.n	80046ba <I2C_WaitOnMasterAddressFlagUntilTimeout+0x40>

080046fe <I2C_WaitOnTXEFlagUntilTimeout>:
 80046fe:	b570      	push	{r4, r5, r6, lr}
 8004700:	4604      	mov	r4, r0
 8004702:	460d      	mov	r5, r1
 8004704:	4616      	mov	r6, r2
 8004706:	6823      	ldr	r3, [r4, #0]
 8004708:	695b      	ldr	r3, [r3, #20]
 800470a:	061b      	lsls	r3, r3, #24
 800470c:	d501      	bpl.n	8004712 <I2C_WaitOnTXEFlagUntilTimeout+0x14>
 800470e:	2000      	movs	r0, #0
 8004710:	e01e      	b.n	8004750 <I2C_WaitOnTXEFlagUntilTimeout+0x52>
 8004712:	4620      	mov	r0, r4
 8004714:	f7ff ff58 	bl	80045c8 <I2C_IsAcknowledgeFailed>
 8004718:	b9c8      	cbnz	r0, 800474e <I2C_WaitOnTXEFlagUntilTimeout+0x50>
 800471a:	1c6a      	adds	r2, r5, #1
 800471c:	d0f3      	beq.n	8004706 <I2C_WaitOnTXEFlagUntilTimeout+0x8>
 800471e:	f7ff fa41 	bl	8003ba4 <HAL_GetTick>
 8004722:	1b80      	subs	r0, r0, r6
 8004724:	42a8      	cmp	r0, r5
 8004726:	d801      	bhi.n	800472c <I2C_WaitOnTXEFlagUntilTimeout+0x2e>
 8004728:	2d00      	cmp	r5, #0
 800472a:	d1ec      	bne.n	8004706 <I2C_WaitOnTXEFlagUntilTimeout+0x8>
 800472c:	6823      	ldr	r3, [r4, #0]
 800472e:	695b      	ldr	r3, [r3, #20]
 8004730:	f013 0380 	ands.w	r3, r3, #128	@ 0x80
 8004734:	d1e7      	bne.n	8004706 <I2C_WaitOnTXEFlagUntilTimeout+0x8>
 8004736:	2220      	movs	r2, #32
 8004738:	6323      	str	r3, [r4, #48]	@ 0x30
 800473a:	f884 203d 	strb.w	r2, [r4, #61]	@ 0x3d
 800473e:	f884 303e 	strb.w	r3, [r4, #62]	@ 0x3e
 8004742:	6c22      	ldr	r2, [r4, #64]	@ 0x40
 8004744:	f884 303c 	strb.w	r3, [r4, #60]	@ 0x3c
 8004748:	f042 0220 	orr.w	r2, r2, #32
 800474c:	6422      	str	r2, [r4, #64]	@ 0x40
 800474e:	2001      	movs	r0, #1
 8004750:	bd70      	pop	{r4, r5, r6, pc}
	...

08004754 <I2C_RequestMemoryWrite>:
 8004754:	e92d 43f0 	stmdb	sp!, {r4, r5, r6, r7, r8, r9, lr}
 8004758:	4615      	mov	r5, r2
 800475a:	6802      	ldr	r2, [r0, #0]
 800475c:	4699      	mov	r9, r3
 800475e:	6813      	ldr	r3, [r2, #0]
 8004760:	b085      	sub	sp, #20
 8004762:	f443 7380 	orr.w	r3, r3, #256	@ 0x100
 8004766:	6013      	str	r3, [r2, #0]
 8004768:	e9dd 780c 	ldrd	r7, r8, [sp, #48]	@ 0x30
 800476c:	460e      	mov	r6, r1
 800476e:	463b      	mov	r3, r7
 8004770:	2200      	movs	r2, #0
 8004772:	f04f 1101 	mov.w	r1, #65537	@ 0x10001
 8004776:	f8cd 8000 	str.w	r8, [sp]
 800477a:	4604      	mov	r4, r0
 800477c:	f7ff ff3d 	bl	80045fa <I2C_WaitOnFlagUntilTimeout>
 8004780:	6823      	ldr	r3, [r4, #0]
 8004782:	b138      	cbz	r0, 8004794 <I2C_RequestMemoryWrite+0x40>
 8004784:	681b      	ldr	r3, [r3, #0]
 8004786:	05db      	lsls	r3, r3, #23
 8004788:	d502      	bpl.n	8004790 <I2C_RequestMemoryWrite+0x3c>
 800478a:	f44f 7300 	mov.w	r3, #512	@ 0x200
 800478e:	6423      	str	r3, [r4, #64]	@ 0x40
 8004790:	2603      	movs	r6, #3
 8004792:	e020      	b.n	80047d6 <I2C_RequestMemoryWrite+0x82>
 8004794:	f006 06fe 	and.w	r6, r6, #254	@ 0xfe
 8004798:	611e      	str	r6, [r3, #16]
 800479a:	463a      	mov	r2, r7
 800479c:	4643      	mov	r3, r8
 800479e:	4620      	mov	r0, r4
 80047a0:	4918      	ldr	r1, [pc, #96]	@ (8004804 <I2C_RequestMemoryWrite+0xb0>)
 80047a2:	f7ff ff6a 	bl	800467a <I2C_WaitOnMasterAddressFlagUntilTimeout>
 80047a6:	b9a8      	cbnz	r0, 80047d4 <I2C_RequestMemoryWrite+0x80>
 80047a8:	6823      	ldr	r3, [r4, #0]
 80047aa:	9003      	str	r0, [sp, #12]
 80047ac:	695a      	ldr	r2, [r3, #20]
 80047ae:	4639      	mov	r1, r7
 80047b0:	9203      	str	r2, [sp, #12]
 80047b2:	699b      	ldr	r3, [r3, #24]
 80047b4:	4642      	mov	r2, r8
 80047b6:	9303      	str	r3, [sp, #12]
 80047b8:	4620      	mov	r0, r4
 80047ba:	9b03      	ldr	r3, [sp, #12]
 80047bc:	f7ff ff9f 	bl	80046fe <I2C_WaitOnTXEFlagUntilTimeout>
 80047c0:	4606      	mov	r6, r0
 80047c2:	b160      	cbz	r0, 80047de <I2C_RequestMemoryWrite+0x8a>
 80047c4:	6c23      	ldr	r3, [r4, #64]	@ 0x40
 80047c6:	2b04      	cmp	r3, #4
 80047c8:	bf01      	itttt	eq
 80047ca:	6822      	ldreq	r2, [r4, #0]
 80047cc:	6813      	ldreq	r3, [r2, #0]
 80047ce:	f443 7300 	orreq.w	r3, r3, #512	@ 0x200
 80047d2:	6013      	streq	r3, [r2, #0]
 80047d4:	2601      	movs	r6, #1
 80047d6:	4630      	mov	r0, r6
 80047d8:	b005      	add	sp, #20
 80047da:	e8bd 83f0 	ldmia.w	sp!, {r4, r5, r6, r7, r8, r9, pc}
 80047de:	f1b9 0f01 	cmp.w	r9, #1
 80047e2:	6823      	ldr	r3, [r4, #0]
 80047e4:	d102      	bne.n	80047ec <I2C_RequestMemoryWrite+0x98>
 80047e6:	b2ed      	uxtb	r5, r5
 80047e8:	611d      	str	r5, [r3, #16]
 80047ea:	e7f4      	b.n	80047d6 <I2C_RequestMemoryWrite+0x82>
 80047ec:	0a2a      	lsrs	r2, r5, #8
 80047ee:	611a      	str	r2, [r3, #16]
 80047f0:	4639      	mov	r1, r7
 80047f2:	4642      	mov	r2, r8
 80047f4:	4620      	mov	r0, r4
 80047f6:	f7ff ff82 	bl	80046fe <I2C_WaitOnTXEFlagUntilTimeout>
 80047fa:	2800      	cmp	r0, #0
 80047fc:	d1e2      	bne.n	80047c4 <I2C_RequestMemoryWrite+0x70>
 80047fe:	6823      	ldr	r3, [r4, #0]
 8004800:	e7f1      	b.n	80047e6 <I2C_RequestMemoryWrite+0x92>
 8004802:	bf00      	nop
 8004804:	00010002 	.word	0x00010002

08004808 <I2C_RequestMemoryRead>:
 8004808:	e92d 47ff 	stmdb	sp!, {r0, r1, r2, r3, r4, r5, r6, r7, r8, r9, sl, lr}
 800480c:	469a      	mov	sl, r3
 800480e:	e9dd 780c 	ldrd	r7, r8, [sp, #48]	@ 0x30
 8004812:	6803      	ldr	r3, [r0, #0]
 8004814:	4615      	mov	r5, r2
 8004816:	681a      	ldr	r2, [r3, #0]
 8004818:	460e      	mov	r6, r1
 800481a:	f442 6280 	orr.w	r2, r2, #1024	@ 0x400
 800481e:	601a      	str	r2, [r3, #0]
 8004820:	681a      	ldr	r2, [r3, #0]
 8004822:	f04f 1101 	mov.w	r1, #65537	@ 0x10001
 8004826:	f442 7280 	orr.w	r2, r2, #256	@ 0x100
 800482a:	601a      	str	r2, [r3, #0]
 800482c:	463b      	mov	r3, r7
 800482e:	2200      	movs	r2, #0
 8004830:	f8cd 8000 	str.w	r8, [sp]
 8004834:	4604      	mov	r4, r0
 8004836:	f7ff fee0 	bl	80045fa <I2C_WaitOnFlagUntilTimeout>
 800483a:	6823      	ldr	r3, [r4, #0]
 800483c:	b148      	cbz	r0, 8004852 <I2C_RequestMemoryRead+0x4a>
 800483e:	681b      	ldr	r3, [r3, #0]
 8004840:	05db      	lsls	r3, r3, #23
 8004842:	bf48      	it	mi
 8004844:	f44f 7300 	movmi.w	r3, #512	@ 0x200
 8004848:	f04f 0003 	mov.w	r0, #3
 800484c:	bf48      	it	mi
 800484e:	6423      	strmi	r3, [r4, #64]	@ 0x40
 8004850:	e021      	b.n	8004896 <I2C_RequestMemoryRead+0x8e>
 8004852:	fa5f f986 	uxtb.w	r9, r6
 8004856:	f006 06fe 	and.w	r6, r6, #254	@ 0xfe
 800485a:	611e      	str	r6, [r3, #16]
 800485c:	463a      	mov	r2, r7
 800485e:	4643      	mov	r3, r8
 8004860:	4620      	mov	r0, r4
 8004862:	492a      	ldr	r1, [pc, #168]	@ (800490c <I2C_RequestMemoryRead+0x104>)
 8004864:	f7ff ff09 	bl	800467a <I2C_WaitOnMasterAddressFlagUntilTimeout>
 8004868:	b9a0      	cbnz	r0, 8004894 <I2C_RequestMemoryRead+0x8c>
 800486a:	6823      	ldr	r3, [r4, #0]
 800486c:	9003      	str	r0, [sp, #12]
 800486e:	695a      	ldr	r2, [r3, #20]
 8004870:	4639      	mov	r1, r7
 8004872:	9203      	str	r2, [sp, #12]
 8004874:	699b      	ldr	r3, [r3, #24]
 8004876:	4642      	mov	r2, r8
 8004878:	9303      	str	r3, [sp, #12]
 800487a:	4620      	mov	r0, r4
 800487c:	9b03      	ldr	r3, [sp, #12]
 800487e:	f7ff ff3e 	bl	80046fe <I2C_WaitOnTXEFlagUntilTimeout>
 8004882:	b158      	cbz	r0, 800489c <I2C_RequestMemoryRead+0x94>
 8004884:	6c23      	ldr	r3, [r4, #64]	@ 0x40
 8004886:	2b04      	cmp	r3, #4
 8004888:	bf01      	itttt	eq
 800488a:	6822      	ldreq	r2, [r4, #0]
 800488c:	6813      	ldreq	r3, [r2, #0]
 800488e:	f443 7300 	orreq.w	r3, r3, #512	@ 0x200
 8004892:	6013      	streq	r3, [r2, #0]
 8004894:	2001      	movs	r0, #1
 8004896:	b004      	add	sp, #16
 8004898:	e8bd 87f0 	ldmia.w	sp!, {r4, r5, r6, r7, r8, r9, sl, pc}
 800489c:	f1ba 0f01 	cmp.w	sl, #1
 80048a0:	6823      	ldr	r3, [r4, #0]
 80048a2:	d11a      	bne.n	80048da <I2C_RequestMemoryRead+0xd2>
 80048a4:	b2ed      	uxtb	r5, r5
 80048a6:	4642      	mov	r2, r8
 80048a8:	4639      	mov	r1, r7
 80048aa:	4620      	mov	r0, r4
 80048ac:	611d      	str	r5, [r3, #16]
 80048ae:	f7ff ff26 	bl	80046fe <I2C_WaitOnTXEFlagUntilTimeout>
 80048b2:	4602      	mov	r2, r0
 80048b4:	2800      	cmp	r0, #0
 80048b6:	d1e5      	bne.n	8004884 <I2C_RequestMemoryRead+0x7c>
 80048b8:	6821      	ldr	r1, [r4, #0]
 80048ba:	4620      	mov	r0, r4
 80048bc:	680b      	ldr	r3, [r1, #0]
 80048be:	f443 7380 	orr.w	r3, r3, #256	@ 0x100
 80048c2:	600b      	str	r3, [r1, #0]
 80048c4:	463b      	mov	r3, r7
 80048c6:	f04f 1101 	mov.w	r1, #65537	@ 0x10001
 80048ca:	f8cd 8000 	str.w	r8, [sp]
 80048ce:	f7ff fe94 	bl	80045fa <I2C_WaitOnFlagUntilTimeout>
 80048d2:	6822      	ldr	r2, [r4, #0]
 80048d4:	b160      	cbz	r0, 80048f0 <I2C_RequestMemoryRead+0xe8>
 80048d6:	6813      	ldr	r3, [r2, #0]
 80048d8:	e7b2      	b.n	8004840 <I2C_RequestMemoryRead+0x38>
 80048da:	0a2a      	lsrs	r2, r5, #8
 80048dc:	611a      	str	r2, [r3, #16]
 80048de:	4639      	mov	r1, r7
 80048e0:	4642      	mov	r2, r8
 80048e2:	4620      	mov	r0, r4
 80048e4:	f7ff ff0b 	bl	80046fe <I2C_WaitOnTXEFlagUntilTimeout>
 80048e8:	2800      	cmp	r0, #0
 80048ea:	d1cb      	bne.n	8004884 <I2C_RequestMemoryRead+0x7c>
 80048ec:	6823      	ldr	r3, [r4, #0]
 80048ee:	e7d9      	b.n	80048a4 <I2C_RequestMemoryRead+0x9c>
 80048f0:	f049 0301 	orr.w	r3, r9, #1
 80048f4:	6113      	str	r3, [r2, #16]
 80048f6:	4620      	mov	r0, r4
 80048f8:	4643      	mov	r3, r8
 80048fa:	463a      	mov	r2, r7
 80048fc:	4903      	ldr	r1, [pc, #12]	@ (800490c <I2C_RequestMemoryRead+0x104>)
 80048fe:	f7ff febc 	bl	800467a <I2C_WaitOnMasterAddressFlagUntilTimeout>
 8004902:	3800      	subs	r0, #0
 8004904:	bf18      	it	ne
 8004906:	2001      	movne	r0, #1
 8004908:	e7c5      	b.n	8004896 <I2C_RequestMemoryRead+0x8e>
 800490a:	bf00      	nop
 800490c:	00010002 	.word	0x00010002

08004910 <I2C_WaitOnBTFFlagUntilTimeout>:
 8004910:	b570      	push	{r4, r5, r6, lr}
 8004912:	4604      	mov	r4, r0
 8004914:	460d      	mov	r5, r1
 8004916:	4616      	mov	r6, r2
 8004918:	6823      	ldr	r3, [r4, #0]
 800491a:	695b      	ldr	r3, [r3, #20]
 800491c:	075b      	lsls	r3, r3, #29
 800491e:	d501      	bpl.n	8004924 <I2C_WaitOnBTFFlagUntilTimeout+0x14>
 8004920:	2000      	movs	r0, #0
 8004922:	e01e      	b.n	8004962 <I2C_WaitOnBTFFlagUntilTimeout+0x52>
 8004924:	4620      	mov	r0, r4
 8004926:	f7ff fe4f 	bl	80045c8 <I2C_IsAcknowledgeFailed>
 800492a:	b9c8      	cbnz	r0, 8004960 <I2C_WaitOnBTFFlagUntilTimeout+0x50>
 800492c:	1c6a      	adds	r2, r5, #1
 800492e:	d0f3      	beq.n	8004918 <I2C_WaitOnBTFFlagUntilTimeout+0x8>
 8004930:	f7ff f938 	bl	8003ba4 <HAL_GetTick>
 8004934:	1b80      	subs	r0, r0, r6
 8004936:	42a8      	cmp	r0, r5
 8004938:	d801      	bhi.n	800493e <I2C_WaitOnBTFFlagUntilTimeout+0x2e>
 800493a:	2d00      	cmp	r5, #0
 800493c:	d1ec      	bne.n	8004918 <I2C_WaitOnBTFFlagUntilTimeout+0x8>
 800493e:	6823      	ldr	r3, [r4, #0]
 8004940:	695b      	ldr	r3, [r3, #20]
 8004942:	f013 0304 	ands.w	r3, r3, #4
 8004946:	d1e7      	bne.n	8004918 <I2C_WaitOnBTFFlagUntilTimeout+0x8>
 8004948:	2220      	movs	r2, #32
 800494a:	6323      	str	r3, [r4, #48]	@ 0x30
 800494c:	f884 203d 	strb.w	r2, [r4, #61]	@ 0x3d
 8004950:	f884 303e 	strb.w	r3, [r4, #62]	@ 0x3e
 8004954:	6c22      	ldr	r2, [r4, #64]	@ 0x40
 8004956:	f884 303c 	strb.w	r3, [r4, #60]	@ 0x3c
 800495a:	f042 0220 	orr.w	r2, r2, #32
 800495e:	6422      	str	r2, [r4, #64]	@ 0x40
 8004960:	2001      	movs	r0, #1
 8004962:	bd70      	pop	{r4, r5, r6, pc}

08004964 <I2C_WaitOnRXNEFlagUntilTimeout>:
 8004964:	b570      	push	{r4, r5, r6, lr}
 8004966:	4604      	mov	r4, r0
 8004968:	460d      	mov	r5, r1
 800496a:	4616      	mov	r6, r2
 800496c:	6821      	ldr	r1, [r4, #0]
 800496e:	694b      	ldr	r3, [r1, #20]
 8004970:	f013 0340 	ands.w	r3, r3, #64	@ 0x40
 8004974:	d001      	beq.n	800497a <I2C_WaitOnRXNEFlagUntilTimeout+0x16>
 8004976:	2000      	movs	r0, #0
 8004978:	e011      	b.n	800499e <I2C_WaitOnRXNEFlagUntilTimeout+0x3a>
 800497a:	694a      	ldr	r2, [r1, #20]
 800497c:	06d2      	lsls	r2, r2, #27
 800497e:	d50f      	bpl.n	80049a0 <I2C_WaitOnRXNEFlagUntilTimeout+0x3c>
 8004980:	f06f 0210 	mvn.w	r2, #16
 8004984:	614a      	str	r2, [r1, #20]
 8004986:	2220      	movs	r2, #32
 8004988:	6323      	str	r3, [r4, #48]	@ 0x30
 800498a:	f884 203d 	strb.w	r2, [r4, #61]	@ 0x3d
 800498e:	f884 303e 	strb.w	r3, [r4, #62]	@ 0x3e
 8004992:	6c23      	ldr	r3, [r4, #64]	@ 0x40
 8004994:	6423      	str	r3, [r4, #64]	@ 0x40
 8004996:	2300      	movs	r3, #0
 8004998:	2001      	movs	r0, #1
 800499a:	f884 303c 	strb.w	r3, [r4, #60]	@ 0x3c
 800499e:	bd70      	pop	{r4, r5, r6, pc}
 80049a0:	f7ff f900 	bl	8003ba4 <HAL_GetTick>
 80049a4:	1b80      	subs	r0, r0, r6
 80049a6:	42a8      	cmp	r0, r5
 80049a8:	d801      	bhi.n	80049ae <I2C_WaitOnRXNEFlagUntilTimeout+0x4a>
 80049aa:	2d00      	cmp	r5, #0
 80049ac:	d1de      	bne.n	800496c <I2C_WaitOnRXNEFlagUntilTimeout+0x8>
 80049ae:	6823      	ldr	r3, [r4, #0]
 80049b0:	695b      	ldr	r3, [r3, #20]
 80049b2:	f013 0340 	ands.w	r3, r3, #64	@ 0x40
 80049b6:	d1d9      	bne.n	800496c <I2C_WaitOnRXNEFlagUntilTimeout+0x8>
 80049b8:	2220      	movs	r2, #32
 80049ba:	6323      	str	r3, [r4, #48]	@ 0x30
 80049bc:	f884 203d 	strb.w	r2, [r4, #61]	@ 0x3d
 80049c0:	f884 303e 	strb.w	r3, [r4, #62]	@ 0x3e
 80049c4:	6c23      	ldr	r3, [r4, #64]	@ 0x40
 80049c6:	4313      	orrs	r3, r2
 80049c8:	e7e4      	b.n	8004994 <I2C_WaitOnRXNEFlagUntilTimeout+0x30>
	...

080049cc <HAL_I2C_Init>:
 80049cc:	b570      	push	{r4, r5, r6, lr}
 80049ce:	4604      	mov	r4, r0
 80049d0:	b908      	cbnz	r0, 80049d6 <HAL_I2C_Init+0xa>
 80049d2:	2001      	movs	r0, #1
 80049d4:	bd70      	pop	{r4, r5, r6, pc}
 80049d6:	f890 303d 	ldrb.w	r3, [r0, #61]	@ 0x3d
 80049da:	f003 02ff 	and.w	r2, r3, #255	@ 0xff
 80049de:	b91b      	cbnz	r3, 80049e8 <HAL_I2C_Init+0x1c>
 80049e0:	f880 203c 	strb.w	r2, [r0, #60]	@ 0x3c
 80049e4:	f7fe feea 	bl	80037bc <HAL_I2C_MspInit>
 80049e8:	2324      	movs	r3, #36	@ 0x24
 80049ea:	f884 303d 	strb.w	r3, [r4, #61]	@ 0x3d
 80049ee:	6823      	ldr	r3, [r4, #0]
 80049f0:	681a      	ldr	r2, [r3, #0]
 80049f2:	f022 0201 	bic.w	r2, r2, #1
 80049f6:	601a      	str	r2, [r3, #0]
 80049f8:	681a      	ldr	r2, [r3, #0]
 80049fa:	f442 4200 	orr.w	r2, r2, #32768	@ 0x8000
 80049fe:	601a      	str	r2, [r3, #0]
 8004a00:	681a      	ldr	r2, [r3, #0]
 8004a02:	f422 4200 	bic.w	r2, r2, #32768	@ 0x8000
 8004a06:	601a      	str	r2, [r3, #0]
 8004a08:	f000 feae 	bl	8005768 <HAL_RCC_GetPCLK1Freq>
 8004a0c:	4b3f      	ldr	r3, [pc, #252]	@ (8004b0c <HAL_I2C_Init+0x140>)
 8004a0e:	6865      	ldr	r5, [r4, #4]
 8004a10:	429d      	cmp	r5, r3
 8004a12:	bf94      	ite	ls
 8004a14:	4b3e      	ldrls	r3, [pc, #248]	@ (8004b10 <HAL_I2C_Init+0x144>)
 8004a16:	4b3f      	ldrhi	r3, [pc, #252]	@ (8004b14 <HAL_I2C_Init+0x148>)
 8004a18:	4298      	cmp	r0, r3
 8004a1a:	bf8c      	ite	hi
 8004a1c:	2300      	movhi	r3, #0
 8004a1e:	2301      	movls	r3, #1
 8004a20:	2b00      	cmp	r3, #0
 8004a22:	d1d6      	bne.n	80049d2 <HAL_I2C_Init+0x6>
 8004a24:	4e39      	ldr	r6, [pc, #228]	@ (8004b0c <HAL_I2C_Init+0x140>)
 8004a26:	4b3c      	ldr	r3, [pc, #240]	@ (8004b18 <HAL_I2C_Init+0x14c>)
 8004a28:	42b5      	cmp	r5, r6
 8004a2a:	fbb0 f3f3 	udiv	r3, r0, r3
 8004a2e:	bf88      	it	hi
 8004a30:	f44f 7696 	movhi.w	r6, #300	@ 0x12c
 8004a34:	6822      	ldr	r2, [r4, #0]
 8004a36:	6851      	ldr	r1, [r2, #4]
 8004a38:	f021 013f 	bic.w	r1, r1, #63	@ 0x3f
 8004a3c:	ea41 0103 	orr.w	r1, r1, r3
 8004a40:	bf82      	ittt	hi
 8004a42:	4373      	mulhi	r3, r6
 8004a44:	f44f 767a 	movhi.w	r6, #1000	@ 0x3e8
 8004a48:	fbb3 f3f6 	udivhi	r3, r3, r6
 8004a4c:	6051      	str	r1, [r2, #4]
 8004a4e:	6a11      	ldr	r1, [r2, #32]
 8004a50:	3301      	adds	r3, #1
 8004a52:	f021 013f 	bic.w	r1, r1, #63	@ 0x3f
 8004a56:	430b      	orrs	r3, r1
 8004a58:	6213      	str	r3, [r2, #32]
 8004a5a:	69d1      	ldr	r1, [r2, #28]
 8004a5c:	1e43      	subs	r3, r0, #1
 8004a5e:	482b      	ldr	r0, [pc, #172]	@ (8004b0c <HAL_I2C_Init+0x140>)
 8004a60:	f421 414f 	bic.w	r1, r1, #52992	@ 0xcf00
 8004a64:	4285      	cmp	r5, r0
 8004a66:	f021 01ff 	bic.w	r1, r1, #255	@ 0xff
 8004a6a:	d832      	bhi.n	8004ad2 <HAL_I2C_Init+0x106>
 8004a6c:	006d      	lsls	r5, r5, #1
 8004a6e:	fbb3 f3f5 	udiv	r3, r3, r5
 8004a72:	f640 70fc 	movw	r0, #4092	@ 0xffc
 8004a76:	3301      	adds	r3, #1
 8004a78:	4203      	tst	r3, r0
 8004a7a:	d042      	beq.n	8004b02 <HAL_I2C_Init+0x136>
 8004a7c:	f3c3 030b 	ubfx	r3, r3, #0, #12
 8004a80:	4319      	orrs	r1, r3
 8004a82:	61d1      	str	r1, [r2, #28]
 8004a84:	6811      	ldr	r1, [r2, #0]
 8004a86:	e9d4 3007 	ldrd	r3, r0, [r4, #28]
 8004a8a:	f021 01c0 	bic.w	r1, r1, #192	@ 0xc0
 8004a8e:	4303      	orrs	r3, r0
 8004a90:	430b      	orrs	r3, r1
 8004a92:	6013      	str	r3, [r2, #0]
 8004a94:	6891      	ldr	r1, [r2, #8]
 8004a96:	e9d4 0303 	ldrd	r0, r3, [r4, #12]
 8004a9a:	f421 4103 	bic.w	r1, r1, #33536	@ 0x8300
 8004a9e:	4303      	orrs	r3, r0
 8004aa0:	f021 01ff 	bic.w	r1, r1, #255	@ 0xff
 8004aa4:	430b      	orrs	r3, r1
 8004aa6:	6093      	str	r3, [r2, #8]
 8004aa8:	68d1      	ldr	r1, [r2, #12]
 8004aaa:	e9d4 3005 	ldrd	r3, r0, [r4, #20]
 8004aae:	f021 01ff 	bic.w	r1, r1, #255	@ 0xff
 8004ab2:	4303      	orrs	r3, r0
 8004ab4:	430b      	orrs	r3, r1
 8004ab6:	60d3      	str	r3, [r2, #12]
 8004ab8:	6813      	ldr	r3, [r2, #0]
 8004aba:	2000      	movs	r0, #0
 8004abc:	f043 0301 	orr.w	r3, r3, #1
 8004ac0:	6013      	str	r3, [r2, #0]
 8004ac2:	2320      	movs	r3, #32
 8004ac4:	6420      	str	r0, [r4, #64]	@ 0x40
 8004ac6:	f884 303d 	strb.w	r3, [r4, #61]	@ 0x3d
 8004aca:	6320      	str	r0, [r4, #48]	@ 0x30
 8004acc:	f884 003e 	strb.w	r0, [r4, #62]	@ 0x3e
 8004ad0:	e780      	b.n	80049d4 <HAL_I2C_Init+0x8>
 8004ad2:	68a0      	ldr	r0, [r4, #8]
 8004ad4:	b950      	cbnz	r0, 8004aec <HAL_I2C_Init+0x120>
 8004ad6:	eb05 0545 	add.w	r5, r5, r5, lsl #1
 8004ada:	fbb3 f3f5 	udiv	r3, r3, r5
 8004ade:	3301      	adds	r3, #1
 8004ae0:	f3c3 030b 	ubfx	r3, r3, #0, #12
 8004ae4:	b17b      	cbz	r3, 8004b06 <HAL_I2C_Init+0x13a>
 8004ae6:	f443 4300 	orr.w	r3, r3, #32768	@ 0x8000
 8004aea:	e7c9      	b.n	8004a80 <HAL_I2C_Init+0xb4>
 8004aec:	2019      	movs	r0, #25
 8004aee:	4368      	muls	r0, r5
 8004af0:	fbb3 f3f0 	udiv	r3, r3, r0
 8004af4:	3301      	adds	r3, #1
 8004af6:	f3c3 030b 	ubfx	r3, r3, #0, #12
 8004afa:	b123      	cbz	r3, 8004b06 <HAL_I2C_Init+0x13a>
 8004afc:	f443 4340 	orr.w	r3, r3, #49152	@ 0xc000
 8004b00:	e7be      	b.n	8004a80 <HAL_I2C_Init+0xb4>
 8004b02:	2304      	movs	r3, #4
 8004b04:	e7bc      	b.n	8004a80 <HAL_I2C_Init+0xb4>
 8004b06:	2301      	movs	r3, #1
 8004b08:	e7ba      	b.n	8004a80 <HAL_I2C_Init+0xb4>
 8004b0a:	bf00      	nop
 8004b0c:	000186a0 	.word	0x000186a0
 8004b10:	001e847f 	.word	0x001e847f
 8004b14:	003d08ff 	.word	0x003d08ff
 8004b18:	000f4240 	.word	0x000f4240

08004b1c <HAL_I2C_DeInit>:
 8004b1c:	b510      	push	{r4, lr}
 8004b1e:	4604      	mov	r4, r0
 8004b20:	b198      	cbz	r0, 8004b4a <HAL_I2C_DeInit+0x2e>
 8004b22:	2324      	movs	r3, #36	@ 0x24
 8004b24:	6802      	ldr	r2, [r0, #0]
 8004b26:	f880 303d 	strb.w	r3, [r0, #61]	@ 0x3d
 8004b2a:	6813      	ldr	r3, [r2, #0]
 8004b2c:	f023 0301 	bic.w	r3, r3, #1
 8004b30:	6013      	str	r3, [r2, #0]
 8004b32:	f7fe fe75 	bl	8003820 <HAL_I2C_MspDeInit>
 8004b36:	2000      	movs	r0, #0
 8004b38:	6420      	str	r0, [r4, #64]	@ 0x40
 8004b3a:	f884 003c 	strb.w	r0, [r4, #60]	@ 0x3c
 8004b3e:	f884 003d 	strb.w	r0, [r4, #61]	@ 0x3d
 8004b42:	6320      	str	r0, [r4, #48]	@ 0x30
 8004b44:	f884 003e 	strb.w	r0, [r4, #62]	@ 0x3e
 8004b48:	bd10      	pop	{r4, pc}
 8004b4a:	2001      	movs	r0, #1
 8004b4c:	e7fc      	b.n	8004b48 <HAL_I2C_DeInit+0x2c>
	...

08004b50 <HAL_I2C_Master_Receive>:
 8004b50:	e92d 43f0 	stmdb	sp!, {r4, r5, r6, r7, r8, r9, lr}
 8004b54:	4698      	mov	r8, r3
 8004b56:	2300      	movs	r3, #0
 8004b58:	4604      	mov	r4, r0
 8004b5a:	b089      	sub	sp, #36	@ 0x24
 8004b5c:	9302      	str	r3, [sp, #8]
 8004b5e:	460e      	mov	r6, r1
 8004b60:	4691      	mov	r9, r2
 8004b62:	9f10      	ldr	r7, [sp, #64]	@ 0x40
 8004b64:	f7ff f81e 	bl	8003ba4 <HAL_GetTick>
 8004b68:	f894 303d 	ldrb.w	r3, [r4, #61]	@ 0x3d
 8004b6c:	4605      	mov	r5, r0
 8004b6e:	2b20      	cmp	r3, #32
 8004b70:	d004      	beq.n	8004b7c <HAL_I2C_Master_Receive+0x2c>
 8004b72:	2602      	movs	r6, #2
 8004b74:	4630      	mov	r0, r6
 8004b76:	b009      	add	sp, #36	@ 0x24
 8004b78:	e8bd 83f0 	ldmia.w	sp!, {r4, r5, r6, r7, r8, r9, pc}
 8004b7c:	9000      	str	r0, [sp, #0]
 8004b7e:	2319      	movs	r3, #25
 8004b80:	2201      	movs	r2, #1
 8004b82:	4620      	mov	r0, r4
 8004b84:	498f      	ldr	r1, [pc, #572]	@ (8004dc4 <HAL_I2C_Master_Receive+0x274>)
 8004b86:	f7ff fd38 	bl	80045fa <I2C_WaitOnFlagUntilTimeout>
 8004b8a:	2800      	cmp	r0, #0
 8004b8c:	d1f1      	bne.n	8004b72 <HAL_I2C_Master_Receive+0x22>
 8004b8e:	f894 303c 	ldrb.w	r3, [r4, #60]	@ 0x3c
 8004b92:	2b01      	cmp	r3, #1
 8004b94:	d0ed      	beq.n	8004b72 <HAL_I2C_Master_Receive+0x22>
 8004b96:	2301      	movs	r3, #1
 8004b98:	6821      	ldr	r1, [r4, #0]
 8004b9a:	f884 303c 	strb.w	r3, [r4, #60]	@ 0x3c
 8004b9e:	680b      	ldr	r3, [r1, #0]
 8004ba0:	07db      	lsls	r3, r3, #31
 8004ba2:	bf5e      	ittt	pl
 8004ba4:	680b      	ldrpl	r3, [r1, #0]
 8004ba6:	f043 0301 	orrpl.w	r3, r3, #1
 8004baa:	600b      	strpl	r3, [r1, #0]
 8004bac:	680b      	ldr	r3, [r1, #0]
 8004bae:	f423 6300 	bic.w	r3, r3, #2048	@ 0x800
 8004bb2:	600b      	str	r3, [r1, #0]
 8004bb4:	2322      	movs	r3, #34	@ 0x22
 8004bb6:	f884 303d 	strb.w	r3, [r4, #61]	@ 0x3d
 8004bba:	2310      	movs	r3, #16
 8004bbc:	f884 303e 	strb.w	r3, [r4, #62]	@ 0x3e
 8004bc0:	2300      	movs	r3, #0
 8004bc2:	6423      	str	r3, [r4, #64]	@ 0x40
 8004bc4:	f8a4 802a 	strh.w	r8, [r4, #42]	@ 0x2a
 8004bc8:	8d63      	ldrh	r3, [r4, #42]	@ 0x2a
 8004bca:	f8c4 9024 	str.w	r9, [r4, #36]	@ 0x24
 8004bce:	8523      	strh	r3, [r4, #40]	@ 0x28
 8004bd0:	4b7d      	ldr	r3, [pc, #500]	@ (8004dc8 <HAL_I2C_Master_Receive+0x278>)
 8004bd2:	62e3      	str	r3, [r4, #44]	@ 0x2c
 8004bd4:	6ae3      	ldr	r3, [r4, #44]	@ 0x2c
 8004bd6:	680a      	ldr	r2, [r1, #0]
 8004bd8:	2b08      	cmp	r3, #8
 8004bda:	f442 6280 	orr.w	r2, r2, #1024	@ 0x400
 8004bde:	600a      	str	r2, [r1, #0]
 8004be0:	d004      	beq.n	8004bec <HAL_I2C_Master_Receive+0x9c>
 8004be2:	2b01      	cmp	r3, #1
 8004be4:	d002      	beq.n	8004bec <HAL_I2C_Master_Receive+0x9c>
 8004be6:	f513 3f80 	cmn.w	r3, #65536	@ 0x10000
 8004bea:	d104      	bne.n	8004bf6 <HAL_I2C_Master_Receive+0xa6>
 8004bec:	680b      	ldr	r3, [r1, #0]
 8004bee:	f443 7380 	orr.w	r3, r3, #256	@ 0x100
 8004bf2:	600b      	str	r3, [r1, #0]
 8004bf4:	e002      	b.n	8004bfc <HAL_I2C_Master_Receive+0xac>
 8004bf6:	6b23      	ldr	r3, [r4, #48]	@ 0x30
 8004bf8:	2b11      	cmp	r3, #17
 8004bfa:	d0f7      	beq.n	8004bec <HAL_I2C_Master_Receive+0x9c>
 8004bfc:	463b      	mov	r3, r7
 8004bfe:	2200      	movs	r2, #0
 8004c00:	f04f 1101 	mov.w	r1, #65537	@ 0x10001
 8004c04:	4620      	mov	r0, r4
 8004c06:	9500      	str	r5, [sp, #0]
 8004c08:	f7ff fcf7 	bl	80045fa <I2C_WaitOnFlagUntilTimeout>
 8004c0c:	6823      	ldr	r3, [r4, #0]
 8004c0e:	b138      	cbz	r0, 8004c20 <HAL_I2C_Master_Receive+0xd0>
 8004c10:	681b      	ldr	r3, [r3, #0]
 8004c12:	05d8      	lsls	r0, r3, #23
 8004c14:	bf44      	itt	mi
 8004c16:	f44f 7300 	movmi.w	r3, #512	@ 0x200
 8004c1a:	6423      	strmi	r3, [r4, #64]	@ 0x40
 8004c1c:	2601      	movs	r6, #1
 8004c1e:	e7a9      	b.n	8004b74 <HAL_I2C_Master_Receive+0x24>
 8004c20:	6922      	ldr	r2, [r4, #16]
 8004c22:	f5b2 4f80 	cmp.w	r2, #16384	@ 0x4000
 8004c26:	d129      	bne.n	8004c7c <HAL_I2C_Master_Receive+0x12c>
 8004c28:	f046 0601 	orr.w	r6, r6, #1
 8004c2c:	b2f6      	uxtb	r6, r6
 8004c2e:	611e      	str	r6, [r3, #16]
 8004c30:	462b      	mov	r3, r5
 8004c32:	463a      	mov	r2, r7
 8004c34:	4620      	mov	r0, r4
 8004c36:	4965      	ldr	r1, [pc, #404]	@ (8004dcc <HAL_I2C_Master_Receive+0x27c>)
 8004c38:	f7ff fd1f 	bl	800467a <I2C_WaitOnMasterAddressFlagUntilTimeout>
 8004c3c:	4606      	mov	r6, r0
 8004c3e:	2800      	cmp	r0, #0
 8004c40:	d1ec      	bne.n	8004c1c <HAL_I2C_Master_Receive+0xcc>
 8004c42:	8d22      	ldrh	r2, [r4, #40]	@ 0x28
 8004c44:	6823      	ldr	r3, [r4, #0]
 8004c46:	2a00      	cmp	r2, #0
 8004c48:	d14d      	bne.n	8004ce6 <HAL_I2C_Master_Receive+0x196>
 8004c4a:	9003      	str	r0, [sp, #12]
 8004c4c:	695a      	ldr	r2, [r3, #20]
 8004c4e:	9203      	str	r2, [sp, #12]
 8004c50:	699a      	ldr	r2, [r3, #24]
 8004c52:	9203      	str	r2, [sp, #12]
 8004c54:	9a03      	ldr	r2, [sp, #12]
 8004c56:	681a      	ldr	r2, [r3, #0]
 8004c58:	f442 7200 	orr.w	r2, r2, #512	@ 0x200
 8004c5c:	601a      	str	r2, [r3, #0]
 8004c5e:	f8df 8170 	ldr.w	r8, [pc, #368]	@ 8004dd0 <HAL_I2C_Master_Receive+0x280>
 8004c62:	f8df 9170 	ldr.w	r9, [pc, #368]	@ 8004dd4 <HAL_I2C_Master_Receive+0x284>
 8004c66:	8d23      	ldrh	r3, [r4, #40]	@ 0x28
 8004c68:	2b00      	cmp	r3, #0
 8004c6a:	d16c      	bne.n	8004d46 <HAL_I2C_Master_Receive+0x1f6>
 8004c6c:	2220      	movs	r2, #32
 8004c6e:	f884 303c 	strb.w	r3, [r4, #60]	@ 0x3c
 8004c72:	f884 203d 	strb.w	r2, [r4, #61]	@ 0x3d
 8004c76:	f884 303e 	strb.w	r3, [r4, #62]	@ 0x3e
 8004c7a:	e77b      	b.n	8004b74 <HAL_I2C_Master_Receive+0x24>
 8004c7c:	ea4f 18e6 	mov.w	r8, r6, asr #7
 8004c80:	f008 0806 	and.w	r8, r8, #6
 8004c84:	f048 02f0 	orr.w	r2, r8, #240	@ 0xf0
 8004c88:	611a      	str	r2, [r3, #16]
 8004c8a:	4620      	mov	r0, r4
 8004c8c:	462b      	mov	r3, r5
 8004c8e:	463a      	mov	r2, r7
 8004c90:	4951      	ldr	r1, [pc, #324]	@ (8004dd8 <HAL_I2C_Master_Receive+0x288>)
 8004c92:	f7ff fcf2 	bl	800467a <I2C_WaitOnMasterAddressFlagUntilTimeout>
 8004c96:	2800      	cmp	r0, #0
 8004c98:	d1c0      	bne.n	8004c1c <HAL_I2C_Master_Receive+0xcc>
 8004c9a:	6823      	ldr	r3, [r4, #0]
 8004c9c:	b2f6      	uxtb	r6, r6
 8004c9e:	463a      	mov	r2, r7
 8004ca0:	611e      	str	r6, [r3, #16]
 8004ca2:	4620      	mov	r0, r4
 8004ca4:	462b      	mov	r3, r5
 8004ca6:	4949      	ldr	r1, [pc, #292]	@ (8004dcc <HAL_I2C_Master_Receive+0x27c>)
 8004ca8:	f7ff fce7 	bl	800467a <I2C_WaitOnMasterAddressFlagUntilTimeout>
 8004cac:	4602      	mov	r2, r0
 8004cae:	2800      	cmp	r0, #0
 8004cb0:	d1b4      	bne.n	8004c1c <HAL_I2C_Master_Receive+0xcc>
 8004cb2:	6823      	ldr	r3, [r4, #0]
 8004cb4:	9007      	str	r0, [sp, #28]
 8004cb6:	6959      	ldr	r1, [r3, #20]
 8004cb8:	4620      	mov	r0, r4
 8004cba:	9107      	str	r1, [sp, #28]
 8004cbc:	6999      	ldr	r1, [r3, #24]
 8004cbe:	9107      	str	r1, [sp, #28]
 8004cc0:	9907      	ldr	r1, [sp, #28]
 8004cc2:	6819      	ldr	r1, [r3, #0]
 8004cc4:	f441 7180 	orr.w	r1, r1, #256	@ 0x100
 8004cc8:	6019      	str	r1, [r3, #0]
 8004cca:	463b      	mov	r3, r7
 8004ccc:	f04f 1101 	mov.w	r1, #65537	@ 0x10001
 8004cd0:	9500      	str	r5, [sp, #0]
 8004cd2:	f7ff fc92 	bl	80045fa <I2C_WaitOnFlagUntilTimeout>
 8004cd6:	6822      	ldr	r2, [r4, #0]
 8004cd8:	b108      	cbz	r0, 8004cde <HAL_I2C_Master_Receive+0x18e>
 8004cda:	6813      	ldr	r3, [r2, #0]
 8004cdc:	e799      	b.n	8004c12 <HAL_I2C_Master_Receive+0xc2>
 8004cde:	f048 03f1 	orr.w	r3, r8, #241	@ 0xf1
 8004ce2:	6113      	str	r3, [r2, #16]
 8004ce4:	e7a4      	b.n	8004c30 <HAL_I2C_Master_Receive+0xe0>
 8004ce6:	2a01      	cmp	r2, #1
 8004ce8:	d111      	bne.n	8004d0e <HAL_I2C_Master_Receive+0x1be>
 8004cea:	681a      	ldr	r2, [r3, #0]
 8004cec:	f422 6280 	bic.w	r2, r2, #1024	@ 0x400
 8004cf0:	601a      	str	r2, [r3, #0]
 8004cf2:	b672      	cpsid	i
 8004cf4:	6823      	ldr	r3, [r4, #0]
 8004cf6:	9004      	str	r0, [sp, #16]
 8004cf8:	695a      	ldr	r2, [r3, #20]
 8004cfa:	9204      	str	r2, [sp, #16]
 8004cfc:	699a      	ldr	r2, [r3, #24]
 8004cfe:	9204      	str	r2, [sp, #16]
 8004d00:	9a04      	ldr	r2, [sp, #16]
 8004d02:	681a      	ldr	r2, [r3, #0]
 8004d04:	f442 7200 	orr.w	r2, r2, #512	@ 0x200
 8004d08:	601a      	str	r2, [r3, #0]
 8004d0a:	b662      	cpsie	i
 8004d0c:	e7a7      	b.n	8004c5e <HAL_I2C_Master_Receive+0x10e>
 8004d0e:	2a02      	cmp	r2, #2
 8004d10:	681a      	ldr	r2, [r3, #0]
 8004d12:	d10e      	bne.n	8004d32 <HAL_I2C_Master_Receive+0x1e2>
 8004d14:	f442 6200 	orr.w	r2, r2, #2048	@ 0x800
 8004d18:	601a      	str	r2, [r3, #0]
 8004d1a:	b672      	cpsid	i
 8004d1c:	6823      	ldr	r3, [r4, #0]
 8004d1e:	9005      	str	r0, [sp, #20]
 8004d20:	695a      	ldr	r2, [r3, #20]
 8004d22:	9205      	str	r2, [sp, #20]
 8004d24:	699a      	ldr	r2, [r3, #24]
 8004d26:	9205      	str	r2, [sp, #20]
 8004d28:	9a05      	ldr	r2, [sp, #20]
 8004d2a:	681a      	ldr	r2, [r3, #0]
 8004d2c:	f422 6280 	bic.w	r2, r2, #1024	@ 0x400
 8004d30:	e7ea      	b.n	8004d08 <HAL_I2C_Master_Receive+0x1b8>
 8004d32:	f442 6280 	orr.w	r2, r2, #1024	@ 0x400
 8004d36:	601a      	str	r2, [r3, #0]
 8004d38:	9006      	str	r0, [sp, #24]
 8004d3a:	695a      	ldr	r2, [r3, #20]
 8004d3c:	9206      	str	r2, [sp, #24]
 8004d3e:	699b      	ldr	r3, [r3, #24]
 8004d40:	9306      	str	r3, [sp, #24]
 8004d42:	9b06      	ldr	r3, [sp, #24]
 8004d44:	e78b      	b.n	8004c5e <HAL_I2C_Master_Receive+0x10e>
 8004d46:	2b03      	cmp	r3, #3
 8004d48:	f200 8088 	bhi.w	8004e5c <HAL_I2C_Master_Receive+0x30c>
 8004d4c:	2b01      	cmp	r3, #1
 8004d4e:	d116      	bne.n	8004d7e <HAL_I2C_Master_Receive+0x22e>
 8004d50:	462a      	mov	r2, r5
 8004d52:	4639      	mov	r1, r7
 8004d54:	4620      	mov	r0, r4
 8004d56:	f7ff fe05 	bl	8004964 <I2C_WaitOnRXNEFlagUntilTimeout>
 8004d5a:	2800      	cmp	r0, #0
 8004d5c:	f47f af5e 	bne.w	8004c1c <HAL_I2C_Master_Receive+0xcc>
 8004d60:	6823      	ldr	r3, [r4, #0]
 8004d62:	691a      	ldr	r2, [r3, #16]
 8004d64:	6a63      	ldr	r3, [r4, #36]	@ 0x24
 8004d66:	701a      	strb	r2, [r3, #0]
 8004d68:	6a63      	ldr	r3, [r4, #36]	@ 0x24
 8004d6a:	3301      	adds	r3, #1
 8004d6c:	6263      	str	r3, [r4, #36]	@ 0x24
 8004d6e:	8d23      	ldrh	r3, [r4, #40]	@ 0x28
 8004d70:	3b01      	subs	r3, #1
 8004d72:	8523      	strh	r3, [r4, #40]	@ 0x28
 8004d74:	8d63      	ldrh	r3, [r4, #42]	@ 0x2a
 8004d76:	3b01      	subs	r3, #1
 8004d78:	b29b      	uxth	r3, r3
 8004d7a:	8563      	strh	r3, [r4, #42]	@ 0x2a
 8004d7c:	e773      	b.n	8004c66 <HAL_I2C_Master_Receive+0x116>
 8004d7e:	2b02      	cmp	r3, #2
 8004d80:	f04f 0200 	mov.w	r2, #0
 8004d84:	463b      	mov	r3, r7
 8004d86:	4641      	mov	r1, r8
 8004d88:	4620      	mov	r0, r4
 8004d8a:	9500      	str	r5, [sp, #0]
 8004d8c:	d126      	bne.n	8004ddc <HAL_I2C_Master_Receive+0x28c>
 8004d8e:	f7ff fc34 	bl	80045fa <I2C_WaitOnFlagUntilTimeout>
 8004d92:	2800      	cmp	r0, #0
 8004d94:	f47f af42 	bne.w	8004c1c <HAL_I2C_Master_Receive+0xcc>
 8004d98:	b672      	cpsid	i
 8004d9a:	6823      	ldr	r3, [r4, #0]
 8004d9c:	681a      	ldr	r2, [r3, #0]
 8004d9e:	f442 7200 	orr.w	r2, r2, #512	@ 0x200
 8004da2:	601a      	str	r2, [r3, #0]
 8004da4:	691a      	ldr	r2, [r3, #16]
 8004da6:	6a63      	ldr	r3, [r4, #36]	@ 0x24
 8004da8:	701a      	strb	r2, [r3, #0]
 8004daa:	6a63      	ldr	r3, [r4, #36]	@ 0x24
 8004dac:	3301      	adds	r3, #1
 8004dae:	6263      	str	r3, [r4, #36]	@ 0x24
 8004db0:	8d23      	ldrh	r3, [r4, #40]	@ 0x28
 8004db2:	3b01      	subs	r3, #1
 8004db4:	8523      	strh	r3, [r4, #40]	@ 0x28
 8004db6:	8d63      	ldrh	r3, [r4, #42]	@ 0x2a
 8004db8:	3b01      	subs	r3, #1
 8004dba:	b29b      	uxth	r3, r3
 8004dbc:	8563      	strh	r3, [r4, #42]	@ 0x2a
 8004dbe:	b662      	cpsie	i
 8004dc0:	e7ce      	b.n	8004d60 <HAL_I2C_Master_Receive+0x210>
 8004dc2:	bf00      	nop
 8004dc4:	00100002 	.word	0x00100002
 8004dc8:	ffff0000 	.word	0xffff0000
 8004dcc:	00010002 	.word	0x00010002
 8004dd0:	00010004 	.word	0x00010004
 8004dd4:	20000058 	.word	0x20000058
 8004dd8:	00010008 	.word	0x00010008
 8004ddc:	f7ff fc0d 	bl	80045fa <I2C_WaitOnFlagUntilTimeout>
 8004de0:	2800      	cmp	r0, #0
 8004de2:	f47f af1b 	bne.w	8004c1c <HAL_I2C_Master_Receive+0xcc>
 8004de6:	6822      	ldr	r2, [r4, #0]
 8004de8:	6813      	ldr	r3, [r2, #0]
 8004dea:	f423 6380 	bic.w	r3, r3, #1024	@ 0x400
 8004dee:	6013      	str	r3, [r2, #0]
 8004df0:	b672      	cpsid	i
 8004df2:	f246 11a8 	movw	r1, #25000	@ 0x61a8
 8004df6:	6823      	ldr	r3, [r4, #0]
 8004df8:	691a      	ldr	r2, [r3, #16]
 8004dfa:	6a63      	ldr	r3, [r4, #36]	@ 0x24
 8004dfc:	701a      	strb	r2, [r3, #0]
 8004dfe:	6a62      	ldr	r2, [r4, #36]	@ 0x24
 8004e00:	1c53      	adds	r3, r2, #1
 8004e02:	6263      	str	r3, [r4, #36]	@ 0x24
 8004e04:	8d23      	ldrh	r3, [r4, #40]	@ 0x28
 8004e06:	3b01      	subs	r3, #1
 8004e08:	8523      	strh	r3, [r4, #40]	@ 0x28
 8004e0a:	8d63      	ldrh	r3, [r4, #42]	@ 0x2a
 8004e0c:	3b01      	subs	r3, #1
 8004e0e:	b29b      	uxth	r3, r3
 8004e10:	8563      	strh	r3, [r4, #42]	@ 0x2a
 8004e12:	f8d9 3000 	ldr.w	r3, [r9]
 8004e16:	fbb3 f3f1 	udiv	r3, r3, r1
 8004e1a:	2123      	movs	r1, #35	@ 0x23
 8004e1c:	434b      	muls	r3, r1
 8004e1e:	9302      	str	r3, [sp, #8]
 8004e20:	9b02      	ldr	r3, [sp, #8]
 8004e22:	3b01      	subs	r3, #1
 8004e24:	9302      	str	r3, [sp, #8]
 8004e26:	9b02      	ldr	r3, [sp, #8]
 8004e28:	b96b      	cbnz	r3, 8004e46 <HAL_I2C_Master_Receive+0x2f6>
 8004e2a:	2220      	movs	r2, #32
 8004e2c:	6323      	str	r3, [r4, #48]	@ 0x30
 8004e2e:	f884 203d 	strb.w	r2, [r4, #61]	@ 0x3d
 8004e32:	f884 303e 	strb.w	r3, [r4, #62]	@ 0x3e
 8004e36:	6c22      	ldr	r2, [r4, #64]	@ 0x40
 8004e38:	f042 0220 	orr.w	r2, r2, #32
 8004e3c:	6422      	str	r2, [r4, #64]	@ 0x40
 8004e3e:	b662      	cpsie	i
 8004e40:	f884 303c 	strb.w	r3, [r4, #60]	@ 0x3c
 8004e44:	e6ea      	b.n	8004c1c <HAL_I2C_Master_Receive+0xcc>
 8004e46:	6823      	ldr	r3, [r4, #0]
 8004e48:	6959      	ldr	r1, [r3, #20]
 8004e4a:	0749      	lsls	r1, r1, #29
 8004e4c:	d5e8      	bpl.n	8004e20 <HAL_I2C_Master_Receive+0x2d0>
 8004e4e:	6819      	ldr	r1, [r3, #0]
 8004e50:	f441 7100 	orr.w	r1, r1, #512	@ 0x200
 8004e54:	6019      	str	r1, [r3, #0]
 8004e56:	691b      	ldr	r3, [r3, #16]
 8004e58:	7053      	strb	r3, [r2, #1]
 8004e5a:	e7a6      	b.n	8004daa <HAL_I2C_Master_Receive+0x25a>
 8004e5c:	462a      	mov	r2, r5
 8004e5e:	4639      	mov	r1, r7
 8004e60:	4620      	mov	r0, r4
 8004e62:	f7ff fd7f 	bl	8004964 <I2C_WaitOnRXNEFlagUntilTimeout>
 8004e66:	2800      	cmp	r0, #0
 8004e68:	f47f aed8 	bne.w	8004c1c <HAL_I2C_Master_Receive+0xcc>
 8004e6c:	6823      	ldr	r3, [r4, #0]
 8004e6e:	691a      	ldr	r2, [r3, #16]
 8004e70:	6a63      	ldr	r3, [r4, #36]	@ 0x24
 8004e72:	701a      	strb	r2, [r3, #0]
 8004e74:	8d62      	ldrh	r2, [r4, #42]	@ 0x2a
 8004e76:	6a61      	ldr	r1, [r4, #36]	@ 0x24
 8004e78:	3a01      	subs	r2, #1
 8004e7a:	b292      	uxth	r2, r2
 8004e7c:	1c4b      	adds	r3, r1, #1
 8004e7e:	8562      	strh	r2, [r4, #42]	@ 0x2a
 8004e80:	6822      	ldr	r2, [r4, #0]
 8004e82:	6263      	str	r3, [r4, #36]	@ 0x24
 8004e84:	8d23      	ldrh	r3, [r4, #40]	@ 0x28
 8004e86:	6950      	ldr	r0, [r2, #20]
 8004e88:	3b01      	subs	r3, #1
 8004e8a:	b29b      	uxth	r3, r3
 8004e8c:	0740      	lsls	r0, r0, #29
 8004e8e:	8523      	strh	r3, [r4, #40]	@ 0x28
 8004e90:	f57f aee9 	bpl.w	8004c66 <HAL_I2C_Master_Receive+0x116>
 8004e94:	2b03      	cmp	r3, #3
 8004e96:	bf02      	ittt	eq
 8004e98:	6813      	ldreq	r3, [r2, #0]
 8004e9a:	f423 6380 	biceq.w	r3, r3, #1024	@ 0x400
 8004e9e:	6013      	streq	r3, [r2, #0]
 8004ea0:	6913      	ldr	r3, [r2, #16]
 8004ea2:	704b      	strb	r3, [r1, #1]
 8004ea4:	e760      	b.n	8004d68 <HAL_I2C_Master_Receive+0x218>
 8004ea6:	bf00      	nop

08004ea8 <HAL_I2C_Mem_Write>:
 8004ea8:	e92d 43f7 	stmdb	sp!, {r0, r1, r2, r4, r5, r6, r7, r8, r9, lr}
 8004eac:	4604      	mov	r4, r0
 8004eae:	4699      	mov	r9, r3
 8004eb0:	460f      	mov	r7, r1
 8004eb2:	4690      	mov	r8, r2
 8004eb4:	9e0c      	ldr	r6, [sp, #48]	@ 0x30
 8004eb6:	f7fe fe75 	bl	8003ba4 <HAL_GetTick>
 8004eba:	f894 303d 	ldrb.w	r3, [r4, #61]	@ 0x3d
 8004ebe:	4605      	mov	r5, r0
 8004ec0:	2b20      	cmp	r3, #32
 8004ec2:	d003      	beq.n	8004ecc <HAL_I2C_Mem_Write+0x24>
 8004ec4:	2002      	movs	r0, #2
 8004ec6:	b003      	add	sp, #12
 8004ec8:	e8bd 83f0 	ldmia.w	sp!, {r4, r5, r6, r7, r8, r9, pc}
 8004ecc:	9000      	str	r0, [sp, #0]
 8004ece:	2319      	movs	r3, #25
 8004ed0:	2201      	movs	r2, #1
 8004ed2:	4620      	mov	r0, r4
 8004ed4:	493a      	ldr	r1, [pc, #232]	@ (8004fc0 <HAL_I2C_Mem_Write+0x118>)
 8004ed6:	f7ff fb90 	bl	80045fa <I2C_WaitOnFlagUntilTimeout>
 8004eda:	2800      	cmp	r0, #0
 8004edc:	d1f2      	bne.n	8004ec4 <HAL_I2C_Mem_Write+0x1c>
 8004ede:	f894 303c 	ldrb.w	r3, [r4, #60]	@ 0x3c
 8004ee2:	2b01      	cmp	r3, #1
 8004ee4:	d0ee      	beq.n	8004ec4 <HAL_I2C_Mem_Write+0x1c>
 8004ee6:	2301      	movs	r3, #1
 8004ee8:	6820      	ldr	r0, [r4, #0]
 8004eea:	f884 303c 	strb.w	r3, [r4, #60]	@ 0x3c
 8004eee:	6803      	ldr	r3, [r0, #0]
 8004ef0:	4642      	mov	r2, r8
 8004ef2:	07d9      	lsls	r1, r3, #31
 8004ef4:	bf58      	it	pl
 8004ef6:	6803      	ldrpl	r3, [r0, #0]
 8004ef8:	4639      	mov	r1, r7
 8004efa:	bf5c      	itt	pl
 8004efc:	f043 0301 	orrpl.w	r3, r3, #1
 8004f00:	6003      	strpl	r3, [r0, #0]
 8004f02:	6803      	ldr	r3, [r0, #0]
 8004f04:	f423 6300 	bic.w	r3, r3, #2048	@ 0x800
 8004f08:	6003      	str	r3, [r0, #0]
 8004f0a:	2321      	movs	r3, #33	@ 0x21
 8004f0c:	f884 303d 	strb.w	r3, [r4, #61]	@ 0x3d
 8004f10:	2340      	movs	r3, #64	@ 0x40
 8004f12:	f884 303e 	strb.w	r3, [r4, #62]	@ 0x3e
 8004f16:	2300      	movs	r3, #0
 8004f18:	6423      	str	r3, [r4, #64]	@ 0x40
 8004f1a:	9b0a      	ldr	r3, [sp, #40]	@ 0x28
 8004f1c:	4620      	mov	r0, r4
 8004f1e:	6263      	str	r3, [r4, #36]	@ 0x24
 8004f20:	f8bd 302c 	ldrh.w	r3, [sp, #44]	@ 0x2c
 8004f24:	8563      	strh	r3, [r4, #42]	@ 0x2a
 8004f26:	8d63      	ldrh	r3, [r4, #42]	@ 0x2a
 8004f28:	8523      	strh	r3, [r4, #40]	@ 0x28
 8004f2a:	4b26      	ldr	r3, [pc, #152]	@ (8004fc4 <HAL_I2C_Mem_Write+0x11c>)
 8004f2c:	62e3      	str	r3, [r4, #44]	@ 0x2c
 8004f2e:	464b      	mov	r3, r9
 8004f30:	e9cd 6500 	strd	r6, r5, [sp]
 8004f34:	f7ff fc0e 	bl	8004754 <I2C_RequestMemoryWrite>
 8004f38:	2800      	cmp	r0, #0
 8004f3a:	d02a      	beq.n	8004f92 <HAL_I2C_Mem_Write+0xea>
 8004f3c:	2001      	movs	r0, #1
 8004f3e:	e7c2      	b.n	8004ec6 <HAL_I2C_Mem_Write+0x1e>
 8004f40:	f7ff fbdd 	bl	80046fe <I2C_WaitOnTXEFlagUntilTimeout>
 8004f44:	b140      	cbz	r0, 8004f58 <HAL_I2C_Mem_Write+0xb0>
 8004f46:	6c23      	ldr	r3, [r4, #64]	@ 0x40
 8004f48:	2b04      	cmp	r3, #4
 8004f4a:	bf01      	itttt	eq
 8004f4c:	6822      	ldreq	r2, [r4, #0]
 8004f4e:	6813      	ldreq	r3, [r2, #0]
 8004f50:	f443 7300 	orreq.w	r3, r3, #512	@ 0x200
 8004f54:	6013      	streq	r3, [r2, #0]
 8004f56:	e7f1      	b.n	8004f3c <HAL_I2C_Mem_Write+0x94>
 8004f58:	6a63      	ldr	r3, [r4, #36]	@ 0x24
 8004f5a:	6827      	ldr	r7, [r4, #0]
 8004f5c:	461a      	mov	r2, r3
 8004f5e:	f812 1b01 	ldrb.w	r1, [r2], #1
 8004f62:	6139      	str	r1, [r7, #16]
 8004f64:	6262      	str	r2, [r4, #36]	@ 0x24
 8004f66:	8d62      	ldrh	r2, [r4, #42]	@ 0x2a
 8004f68:	8d21      	ldrh	r1, [r4, #40]	@ 0x28
 8004f6a:	3a01      	subs	r2, #1
 8004f6c:	b292      	uxth	r2, r2
 8004f6e:	8562      	strh	r2, [r4, #42]	@ 0x2a
 8004f70:	697a      	ldr	r2, [r7, #20]
 8004f72:	1e48      	subs	r0, r1, #1
 8004f74:	b280      	uxth	r0, r0
 8004f76:	0752      	lsls	r2, r2, #29
 8004f78:	8520      	strh	r0, [r4, #40]	@ 0x28
 8004f7a:	d50a      	bpl.n	8004f92 <HAL_I2C_Mem_Write+0xea>
 8004f7c:	b148      	cbz	r0, 8004f92 <HAL_I2C_Mem_Write+0xea>
 8004f7e:	785a      	ldrb	r2, [r3, #1]
 8004f80:	3302      	adds	r3, #2
 8004f82:	613a      	str	r2, [r7, #16]
 8004f84:	6263      	str	r3, [r4, #36]	@ 0x24
 8004f86:	8d63      	ldrh	r3, [r4, #42]	@ 0x2a
 8004f88:	3902      	subs	r1, #2
 8004f8a:	3b01      	subs	r3, #1
 8004f8c:	b29b      	uxth	r3, r3
 8004f8e:	8521      	strh	r1, [r4, #40]	@ 0x28
 8004f90:	8563      	strh	r3, [r4, #42]	@ 0x2a
 8004f92:	8d23      	ldrh	r3, [r4, #40]	@ 0x28
 8004f94:	462a      	mov	r2, r5
 8004f96:	4631      	mov	r1, r6
 8004f98:	4620      	mov	r0, r4
 8004f9a:	2b00      	cmp	r3, #0
 8004f9c:	d1d0      	bne.n	8004f40 <HAL_I2C_Mem_Write+0x98>
 8004f9e:	f7ff fcb7 	bl	8004910 <I2C_WaitOnBTFFlagUntilTimeout>
 8004fa2:	2800      	cmp	r0, #0
 8004fa4:	d1cf      	bne.n	8004f46 <HAL_I2C_Mem_Write+0x9e>
 8004fa6:	6822      	ldr	r2, [r4, #0]
 8004fa8:	6813      	ldr	r3, [r2, #0]
 8004faa:	f443 7300 	orr.w	r3, r3, #512	@ 0x200
 8004fae:	6013      	str	r3, [r2, #0]
 8004fb0:	2320      	movs	r3, #32
 8004fb2:	f884 003c 	strb.w	r0, [r4, #60]	@ 0x3c
 8004fb6:	f884 303d 	strb.w	r3, [r4, #61]	@ 0x3d
 8004fba:	f884 003e 	strb.w	r0, [r4, #62]	@ 0x3e
 8004fbe:	e782      	b.n	8004ec6 <HAL_I2C_Mem_Write+0x1e>
 8004fc0:	00100002 	.word	0x00100002
 8004fc4:	ffff0000 	.word	0xffff0000

08004fc8 <HAL_I2C_Mem_Read>:
 8004fc8:	e92d 43f0 	stmdb	sp!, {r4, r5, r6, r7, r8, r9, lr}
 8004fcc:	4699      	mov	r9, r3
 8004fce:	2300      	movs	r3, #0
 8004fd0:	4604      	mov	r4, r0
 8004fd2:	b089      	sub	sp, #36	@ 0x24
 8004fd4:	9303      	str	r3, [sp, #12]
 8004fd6:	460d      	mov	r5, r1
 8004fd8:	4690      	mov	r8, r2
 8004fda:	9f12      	ldr	r7, [sp, #72]	@ 0x48
 8004fdc:	f7fe fde2 	bl	8003ba4 <HAL_GetTick>
 8004fe0:	f894 303d 	ldrb.w	r3, [r4, #61]	@ 0x3d
 8004fe4:	4606      	mov	r6, r0
 8004fe6:	2b20      	cmp	r3, #32
 8004fe8:	d004      	beq.n	8004ff4 <HAL_I2C_Mem_Read+0x2c>
 8004fea:	2502      	movs	r5, #2
 8004fec:	4628      	mov	r0, r5
 8004fee:	b009      	add	sp, #36	@ 0x24
 8004ff0:	e8bd 83f0 	ldmia.w	sp!, {r4, r5, r6, r7, r8, r9, pc}
 8004ff4:	9000      	str	r0, [sp, #0]
 8004ff6:	2319      	movs	r3, #25
 8004ff8:	2201      	movs	r2, #1
 8004ffa:	4620      	mov	r0, r4
 8004ffc:	4990      	ldr	r1, [pc, #576]	@ (8005240 <HAL_I2C_Mem_Read+0x278>)
 8004ffe:	f7ff fafc 	bl	80045fa <I2C_WaitOnFlagUntilTimeout>
 8005002:	2800      	cmp	r0, #0
 8005004:	d1f1      	bne.n	8004fea <HAL_I2C_Mem_Read+0x22>
 8005006:	f894 303c 	ldrb.w	r3, [r4, #60]	@ 0x3c
 800500a:	2b01      	cmp	r3, #1
 800500c:	d0ed      	beq.n	8004fea <HAL_I2C_Mem_Read+0x22>
 800500e:	2301      	movs	r3, #1
 8005010:	6820      	ldr	r0, [r4, #0]
 8005012:	f884 303c 	strb.w	r3, [r4, #60]	@ 0x3c
 8005016:	6803      	ldr	r3, [r0, #0]
 8005018:	4629      	mov	r1, r5
 800501a:	07db      	lsls	r3, r3, #31
 800501c:	bf58      	it	pl
 800501e:	6803      	ldrpl	r3, [r0, #0]
 8005020:	4642      	mov	r2, r8
 8005022:	bf5c      	itt	pl
 8005024:	f043 0301 	orrpl.w	r3, r3, #1
 8005028:	6003      	strpl	r3, [r0, #0]
 800502a:	6803      	ldr	r3, [r0, #0]
 800502c:	f423 6300 	bic.w	r3, r3, #2048	@ 0x800
 8005030:	6003      	str	r3, [r0, #0]
 8005032:	2322      	movs	r3, #34	@ 0x22
 8005034:	f884 303d 	strb.w	r3, [r4, #61]	@ 0x3d
 8005038:	2340      	movs	r3, #64	@ 0x40
 800503a:	f884 303e 	strb.w	r3, [r4, #62]	@ 0x3e
 800503e:	2300      	movs	r3, #0
 8005040:	6423      	str	r3, [r4, #64]	@ 0x40
 8005042:	9b10      	ldr	r3, [sp, #64]	@ 0x40
 8005044:	4620      	mov	r0, r4
 8005046:	6263      	str	r3, [r4, #36]	@ 0x24
 8005048:	f8bd 3044 	ldrh.w	r3, [sp, #68]	@ 0x44
 800504c:	8563      	strh	r3, [r4, #42]	@ 0x2a
 800504e:	8d63      	ldrh	r3, [r4, #42]	@ 0x2a
 8005050:	8523      	strh	r3, [r4, #40]	@ 0x28
 8005052:	4b7c      	ldr	r3, [pc, #496]	@ (8005244 <HAL_I2C_Mem_Read+0x27c>)
 8005054:	62e3      	str	r3, [r4, #44]	@ 0x2c
 8005056:	464b      	mov	r3, r9
 8005058:	e9cd 7600 	strd	r7, r6, [sp]
 800505c:	f7ff fbd4 	bl	8004808 <I2C_RequestMemoryRead>
 8005060:	4605      	mov	r5, r0
 8005062:	2800      	cmp	r0, #0
 8005064:	f040 80ba 	bne.w	80051dc <HAL_I2C_Mem_Read+0x214>
 8005068:	8d22      	ldrh	r2, [r4, #40]	@ 0x28
 800506a:	6823      	ldr	r3, [r4, #0]
 800506c:	b9c2      	cbnz	r2, 80050a0 <HAL_I2C_Mem_Read+0xd8>
 800506e:	9004      	str	r0, [sp, #16]
 8005070:	695a      	ldr	r2, [r3, #20]
 8005072:	9204      	str	r2, [sp, #16]
 8005074:	699a      	ldr	r2, [r3, #24]
 8005076:	9204      	str	r2, [sp, #16]
 8005078:	9a04      	ldr	r2, [sp, #16]
 800507a:	681a      	ldr	r2, [r3, #0]
 800507c:	f442 7200 	orr.w	r2, r2, #512	@ 0x200
 8005080:	601a      	str	r2, [r3, #0]
 8005082:	f8df 81c4 	ldr.w	r8, [pc, #452]	@ 8005248 <HAL_I2C_Mem_Read+0x280>
 8005086:	f8df 91c4 	ldr.w	r9, [pc, #452]	@ 800524c <HAL_I2C_Mem_Read+0x284>
 800508a:	8d23      	ldrh	r3, [r4, #40]	@ 0x28
 800508c:	2b00      	cmp	r3, #0
 800508e:	d137      	bne.n	8005100 <HAL_I2C_Mem_Read+0x138>
 8005090:	2220      	movs	r2, #32
 8005092:	f884 303c 	strb.w	r3, [r4, #60]	@ 0x3c
 8005096:	f884 203d 	strb.w	r2, [r4, #61]	@ 0x3d
 800509a:	f884 303e 	strb.w	r3, [r4, #62]	@ 0x3e
 800509e:	e7a5      	b.n	8004fec <HAL_I2C_Mem_Read+0x24>
 80050a0:	2a01      	cmp	r2, #1
 80050a2:	d111      	bne.n	80050c8 <HAL_I2C_Mem_Read+0x100>
 80050a4:	681a      	ldr	r2, [r3, #0]
 80050a6:	f422 6280 	bic.w	r2, r2, #1024	@ 0x400
 80050aa:	601a      	str	r2, [r3, #0]
 80050ac:	b672      	cpsid	i
 80050ae:	6823      	ldr	r3, [r4, #0]
 80050b0:	9005      	str	r0, [sp, #20]
 80050b2:	695a      	ldr	r2, [r3, #20]
 80050b4:	9205      	str	r2, [sp, #20]
 80050b6:	699a      	ldr	r2, [r3, #24]
 80050b8:	9205      	str	r2, [sp, #20]
 80050ba:	9a05      	ldr	r2, [sp, #20]
 80050bc:	681a      	ldr	r2, [r3, #0]
 80050be:	f442 7200 	orr.w	r2, r2, #512	@ 0x200
 80050c2:	601a      	str	r2, [r3, #0]
 80050c4:	b662      	cpsie	i
 80050c6:	e7dc      	b.n	8005082 <HAL_I2C_Mem_Read+0xba>
 80050c8:	2a02      	cmp	r2, #2
 80050ca:	681a      	ldr	r2, [r3, #0]
 80050cc:	d10e      	bne.n	80050ec <HAL_I2C_Mem_Read+0x124>
 80050ce:	f442 6200 	orr.w	r2, r2, #2048	@ 0x800
 80050d2:	601a      	str	r2, [r3, #0]
 80050d4:	b672      	cpsid	i
 80050d6:	6823      	ldr	r3, [r4, #0]
 80050d8:	9006      	str	r0, [sp, #24]
 80050da:	695a      	ldr	r2, [r3, #20]
 80050dc:	9206      	str	r2, [sp, #24]
 80050de:	699a      	ldr	r2, [r3, #24]
 80050e0:	9206      	str	r2, [sp, #24]
 80050e2:	9a06      	ldr	r2, [sp, #24]
 80050e4:	681a      	ldr	r2, [r3, #0]
 80050e6:	f422 6280 	bic.w	r2, r2, #1024	@ 0x400
 80050ea:	e7ea      	b.n	80050c2 <HAL_I2C_Mem_Read+0xfa>
 80050ec:	f442 6280 	orr.w	r2, r2, #1024	@ 0x400
 80050f0:	601a      	str	r2, [r3, #0]
 80050f2:	9007      	str	r0, [sp, #28]
 80050f4:	695a      	ldr	r2, [r3, #20]
 80050f6:	9207      	str	r2, [sp, #28]
 80050f8:	699b      	ldr	r3, [r3, #24]
 80050fa:	9307      	str	r3, [sp, #28]
 80050fc:	9b07      	ldr	r3, [sp, #28]
 80050fe:	e7c0      	b.n	8005082 <HAL_I2C_Mem_Read+0xba>
 8005100:	2b03      	cmp	r3, #3
 8005102:	d878      	bhi.n	80051f6 <HAL_I2C_Mem_Read+0x22e>
 8005104:	2b01      	cmp	r3, #1
 8005106:	d115      	bne.n	8005134 <HAL_I2C_Mem_Read+0x16c>
 8005108:	4632      	mov	r2, r6
 800510a:	4639      	mov	r1, r7
 800510c:	4620      	mov	r0, r4
 800510e:	f7ff fc29 	bl	8004964 <I2C_WaitOnRXNEFlagUntilTimeout>
 8005112:	2800      	cmp	r0, #0
 8005114:	d162      	bne.n	80051dc <HAL_I2C_Mem_Read+0x214>
 8005116:	6823      	ldr	r3, [r4, #0]
 8005118:	691a      	ldr	r2, [r3, #16]
 800511a:	6a63      	ldr	r3, [r4, #36]	@ 0x24
 800511c:	701a      	strb	r2, [r3, #0]
 800511e:	6a63      	ldr	r3, [r4, #36]	@ 0x24
 8005120:	3301      	adds	r3, #1
 8005122:	6263      	str	r3, [r4, #36]	@ 0x24
 8005124:	8d23      	ldrh	r3, [r4, #40]	@ 0x28
 8005126:	3b01      	subs	r3, #1
 8005128:	8523      	strh	r3, [r4, #40]	@ 0x28
 800512a:	8d63      	ldrh	r3, [r4, #42]	@ 0x2a
 800512c:	3b01      	subs	r3, #1
 800512e:	b29b      	uxth	r3, r3
 8005130:	8563      	strh	r3, [r4, #42]	@ 0x2a
 8005132:	e7aa      	b.n	800508a <HAL_I2C_Mem_Read+0xc2>
 8005134:	2b02      	cmp	r3, #2
 8005136:	f04f 0200 	mov.w	r2, #0
 800513a:	463b      	mov	r3, r7
 800513c:	4641      	mov	r1, r8
 800513e:	4620      	mov	r0, r4
 8005140:	9600      	str	r6, [sp, #0]
 8005142:	d118      	bne.n	8005176 <HAL_I2C_Mem_Read+0x1ae>
 8005144:	f7ff fa59 	bl	80045fa <I2C_WaitOnFlagUntilTimeout>
 8005148:	2800      	cmp	r0, #0
 800514a:	d147      	bne.n	80051dc <HAL_I2C_Mem_Read+0x214>
 800514c:	b672      	cpsid	i
 800514e:	6823      	ldr	r3, [r4, #0]
 8005150:	681a      	ldr	r2, [r3, #0]
 8005152:	f442 7200 	orr.w	r2, r2, #512	@ 0x200
 8005156:	601a      	str	r2, [r3, #0]
 8005158:	691a      	ldr	r2, [r3, #16]
 800515a:	6a63      	ldr	r3, [r4, #36]	@ 0x24
 800515c:	701a      	strb	r2, [r3, #0]
 800515e:	6a63      	ldr	r3, [r4, #36]	@ 0x24
 8005160:	3301      	adds	r3, #1
 8005162:	6263      	str	r3, [r4, #36]	@ 0x24
 8005164:	8d23      	ldrh	r3, [r4, #40]	@ 0x28
 8005166:	3b01      	subs	r3, #1
 8005168:	8523      	strh	r3, [r4, #40]	@ 0x28
 800516a:	8d63      	ldrh	r3, [r4, #42]	@ 0x2a
 800516c:	3b01      	subs	r3, #1
 800516e:	b29b      	uxth	r3, r3
 8005170:	8563      	strh	r3, [r4, #42]	@ 0x2a
 8005172:	b662      	cpsie	i
 8005174:	e7cf      	b.n	8005116 <HAL_I2C_Mem_Read+0x14e>
 8005176:	f7ff fa40 	bl	80045fa <I2C_WaitOnFlagUntilTimeout>
 800517a:	2800      	cmp	r0, #0
 800517c:	d12e      	bne.n	80051dc <HAL_I2C_Mem_Read+0x214>
 800517e:	6822      	ldr	r2, [r4, #0]
 8005180:	6813      	ldr	r3, [r2, #0]
 8005182:	f423 6380 	bic.w	r3, r3, #1024	@ 0x400
 8005186:	6013      	str	r3, [r2, #0]
 8005188:	b672      	cpsid	i
 800518a:	f246 11a8 	movw	r1, #25000	@ 0x61a8
 800518e:	6823      	ldr	r3, [r4, #0]
 8005190:	691a      	ldr	r2, [r3, #16]
 8005192:	6a63      	ldr	r3, [r4, #36]	@ 0x24
 8005194:	701a      	strb	r2, [r3, #0]
 8005196:	6a62      	ldr	r2, [r4, #36]	@ 0x24
 8005198:	1c53      	adds	r3, r2, #1
 800519a:	6263      	str	r3, [r4, #36]	@ 0x24
 800519c:	8d23      	ldrh	r3, [r4, #40]	@ 0x28
 800519e:	3b01      	subs	r3, #1
 80051a0:	8523      	strh	r3, [r4, #40]	@ 0x28
 80051a2:	8d63      	ldrh	r3, [r4, #42]	@ 0x2a
 80051a4:	3b01      	subs	r3, #1
 80051a6:	b29b      	uxth	r3, r3
 80051a8:	8563      	strh	r3, [r4, #42]	@ 0x2a
 80051aa:	f8d9 3000 	ldr.w	r3, [r9]
 80051ae:	fbb3 f3f1 	udiv	r3, r3, r1
 80051b2:	2123      	movs	r1, #35	@ 0x23
 80051b4:	434b      	muls	r3, r1
 80051b6:	9303      	str	r3, [sp, #12]
 80051b8:	9b03      	ldr	r3, [sp, #12]
 80051ba:	3b01      	subs	r3, #1
 80051bc:	9303      	str	r3, [sp, #12]
 80051be:	9b03      	ldr	r3, [sp, #12]
 80051c0:	b973      	cbnz	r3, 80051e0 <HAL_I2C_Mem_Read+0x218>
 80051c2:	2220      	movs	r2, #32
 80051c4:	6323      	str	r3, [r4, #48]	@ 0x30
 80051c6:	f884 203d 	strb.w	r2, [r4, #61]	@ 0x3d
 80051ca:	f884 303e 	strb.w	r3, [r4, #62]	@ 0x3e
 80051ce:	6c22      	ldr	r2, [r4, #64]	@ 0x40
 80051d0:	f042 0220 	orr.w	r2, r2, #32
 80051d4:	6422      	str	r2, [r4, #64]	@ 0x40
 80051d6:	b662      	cpsie	i
 80051d8:	f884 303c 	strb.w	r3, [r4, #60]	@ 0x3c
 80051dc:	2501      	movs	r5, #1
 80051de:	e705      	b.n	8004fec <HAL_I2C_Mem_Read+0x24>
 80051e0:	6823      	ldr	r3, [r4, #0]
 80051e2:	6959      	ldr	r1, [r3, #20]
 80051e4:	0749      	lsls	r1, r1, #29
 80051e6:	d5e7      	bpl.n	80051b8 <HAL_I2C_Mem_Read+0x1f0>
 80051e8:	6819      	ldr	r1, [r3, #0]
 80051ea:	f441 7100 	orr.w	r1, r1, #512	@ 0x200
 80051ee:	6019      	str	r1, [r3, #0]
 80051f0:	691b      	ldr	r3, [r3, #16]
 80051f2:	7053      	strb	r3, [r2, #1]
 80051f4:	e7b3      	b.n	800515e <HAL_I2C_Mem_Read+0x196>
 80051f6:	4632      	mov	r2, r6
 80051f8:	4639      	mov	r1, r7
 80051fa:	4620      	mov	r0, r4
 80051fc:	f7ff fbb2 	bl	8004964 <I2C_WaitOnRXNEFlagUntilTimeout>
 8005200:	2800      	cmp	r0, #0
 8005202:	d1eb      	bne.n	80051dc <HAL_I2C_Mem_Read+0x214>
 8005204:	6823      	ldr	r3, [r4, #0]
 8005206:	691a      	ldr	r2, [r3, #16]
 8005208:	6a63      	ldr	r3, [r4, #36]	@ 0x24
 800520a:	701a      	strb	r2, [r3, #0]
 800520c:	8d62      	ldrh	r2, [r4, #42]	@ 0x2a
 800520e:	6a61      	ldr	r1, [r4, #36]	@ 0x24
 8005210:	3a01      	subs	r2, #1
 8005212:	b292      	uxth	r2, r2
 8005214:	1c4b      	adds	r3, r1, #1
 8005216:	8562      	strh	r2, [r4, #42]	@ 0x2a
 8005218:	6822      	ldr	r2, [r4, #0]
 800521a:	6263      	str	r3, [r4, #36]	@ 0x24
 800521c:	8d23      	ldrh	r3, [r4, #40]	@ 0x28
 800521e:	6950      	ldr	r0, [r2, #20]
 8005220:	3b01      	subs	r3, #1
 8005222:	b29b      	uxth	r3, r3
 8005224:	0740      	lsls	r0, r0, #29
 8005226:	8523      	strh	r3, [r4, #40]	@ 0x28
 8005228:	f57f af2f 	bpl.w	800508a <HAL_I2C_Mem_Read+0xc2>
 800522c:	2b03      	cmp	r3, #3
 800522e:	bf02      	ittt	eq
 8005230:	6813      	ldreq	r3, [r2, #0]
 8005232:	f423 6380 	biceq.w	r3, r3, #1024	@ 0x400
 8005236:	6013      	streq	r3, [r2, #0]
 8005238:	6913      	ldr	r3, [r2, #16]
 800523a:	704b      	strb	r3, [r1, #1]
 800523c:	e76f      	b.n	800511e <HAL_I2C_Mem_Read+0x156>
 800523e:	bf00      	nop
 8005240:	00100002 	.word	0x00100002
 8005244:	ffff0000 	.word	0xffff0000
 8005248:	00010004 	.word	0x00010004
 800524c:	20000058 	.word	0x20000058

08005250 <PWR_OverloadWfe>:
 8005250:	bf20      	wfe
 8005252:	bf00      	nop
 8005254:	4770      	bx	lr
	...

08005258 <HAL_PWR_EnableBkUpAccess>:
 8005258:	2201      	movs	r2, #1
 800525a:	4b01      	ldr	r3, [pc, #4]	@ (8005260 <HAL_PWR_EnableBkUpAccess+0x8>)
 800525c:	621a      	str	r2, [r3, #32]
 800525e:	4770      	bx	lr
 8005260:	420e0000 	.word	0x420e0000

08005264 <HAL_PWR_EnterSTOPMode>:
 8005264:	4a0f      	ldr	r2, [pc, #60]	@ (80052a4 <HAL_PWR_EnterSTOPMode+0x40>)
 8005266:	b508      	push	{r3, lr}
 8005268:	6813      	ldr	r3, [r2, #0]
 800526a:	2901      	cmp	r1, #1
 800526c:	f023 0302 	bic.w	r3, r3, #2
 8005270:	6013      	str	r3, [r2, #0]
 8005272:	6813      	ldr	r3, [r2, #0]
 8005274:	f023 0301 	bic.w	r3, r3, #1
 8005278:	ea43 0300 	orr.w	r3, r3, r0
 800527c:	6013      	str	r3, [r2, #0]
 800527e:	4b0a      	ldr	r3, [pc, #40]	@ (80052a8 <HAL_PWR_EnterSTOPMode+0x44>)
 8005280:	691a      	ldr	r2, [r3, #16]
 8005282:	f042 0204 	orr.w	r2, r2, #4
 8005286:	611a      	str	r2, [r3, #16]
 8005288:	d105      	bne.n	8005296 <HAL_PWR_EnterSTOPMode+0x32>
 800528a:	bf30      	wfi
 800528c:	691a      	ldr	r2, [r3, #16]
 800528e:	f022 0204 	bic.w	r2, r2, #4
 8005292:	611a      	str	r2, [r3, #16]
 8005294:	bd08      	pop	{r3, pc}
 8005296:	bf40      	sev
 8005298:	f7ff ffda 	bl	8005250 <PWR_OverloadWfe>
 800529c:	f7ff ffd8 	bl	8005250 <PWR_OverloadWfe>
 80052a0:	e7f4      	b.n	800528c <HAL_PWR_EnterSTOPMode+0x28>
 80052a2:	bf00      	nop
 80052a4:	40007000 	.word	0x40007000
 80052a8:	e000ed00 	.word	0xe000ed00

080052ac <HAL_RCC_OscConfig>:
 80052ac:	e92d 41f3 	stmdb	sp!, {r0, r1, r4, r5, r6, r7, r8, lr}
 80052b0:	4605      	mov	r5, r0
 80052b2:	b338      	cbz	r0, 8005304 <HAL_RCC_OscConfig+0x58>
 80052b4:	6803      	ldr	r3, [r0, #0]
 80052b6:	07db      	lsls	r3, r3, #31
 80052b8:	d410      	bmi.n	80052dc <HAL_RCC_OscConfig+0x30>
 80052ba:	682b      	ldr	r3, [r5, #0]
 80052bc:	079f      	lsls	r7, r3, #30
 80052be:	d45e      	bmi.n	800537e <HAL_RCC_OscConfig+0xd2>
 80052c0:	682b      	ldr	r3, [r5, #0]
 80052c2:	0719      	lsls	r1, r3, #28
 80052c4:	f100 8095 	bmi.w	80053f2 <HAL_RCC_OscConfig+0x146>
 80052c8:	682b      	ldr	r3, [r5, #0]
 80052ca:	075a      	lsls	r2, r3, #29
 80052cc:	f100 80c1 	bmi.w	8005452 <HAL_RCC_OscConfig+0x1a6>
 80052d0:	69eb      	ldr	r3, [r5, #28]
 80052d2:	2b00      	cmp	r3, #0
 80052d4:	f040 812c 	bne.w	8005530 <HAL_RCC_OscConfig+0x284>
 80052d8:	2000      	movs	r0, #0
 80052da:	e029      	b.n	8005330 <HAL_RCC_OscConfig+0x84>
 80052dc:	4c90      	ldr	r4, [pc, #576]	@ (8005520 <HAL_RCC_OscConfig+0x274>)
 80052de:	6863      	ldr	r3, [r4, #4]
 80052e0:	f003 030c 	and.w	r3, r3, #12
 80052e4:	2b04      	cmp	r3, #4
 80052e6:	d007      	beq.n	80052f8 <HAL_RCC_OscConfig+0x4c>
 80052e8:	6863      	ldr	r3, [r4, #4]
 80052ea:	f003 030c 	and.w	r3, r3, #12
 80052ee:	2b08      	cmp	r3, #8
 80052f0:	d10a      	bne.n	8005308 <HAL_RCC_OscConfig+0x5c>
 80052f2:	6863      	ldr	r3, [r4, #4]
 80052f4:	03de      	lsls	r6, r3, #15
 80052f6:	d507      	bpl.n	8005308 <HAL_RCC_OscConfig+0x5c>
 80052f8:	6823      	ldr	r3, [r4, #0]
 80052fa:	039c      	lsls	r4, r3, #14
 80052fc:	d5dd      	bpl.n	80052ba <HAL_RCC_OscConfig+0xe>
 80052fe:	686b      	ldr	r3, [r5, #4]
 8005300:	2b00      	cmp	r3, #0
 8005302:	d1da      	bne.n	80052ba <HAL_RCC_OscConfig+0xe>
 8005304:	2001      	movs	r0, #1
 8005306:	e013      	b.n	8005330 <HAL_RCC_OscConfig+0x84>
 8005308:	686b      	ldr	r3, [r5, #4]
 800530a:	f5b3 3f80 	cmp.w	r3, #65536	@ 0x10000
 800530e:	d112      	bne.n	8005336 <HAL_RCC_OscConfig+0x8a>
 8005310:	6823      	ldr	r3, [r4, #0]
 8005312:	f443 3380 	orr.w	r3, r3, #65536	@ 0x10000
 8005316:	6023      	str	r3, [r4, #0]
 8005318:	f7fe fc44 	bl	8003ba4 <HAL_GetTick>
 800531c:	4606      	mov	r6, r0
 800531e:	6823      	ldr	r3, [r4, #0]
 8005320:	0398      	lsls	r0, r3, #14
 8005322:	d4ca      	bmi.n	80052ba <HAL_RCC_OscConfig+0xe>
 8005324:	f7fe fc3e 	bl	8003ba4 <HAL_GetTick>
 8005328:	1b80      	subs	r0, r0, r6
 800532a:	2864      	cmp	r0, #100	@ 0x64
 800532c:	d9f7      	bls.n	800531e <HAL_RCC_OscConfig+0x72>
 800532e:	2003      	movs	r0, #3
 8005330:	b002      	add	sp, #8
 8005332:	e8bd 81f0 	ldmia.w	sp!, {r4, r5, r6, r7, r8, pc}
 8005336:	b99b      	cbnz	r3, 8005360 <HAL_RCC_OscConfig+0xb4>
 8005338:	6823      	ldr	r3, [r4, #0]
 800533a:	f423 3380 	bic.w	r3, r3, #65536	@ 0x10000
 800533e:	6023      	str	r3, [r4, #0]
 8005340:	6823      	ldr	r3, [r4, #0]
 8005342:	f423 2380 	bic.w	r3, r3, #262144	@ 0x40000
 8005346:	6023      	str	r3, [r4, #0]
 8005348:	f7fe fc2c 	bl	8003ba4 <HAL_GetTick>
 800534c:	4606      	mov	r6, r0
 800534e:	6823      	ldr	r3, [r4, #0]
 8005350:	0399      	lsls	r1, r3, #14
 8005352:	d5b2      	bpl.n	80052ba <HAL_RCC_OscConfig+0xe>
 8005354:	f7fe fc26 	bl	8003ba4 <HAL_GetTick>
 8005358:	1b80      	subs	r0, r0, r6
 800535a:	2864      	cmp	r0, #100	@ 0x64
 800535c:	d9f7      	bls.n	800534e <HAL_RCC_OscConfig+0xa2>
 800535e:	e7e6      	b.n	800532e <HAL_RCC_OscConfig+0x82>
 8005360:	f5b3 2fa0 	cmp.w	r3, #327680	@ 0x50000
 8005364:	6823      	ldr	r3, [r4, #0]
 8005366:	d103      	bne.n	8005370 <HAL_RCC_OscConfig+0xc4>
 8005368:	f443 2380 	orr.w	r3, r3, #262144	@ 0x40000
 800536c:	6023      	str	r3, [r4, #0]
 800536e:	e7cf      	b.n	8005310 <HAL_RCC_OscConfig+0x64>
 8005370:	f423 3380 	bic.w	r3, r3, #65536	@ 0x10000
 8005374:	6023      	str	r3, [r4, #0]
 8005376:	6823      	ldr	r3, [r4, #0]
 8005378:	f423 2380 	bic.w	r3, r3, #262144	@ 0x40000
 800537c:	e7cb      	b.n	8005316 <HAL_RCC_OscConfig+0x6a>
 800537e:	4c68      	ldr	r4, [pc, #416]	@ (8005520 <HAL_RCC_OscConfig+0x274>)
 8005380:	6863      	ldr	r3, [r4, #4]
 8005382:	f013 0f0c 	tst.w	r3, #12
 8005386:	d007      	beq.n	8005398 <HAL_RCC_OscConfig+0xec>
 8005388:	6863      	ldr	r3, [r4, #4]
 800538a:	f003 030c 	and.w	r3, r3, #12
 800538e:	2b08      	cmp	r3, #8
 8005390:	d110      	bne.n	80053b4 <HAL_RCC_OscConfig+0x108>
 8005392:	6863      	ldr	r3, [r4, #4]
 8005394:	03da      	lsls	r2, r3, #15
 8005396:	d40d      	bmi.n	80053b4 <HAL_RCC_OscConfig+0x108>
 8005398:	6823      	ldr	r3, [r4, #0]
 800539a:	079b      	lsls	r3, r3, #30
 800539c:	d502      	bpl.n	80053a4 <HAL_RCC_OscConfig+0xf8>
 800539e:	692b      	ldr	r3, [r5, #16]
 80053a0:	2b01      	cmp	r3, #1
 80053a2:	d1af      	bne.n	8005304 <HAL_RCC_OscConfig+0x58>
 80053a4:	6823      	ldr	r3, [r4, #0]
 80053a6:	696a      	ldr	r2, [r5, #20]
 80053a8:	f023 03f8 	bic.w	r3, r3, #248	@ 0xf8
 80053ac:	ea43 03c2 	orr.w	r3, r3, r2, lsl #3
 80053b0:	6023      	str	r3, [r4, #0]
 80053b2:	e785      	b.n	80052c0 <HAL_RCC_OscConfig+0x14>
 80053b4:	692a      	ldr	r2, [r5, #16]
 80053b6:	4b5b      	ldr	r3, [pc, #364]	@ (8005524 <HAL_RCC_OscConfig+0x278>)
 80053b8:	b16a      	cbz	r2, 80053d6 <HAL_RCC_OscConfig+0x12a>
 80053ba:	2201      	movs	r2, #1
 80053bc:	601a      	str	r2, [r3, #0]
 80053be:	f7fe fbf1 	bl	8003ba4 <HAL_GetTick>
 80053c2:	4606      	mov	r6, r0
 80053c4:	6823      	ldr	r3, [r4, #0]
 80053c6:	079f      	lsls	r7, r3, #30
 80053c8:	d4ec      	bmi.n	80053a4 <HAL_RCC_OscConfig+0xf8>
 80053ca:	f7fe fbeb 	bl	8003ba4 <HAL_GetTick>
 80053ce:	1b80      	subs	r0, r0, r6
 80053d0:	2802      	cmp	r0, #2
 80053d2:	d9f7      	bls.n	80053c4 <HAL_RCC_OscConfig+0x118>
 80053d4:	e7ab      	b.n	800532e <HAL_RCC_OscConfig+0x82>
 80053d6:	601a      	str	r2, [r3, #0]
 80053d8:	f7fe fbe4 	bl	8003ba4 <HAL_GetTick>
 80053dc:	4606      	mov	r6, r0
 80053de:	6823      	ldr	r3, [r4, #0]
 80053e0:	0798      	lsls	r0, r3, #30
 80053e2:	f57f af6d 	bpl.w	80052c0 <HAL_RCC_OscConfig+0x14>
 80053e6:	f7fe fbdd 	bl	8003ba4 <HAL_GetTick>
 80053ea:	1b80      	subs	r0, r0, r6
 80053ec:	2802      	cmp	r0, #2
 80053ee:	d9f6      	bls.n	80053de <HAL_RCC_OscConfig+0x132>
 80053f0:	e79d      	b.n	800532e <HAL_RCC_OscConfig+0x82>
 80053f2:	69aa      	ldr	r2, [r5, #24]
 80053f4:	4e4a      	ldr	r6, [pc, #296]	@ (8005520 <HAL_RCC_OscConfig+0x274>)
 80053f6:	4b4b      	ldr	r3, [pc, #300]	@ (8005524 <HAL_RCC_OscConfig+0x278>)
 80053f8:	b1e2      	cbz	r2, 8005434 <HAL_RCC_OscConfig+0x188>
 80053fa:	2201      	movs	r2, #1
 80053fc:	f8c3 2480 	str.w	r2, [r3, #1152]	@ 0x480
 8005400:	f7fe fbd0 	bl	8003ba4 <HAL_GetTick>
 8005404:	4604      	mov	r4, r0
 8005406:	6a73      	ldr	r3, [r6, #36]	@ 0x24
 8005408:	079b      	lsls	r3, r3, #30
 800540a:	d50d      	bpl.n	8005428 <HAL_RCC_OscConfig+0x17c>
 800540c:	f44f 52fa 	mov.w	r2, #8000	@ 0x1f40
 8005410:	4b45      	ldr	r3, [pc, #276]	@ (8005528 <HAL_RCC_OscConfig+0x27c>)
 8005412:	681b      	ldr	r3, [r3, #0]
 8005414:	fbb3 f3f2 	udiv	r3, r3, r2
 8005418:	9301      	str	r3, [sp, #4]
 800541a:	bf00      	nop
 800541c:	9b01      	ldr	r3, [sp, #4]
 800541e:	1e5a      	subs	r2, r3, #1
 8005420:	9201      	str	r2, [sp, #4]
 8005422:	2b00      	cmp	r3, #0
 8005424:	d1f9      	bne.n	800541a <HAL_RCC_OscConfig+0x16e>
 8005426:	e74f      	b.n	80052c8 <HAL_RCC_OscConfig+0x1c>
 8005428:	f7fe fbbc 	bl	8003ba4 <HAL_GetTick>
 800542c:	1b00      	subs	r0, r0, r4
 800542e:	2802      	cmp	r0, #2
 8005430:	d9e9      	bls.n	8005406 <HAL_RCC_OscConfig+0x15a>
 8005432:	e77c      	b.n	800532e <HAL_RCC_OscConfig+0x82>
 8005434:	f8c3 2480 	str.w	r2, [r3, #1152]	@ 0x480
 8005438:	f7fe fbb4 	bl	8003ba4 <HAL_GetTick>
 800543c:	4604      	mov	r4, r0
 800543e:	6a73      	ldr	r3, [r6, #36]	@ 0x24
 8005440:	079f      	lsls	r7, r3, #30
 8005442:	f57f af41 	bpl.w	80052c8 <HAL_RCC_OscConfig+0x1c>
 8005446:	f7fe fbad 	bl	8003ba4 <HAL_GetTick>
 800544a:	1b00      	subs	r0, r0, r4
 800544c:	2802      	cmp	r0, #2
 800544e:	d9f6      	bls.n	800543e <HAL_RCC_OscConfig+0x192>
 8005450:	e76d      	b.n	800532e <HAL_RCC_OscConfig+0x82>
 8005452:	4c33      	ldr	r4, [pc, #204]	@ (8005520 <HAL_RCC_OscConfig+0x274>)
 8005454:	69e3      	ldr	r3, [r4, #28]
 8005456:	00d8      	lsls	r0, r3, #3
 8005458:	d424      	bmi.n	80054a4 <HAL_RCC_OscConfig+0x1f8>
 800545a:	2701      	movs	r7, #1
 800545c:	69e3      	ldr	r3, [r4, #28]
 800545e:	f043 5380 	orr.w	r3, r3, #268435456	@ 0x10000000
 8005462:	61e3      	str	r3, [r4, #28]
 8005464:	69e3      	ldr	r3, [r4, #28]
 8005466:	f003 5380 	and.w	r3, r3, #268435456	@ 0x10000000
 800546a:	9300      	str	r3, [sp, #0]
 800546c:	9b00      	ldr	r3, [sp, #0]
 800546e:	4e2f      	ldr	r6, [pc, #188]	@ (800552c <HAL_RCC_OscConfig+0x280>)
 8005470:	6833      	ldr	r3, [r6, #0]
 8005472:	05d9      	lsls	r1, r3, #23
 8005474:	d518      	bpl.n	80054a8 <HAL_RCC_OscConfig+0x1fc>
 8005476:	68eb      	ldr	r3, [r5, #12]
 8005478:	2b01      	cmp	r3, #1
 800547a:	d126      	bne.n	80054ca <HAL_RCC_OscConfig+0x21e>
 800547c:	6a23      	ldr	r3, [r4, #32]
 800547e:	f043 0301 	orr.w	r3, r3, #1
 8005482:	6223      	str	r3, [r4, #32]
 8005484:	f7fe fb8e 	bl	8003ba4 <HAL_GetTick>
 8005488:	f241 3888 	movw	r8, #5000	@ 0x1388
 800548c:	4606      	mov	r6, r0
 800548e:	6a23      	ldr	r3, [r4, #32]
 8005490:	079b      	lsls	r3, r3, #30
 8005492:	d53f      	bpl.n	8005514 <HAL_RCC_OscConfig+0x268>
 8005494:	2f00      	cmp	r7, #0
 8005496:	f43f af1b 	beq.w	80052d0 <HAL_RCC_OscConfig+0x24>
 800549a:	69e3      	ldr	r3, [r4, #28]
 800549c:	f023 5380 	bic.w	r3, r3, #268435456	@ 0x10000000
 80054a0:	61e3      	str	r3, [r4, #28]
 80054a2:	e715      	b.n	80052d0 <HAL_RCC_OscConfig+0x24>
 80054a4:	2700      	movs	r7, #0
 80054a6:	e7e2      	b.n	800546e <HAL_RCC_OscConfig+0x1c2>
 80054a8:	6833      	ldr	r3, [r6, #0]
 80054aa:	f443 7380 	orr.w	r3, r3, #256	@ 0x100
 80054ae:	6033      	str	r3, [r6, #0]
 80054b0:	f7fe fb78 	bl	8003ba4 <HAL_GetTick>
 80054b4:	4680      	mov	r8, r0
 80054b6:	6833      	ldr	r3, [r6, #0]
 80054b8:	05da      	lsls	r2, r3, #23
 80054ba:	d4dc      	bmi.n	8005476 <HAL_RCC_OscConfig+0x1ca>
 80054bc:	f7fe fb72 	bl	8003ba4 <HAL_GetTick>
 80054c0:	eba0 0008 	sub.w	r0, r0, r8
 80054c4:	2864      	cmp	r0, #100	@ 0x64
 80054c6:	d9f6      	bls.n	80054b6 <HAL_RCC_OscConfig+0x20a>
 80054c8:	e731      	b.n	800532e <HAL_RCC_OscConfig+0x82>
 80054ca:	b9ab      	cbnz	r3, 80054f8 <HAL_RCC_OscConfig+0x24c>
 80054cc:	6a23      	ldr	r3, [r4, #32]
 80054ce:	f241 3888 	movw	r8, #5000	@ 0x1388
 80054d2:	f023 0301 	bic.w	r3, r3, #1
 80054d6:	6223      	str	r3, [r4, #32]
 80054d8:	6a23      	ldr	r3, [r4, #32]
 80054da:	f023 0304 	bic.w	r3, r3, #4
 80054de:	6223      	str	r3, [r4, #32]
 80054e0:	f7fe fb60 	bl	8003ba4 <HAL_GetTick>
 80054e4:	4606      	mov	r6, r0
 80054e6:	6a23      	ldr	r3, [r4, #32]
 80054e8:	0798      	lsls	r0, r3, #30
 80054ea:	d5d3      	bpl.n	8005494 <HAL_RCC_OscConfig+0x1e8>
 80054ec:	f7fe fb5a 	bl	8003ba4 <HAL_GetTick>
 80054f0:	1b80      	subs	r0, r0, r6
 80054f2:	4540      	cmp	r0, r8
 80054f4:	d9f7      	bls.n	80054e6 <HAL_RCC_OscConfig+0x23a>
 80054f6:	e71a      	b.n	800532e <HAL_RCC_OscConfig+0x82>
 80054f8:	2b05      	cmp	r3, #5
 80054fa:	6a23      	ldr	r3, [r4, #32]
 80054fc:	d103      	bne.n	8005506 <HAL_RCC_OscConfig+0x25a>
 80054fe:	f043 0304 	orr.w	r3, r3, #4
 8005502:	6223      	str	r3, [r4, #32]
 8005504:	e7ba      	b.n	800547c <HAL_RCC_OscConfig+0x1d0>
 8005506:	f023 0301 	bic.w	r3, r3, #1
 800550a:	6223      	str	r3, [r4, #32]
 800550c:	6a23      	ldr	r3, [r4, #32]
 800550e:	f023 0304 	bic.w	r3, r3, #4
 8005512:	e7b6      	b.n	8005482 <HAL_RCC_OscConfig+0x1d6>
 8005514:	f7fe fb46 	bl	8003ba4 <HAL_GetTick>
 8005518:	1b80      	subs	r0, r0, r6
 800551a:	4540      	cmp	r0, r8
 800551c:	d9b7      	bls.n	800548e <HAL_RCC_OscConfig+0x1e2>
 800551e:	e706      	b.n	800532e <HAL_RCC_OscConfig+0x82>
 8005520:	40021000 	.word	0x40021000
 8005524:	42420000 	.word	0x42420000
 8005528:	20000058 	.word	0x20000058
 800552c:	40007000 	.word	0x40007000
 8005530:	4c2a      	ldr	r4, [pc, #168]	@ (80055dc <HAL_RCC_OscConfig+0x330>)
 8005532:	6862      	ldr	r2, [r4, #4]
 8005534:	f002 020c 	and.w	r2, r2, #12
 8005538:	2a08      	cmp	r2, #8
 800553a:	d03e      	beq.n	80055ba <HAL_RCC_OscConfig+0x30e>
 800553c:	2200      	movs	r2, #0
 800553e:	2b02      	cmp	r3, #2
 8005540:	4b27      	ldr	r3, [pc, #156]	@ (80055e0 <HAL_RCC_OscConfig+0x334>)
 8005542:	661a      	str	r2, [r3, #96]	@ 0x60
 8005544:	d12c      	bne.n	80055a0 <HAL_RCC_OscConfig+0x2f4>
 8005546:	f7fe fb2d 	bl	8003ba4 <HAL_GetTick>
 800554a:	4606      	mov	r6, r0
 800554c:	6823      	ldr	r3, [r4, #0]
 800554e:	0199      	lsls	r1, r3, #6
 8005550:	d420      	bmi.n	8005594 <HAL_RCC_OscConfig+0x2e8>
 8005552:	6a2b      	ldr	r3, [r5, #32]
 8005554:	f5b3 3f80 	cmp.w	r3, #65536	@ 0x10000
 8005558:	d105      	bne.n	8005566 <HAL_RCC_OscConfig+0x2ba>
 800555a:	6862      	ldr	r2, [r4, #4]
 800555c:	68a9      	ldr	r1, [r5, #8]
 800555e:	f422 3200 	bic.w	r2, r2, #131072	@ 0x20000
 8005562:	430a      	orrs	r2, r1
 8005564:	6062      	str	r2, [r4, #4]
 8005566:	6a69      	ldr	r1, [r5, #36]	@ 0x24
 8005568:	6862      	ldr	r2, [r4, #4]
 800556a:	430b      	orrs	r3, r1
 800556c:	f422 1274 	bic.w	r2, r2, #3997696	@ 0x3d0000
 8005570:	4313      	orrs	r3, r2
 8005572:	2201      	movs	r2, #1
 8005574:	6063      	str	r3, [r4, #4]
 8005576:	4b1a      	ldr	r3, [pc, #104]	@ (80055e0 <HAL_RCC_OscConfig+0x334>)
 8005578:	661a      	str	r2, [r3, #96]	@ 0x60
 800557a:	f7fe fb13 	bl	8003ba4 <HAL_GetTick>
 800557e:	4605      	mov	r5, r0
 8005580:	6823      	ldr	r3, [r4, #0]
 8005582:	019a      	lsls	r2, r3, #6
 8005584:	f53f aea8 	bmi.w	80052d8 <HAL_RCC_OscConfig+0x2c>
 8005588:	f7fe fb0c 	bl	8003ba4 <HAL_GetTick>
 800558c:	1b40      	subs	r0, r0, r5
 800558e:	2802      	cmp	r0, #2
 8005590:	d9f6      	bls.n	8005580 <HAL_RCC_OscConfig+0x2d4>
 8005592:	e6cc      	b.n	800532e <HAL_RCC_OscConfig+0x82>
 8005594:	f7fe fb06 	bl	8003ba4 <HAL_GetTick>
 8005598:	1b80      	subs	r0, r0, r6
 800559a:	2802      	cmp	r0, #2
 800559c:	d9d6      	bls.n	800554c <HAL_RCC_OscConfig+0x2a0>
 800559e:	e6c6      	b.n	800532e <HAL_RCC_OscConfig+0x82>
 80055a0:	f7fe fb00 	bl	8003ba4 <HAL_GetTick>
 80055a4:	4605      	mov	r5, r0
 80055a6:	6823      	ldr	r3, [r4, #0]
 80055a8:	019b      	lsls	r3, r3, #6
 80055aa:	f57f ae95 	bpl.w	80052d8 <HAL_RCC_OscConfig+0x2c>
 80055ae:	f7fe faf9 	bl	8003ba4 <HAL_GetTick>
 80055b2:	1b40      	subs	r0, r0, r5
 80055b4:	2802      	cmp	r0, #2
 80055b6:	d9f6      	bls.n	80055a6 <HAL_RCC_OscConfig+0x2fa>
 80055b8:	e6b9      	b.n	800532e <HAL_RCC_OscConfig+0x82>
 80055ba:	2b01      	cmp	r3, #1
 80055bc:	f43f aea2 	beq.w	8005304 <HAL_RCC_OscConfig+0x58>
 80055c0:	6860      	ldr	r0, [r4, #4]
 80055c2:	6a2b      	ldr	r3, [r5, #32]
 80055c4:	f400 3280 	and.w	r2, r0, #65536	@ 0x10000
 80055c8:	429a      	cmp	r2, r3
 80055ca:	f47f ae9b 	bne.w	8005304 <HAL_RCC_OscConfig+0x58>
 80055ce:	6a6b      	ldr	r3, [r5, #36]	@ 0x24
 80055d0:	f400 1070 	and.w	r0, r0, #3932160	@ 0x3c0000
 80055d4:	1ac0      	subs	r0, r0, r3
 80055d6:	bf18      	it	ne
 80055d8:	2001      	movne	r0, #1
 80055da:	e6a9      	b.n	8005330 <HAL_RCC_OscConfig+0x84>
 80055dc:	40021000 	.word	0x40021000
 80055e0:	42420000 	.word	0x42420000

080055e4 <HAL_RCC_GetSysClockFreq>:
 80055e4:	4a0d      	ldr	r2, [pc, #52]	@ (800561c <HAL_RCC_GetSysClockFreq+0x38>)
 80055e6:	6853      	ldr	r3, [r2, #4]
 80055e8:	f003 010c 	and.w	r1, r3, #12
 80055ec:	2908      	cmp	r1, #8
 80055ee:	d112      	bne.n	8005616 <HAL_RCC_GetSysClockFreq+0x32>
 80055f0:	480b      	ldr	r0, [pc, #44]	@ (8005620 <HAL_RCC_GetSysClockFreq+0x3c>)
 80055f2:	f3c3 4183 	ubfx	r1, r3, #18, #4
 80055f6:	03db      	lsls	r3, r3, #15
 80055f8:	5c40      	ldrb	r0, [r0, r1]
 80055fa:	d509      	bpl.n	8005610 <HAL_RCC_GetSysClockFreq+0x2c>
 80055fc:	6853      	ldr	r3, [r2, #4]
 80055fe:	4a09      	ldr	r2, [pc, #36]	@ (8005624 <HAL_RCC_GetSysClockFreq+0x40>)
 8005600:	f3c3 4340 	ubfx	r3, r3, #17, #1
 8005604:	4350      	muls	r0, r2
 8005606:	4a08      	ldr	r2, [pc, #32]	@ (8005628 <HAL_RCC_GetSysClockFreq+0x44>)
 8005608:	5cd3      	ldrb	r3, [r2, r3]
 800560a:	fbb0 f0f3 	udiv	r0, r0, r3
 800560e:	4770      	bx	lr
 8005610:	4b06      	ldr	r3, [pc, #24]	@ (800562c <HAL_RCC_GetSysClockFreq+0x48>)
 8005612:	4358      	muls	r0, r3
 8005614:	4770      	bx	lr
 8005616:	4803      	ldr	r0, [pc, #12]	@ (8005624 <HAL_RCC_GetSysClockFreq+0x40>)
 8005618:	4770      	bx	lr
 800561a:	bf00      	nop
 800561c:	40021000 	.word	0x40021000
 8005620:	08009e60 	.word	0x08009e60
 8005624:	007a1200 	.word	0x007a1200
 8005628:	08009e5e 	.word	0x08009e5e
 800562c:	003d0900 	.word	0x003d0900

08005630 <HAL_RCC_ClockConfig>:
 8005630:	e92d 41f0 	stmdb	sp!, {r4, r5, r6, r7, r8, lr}
 8005634:	460d      	mov	r5, r1
 8005636:	4604      	mov	r4, r0
 8005638:	b910      	cbnz	r0, 8005640 <HAL_RCC_ClockConfig+0x10>
 800563a:	2001      	movs	r0, #1
 800563c:	e8bd 81f0 	ldmia.w	sp!, {r4, r5, r6, r7, r8, pc}
 8005640:	4a44      	ldr	r2, [pc, #272]	@ (8005754 <HAL_RCC_ClockConfig+0x124>)
 8005642:	6813      	ldr	r3, [r2, #0]
 8005644:	f003 0307 	and.w	r3, r3, #7
 8005648:	428b      	cmp	r3, r1
 800564a:	d328      	bcc.n	800569e <HAL_RCC_ClockConfig+0x6e>
 800564c:	6821      	ldr	r1, [r4, #0]
 800564e:	078e      	lsls	r6, r1, #30
 8005650:	d430      	bmi.n	80056b4 <HAL_RCC_ClockConfig+0x84>
 8005652:	07ca      	lsls	r2, r1, #31
 8005654:	d443      	bmi.n	80056de <HAL_RCC_ClockConfig+0xae>
 8005656:	4a3f      	ldr	r2, [pc, #252]	@ (8005754 <HAL_RCC_ClockConfig+0x124>)
 8005658:	6813      	ldr	r3, [r2, #0]
 800565a:	f003 0307 	and.w	r3, r3, #7
 800565e:	42ab      	cmp	r3, r5
 8005660:	d865      	bhi.n	800572e <HAL_RCC_ClockConfig+0xfe>
 8005662:	6822      	ldr	r2, [r4, #0]
 8005664:	4d3c      	ldr	r5, [pc, #240]	@ (8005758 <HAL_RCC_ClockConfig+0x128>)
 8005666:	f012 0f04 	tst.w	r2, #4
 800566a:	d16c      	bne.n	8005746 <HAL_RCC_ClockConfig+0x116>
 800566c:	0713      	lsls	r3, r2, #28
 800566e:	d506      	bpl.n	800567e <HAL_RCC_ClockConfig+0x4e>
 8005670:	686b      	ldr	r3, [r5, #4]
 8005672:	6922      	ldr	r2, [r4, #16]
 8005674:	f423 5360 	bic.w	r3, r3, #14336	@ 0x3800
 8005678:	ea43 03c2 	orr.w	r3, r3, r2, lsl #3
 800567c:	606b      	str	r3, [r5, #4]
 800567e:	f7ff ffb1 	bl	80055e4 <HAL_RCC_GetSysClockFreq>
 8005682:	686b      	ldr	r3, [r5, #4]
 8005684:	4a35      	ldr	r2, [pc, #212]	@ (800575c <HAL_RCC_ClockConfig+0x12c>)
 8005686:	f3c3 1303 	ubfx	r3, r3, #4, #4
 800568a:	5cd3      	ldrb	r3, [r2, r3]
 800568c:	40d8      	lsrs	r0, r3
 800568e:	4b34      	ldr	r3, [pc, #208]	@ (8005760 <HAL_RCC_ClockConfig+0x130>)
 8005690:	6018      	str	r0, [r3, #0]
 8005692:	4b34      	ldr	r3, [pc, #208]	@ (8005764 <HAL_RCC_ClockConfig+0x134>)
 8005694:	6818      	ldr	r0, [r3, #0]
 8005696:	f7fe fa43 	bl	8003b20 <HAL_InitTick>
 800569a:	2000      	movs	r0, #0
 800569c:	e7ce      	b.n	800563c <HAL_RCC_ClockConfig+0xc>
 800569e:	6813      	ldr	r3, [r2, #0]
 80056a0:	f023 0307 	bic.w	r3, r3, #7
 80056a4:	430b      	orrs	r3, r1
 80056a6:	6013      	str	r3, [r2, #0]
 80056a8:	6813      	ldr	r3, [r2, #0]
 80056aa:	f003 0307 	and.w	r3, r3, #7
 80056ae:	428b      	cmp	r3, r1
 80056b0:	d1c3      	bne.n	800563a <HAL_RCC_ClockConfig+0xa>
 80056b2:	e7cb      	b.n	800564c <HAL_RCC_ClockConfig+0x1c>
 80056b4:	4b28      	ldr	r3, [pc, #160]	@ (8005758 <HAL_RCC_ClockConfig+0x128>)
 80056b6:	f011 0f04 	tst.w	r1, #4
 80056ba:	bf1e      	ittt	ne
 80056bc:	685a      	ldrne	r2, [r3, #4]
 80056be:	f442 62e0 	orrne.w	r2, r2, #1792	@ 0x700
 80056c2:	605a      	strne	r2, [r3, #4]
 80056c4:	0708      	lsls	r0, r1, #28
 80056c6:	bf42      	ittt	mi
 80056c8:	685a      	ldrmi	r2, [r3, #4]
 80056ca:	f442 5260 	orrmi.w	r2, r2, #14336	@ 0x3800
 80056ce:	605a      	strmi	r2, [r3, #4]
 80056d0:	685a      	ldr	r2, [r3, #4]
 80056d2:	68a0      	ldr	r0, [r4, #8]
 80056d4:	f022 02f0 	bic.w	r2, r2, #240	@ 0xf0
 80056d8:	4302      	orrs	r2, r0
 80056da:	605a      	str	r2, [r3, #4]
 80056dc:	e7b9      	b.n	8005652 <HAL_RCC_ClockConfig+0x22>
 80056de:	6862      	ldr	r2, [r4, #4]
 80056e0:	4e1d      	ldr	r6, [pc, #116]	@ (8005758 <HAL_RCC_ClockConfig+0x128>)
 80056e2:	2a01      	cmp	r2, #1
 80056e4:	6833      	ldr	r3, [r6, #0]
 80056e6:	d11a      	bne.n	800571e <HAL_RCC_ClockConfig+0xee>
 80056e8:	f413 3f00 	tst.w	r3, #131072	@ 0x20000
 80056ec:	d0a5      	beq.n	800563a <HAL_RCC_ClockConfig+0xa>
 80056ee:	6873      	ldr	r3, [r6, #4]
 80056f0:	f241 3888 	movw	r8, #5000	@ 0x1388
 80056f4:	f023 0303 	bic.w	r3, r3, #3
 80056f8:	4313      	orrs	r3, r2
 80056fa:	6073      	str	r3, [r6, #4]
 80056fc:	f7fe fa52 	bl	8003ba4 <HAL_GetTick>
 8005700:	4607      	mov	r7, r0
 8005702:	6873      	ldr	r3, [r6, #4]
 8005704:	6862      	ldr	r2, [r4, #4]
 8005706:	f003 030c 	and.w	r3, r3, #12
 800570a:	ebb3 0f82 	cmp.w	r3, r2, lsl #2
 800570e:	d0a2      	beq.n	8005656 <HAL_RCC_ClockConfig+0x26>
 8005710:	f7fe fa48 	bl	8003ba4 <HAL_GetTick>
 8005714:	1bc0      	subs	r0, r0, r7
 8005716:	4540      	cmp	r0, r8
 8005718:	d9f3      	bls.n	8005702 <HAL_RCC_ClockConfig+0xd2>
 800571a:	2003      	movs	r0, #3
 800571c:	e78e      	b.n	800563c <HAL_RCC_ClockConfig+0xc>
 800571e:	2a02      	cmp	r2, #2
 8005720:	d102      	bne.n	8005728 <HAL_RCC_ClockConfig+0xf8>
 8005722:	f013 7f00 	tst.w	r3, #33554432	@ 0x2000000
 8005726:	e7e1      	b.n	80056ec <HAL_RCC_ClockConfig+0xbc>
 8005728:	f013 0f02 	tst.w	r3, #2
 800572c:	e7de      	b.n	80056ec <HAL_RCC_ClockConfig+0xbc>
 800572e:	6813      	ldr	r3, [r2, #0]
 8005730:	f023 0307 	bic.w	r3, r3, #7
 8005734:	432b      	orrs	r3, r5
 8005736:	6013      	str	r3, [r2, #0]
 8005738:	6813      	ldr	r3, [r2, #0]
 800573a:	f003 0307 	and.w	r3, r3, #7
 800573e:	42ab      	cmp	r3, r5
 8005740:	f47f af7b 	bne.w	800563a <HAL_RCC_ClockConfig+0xa>
 8005744:	e78d      	b.n	8005662 <HAL_RCC_ClockConfig+0x32>
 8005746:	686b      	ldr	r3, [r5, #4]
 8005748:	68e1      	ldr	r1, [r4, #12]
 800574a:	f423 63e0 	bic.w	r3, r3, #1792	@ 0x700
 800574e:	430b      	orrs	r3, r1
 8005750:	606b      	str	r3, [r5, #4]
 8005752:	e78b      	b.n	800566c <HAL_RCC_ClockConfig+0x3c>
 8005754:	40022000 	.word	0x40022000
 8005758:	40021000 	.word	0x40021000
 800575c:	08009e4e 	.word	0x08009e4e
 8005760:	20000058 	.word	0x20000058
 8005764:	20000060 	.word	0x20000060

08005768 <HAL_RCC_GetPCLK1Freq>:
 8005768:	4b04      	ldr	r3, [pc, #16]	@ (800577c <HAL_RCC_GetPCLK1Freq+0x14>)
 800576a:	4a05      	ldr	r2, [pc, #20]	@ (8005780 <HAL_RCC_GetPCLK1Freq+0x18>)
 800576c:	685b      	ldr	r3, [r3, #4]
 800576e:	f3c3 2302 	ubfx	r3, r3, #8, #3
 8005772:	5cd3      	ldrb	r3, [r2, r3]
 8005774:	4a03      	ldr	r2, [pc, #12]	@ (8005784 <HAL_RCC_GetPCLK1Freq+0x1c>)
 8005776:	6810      	ldr	r0, [r2, #0]
 8005778:	40d8      	lsrs	r0, r3
 800577a:	4770      	bx	lr
 800577c:	40021000 	.word	0x40021000
 8005780:	08009e46 	.word	0x08009e46
 8005784:	20000058 	.word	0x20000058

08005788 <HAL_RCC_GetPCLK2Freq>:
 8005788:	4b04      	ldr	r3, [pc, #16]	@ (800579c <HAL_RCC_GetPCLK2Freq+0x14>)
 800578a:	4a05      	ldr	r2, [pc, #20]	@ (80057a0 <HAL_RCC_GetPCLK2Freq+0x18>)
 800578c:	685b      	ldr	r3, [r3, #4]
 800578e:	f3c3 23c2 	ubfx	r3, r3, #11, #3
 8005792:	5cd3      	ldrb	r3, [r2, r3]
 8005794:	4a03      	ldr	r2, [pc, #12]	@ (80057a4 <HAL_RCC_GetPCLK2Freq+0x1c>)
 8005796:	6810      	ldr	r0, [r2, #0]
 8005798:	40d8      	lsrs	r0, r3
 800579a:	4770      	bx	lr
 800579c:	40021000 	.word	0x40021000
 80057a0:	08009e46 	.word	0x08009e46
 80057a4:	20000058 	.word	0x20000058

080057a8 <HAL_RCCEx_PeriphCLKConfig>:
 80057a8:	6803      	ldr	r3, [r0, #0]
 80057aa:	e92d 41f3 	stmdb	sp!, {r0, r1, r4, r5, r6, r7, r8, lr}
 80057ae:	4605      	mov	r5, r0
 80057b0:	07d8      	lsls	r0, r3, #31
 80057b2:	d521      	bpl.n	80057f8 <HAL_RCCEx_PeriphCLKConfig+0x50>
 80057b4:	4c36      	ldr	r4, [pc, #216]	@ (8005890 <HAL_RCCEx_PeriphCLKConfig+0xe8>)
 80057b6:	69e3      	ldr	r3, [r4, #28]
 80057b8:	00d9      	lsls	r1, r3, #3
 80057ba:	d42b      	bmi.n	8005814 <HAL_RCCEx_PeriphCLKConfig+0x6c>
 80057bc:	2601      	movs	r6, #1
 80057be:	69e3      	ldr	r3, [r4, #28]
 80057c0:	f043 5380 	orr.w	r3, r3, #268435456	@ 0x10000000
 80057c4:	61e3      	str	r3, [r4, #28]
 80057c6:	69e3      	ldr	r3, [r4, #28]
 80057c8:	f003 5380 	and.w	r3, r3, #268435456	@ 0x10000000
 80057cc:	9301      	str	r3, [sp, #4]
 80057ce:	9b01      	ldr	r3, [sp, #4]
 80057d0:	4f30      	ldr	r7, [pc, #192]	@ (8005894 <HAL_RCCEx_PeriphCLKConfig+0xec>)
 80057d2:	683b      	ldr	r3, [r7, #0]
 80057d4:	05da      	lsls	r2, r3, #23
 80057d6:	d51f      	bpl.n	8005818 <HAL_RCCEx_PeriphCLKConfig+0x70>
 80057d8:	6a23      	ldr	r3, [r4, #32]
 80057da:	686a      	ldr	r2, [r5, #4]
 80057dc:	f413 7340 	ands.w	r3, r3, #768	@ 0x300
 80057e0:	d12e      	bne.n	8005840 <HAL_RCCEx_PeriphCLKConfig+0x98>
 80057e2:	6a23      	ldr	r3, [r4, #32]
 80057e4:	686a      	ldr	r2, [r5, #4]
 80057e6:	f423 7340 	bic.w	r3, r3, #768	@ 0x300
 80057ea:	4313      	orrs	r3, r2
 80057ec:	6223      	str	r3, [r4, #32]
 80057ee:	b11e      	cbz	r6, 80057f8 <HAL_RCCEx_PeriphCLKConfig+0x50>
 80057f0:	69e3      	ldr	r3, [r4, #28]
 80057f2:	f023 5380 	bic.w	r3, r3, #268435456	@ 0x10000000
 80057f6:	61e3      	str	r3, [r4, #28]
 80057f8:	682a      	ldr	r2, [r5, #0]
 80057fa:	0791      	lsls	r1, r2, #30
 80057fc:	d506      	bpl.n	800580c <HAL_RCCEx_PeriphCLKConfig+0x64>
 80057fe:	4924      	ldr	r1, [pc, #144]	@ (8005890 <HAL_RCCEx_PeriphCLKConfig+0xe8>)
 8005800:	68a8      	ldr	r0, [r5, #8]
 8005802:	684b      	ldr	r3, [r1, #4]
 8005804:	f423 4340 	bic.w	r3, r3, #49152	@ 0xc000
 8005808:	4303      	orrs	r3, r0
 800580a:	604b      	str	r3, [r1, #4]
 800580c:	06d3      	lsls	r3, r2, #27
 800580e:	d436      	bmi.n	800587e <HAL_RCCEx_PeriphCLKConfig+0xd6>
 8005810:	2000      	movs	r0, #0
 8005812:	e012      	b.n	800583a <HAL_RCCEx_PeriphCLKConfig+0x92>
 8005814:	2600      	movs	r6, #0
 8005816:	e7db      	b.n	80057d0 <HAL_RCCEx_PeriphCLKConfig+0x28>
 8005818:	683b      	ldr	r3, [r7, #0]
 800581a:	f443 7380 	orr.w	r3, r3, #256	@ 0x100
 800581e:	603b      	str	r3, [r7, #0]
 8005820:	f7fe f9c0 	bl	8003ba4 <HAL_GetTick>
 8005824:	4680      	mov	r8, r0
 8005826:	683b      	ldr	r3, [r7, #0]
 8005828:	05db      	lsls	r3, r3, #23
 800582a:	d4d5      	bmi.n	80057d8 <HAL_RCCEx_PeriphCLKConfig+0x30>
 800582c:	f7fe f9ba 	bl	8003ba4 <HAL_GetTick>
 8005830:	eba0 0008 	sub.w	r0, r0, r8
 8005834:	2864      	cmp	r0, #100	@ 0x64
 8005836:	d9f6      	bls.n	8005826 <HAL_RCCEx_PeriphCLKConfig+0x7e>
 8005838:	2003      	movs	r0, #3
 800583a:	b002      	add	sp, #8
 800583c:	e8bd 81f0 	ldmia.w	sp!, {r4, r5, r6, r7, r8, pc}
 8005840:	f402 7240 	and.w	r2, r2, #768	@ 0x300
 8005844:	429a      	cmp	r2, r3
 8005846:	d0cc      	beq.n	80057e2 <HAL_RCCEx_PeriphCLKConfig+0x3a>
 8005848:	2001      	movs	r0, #1
 800584a:	4a13      	ldr	r2, [pc, #76]	@ (8005898 <HAL_RCCEx_PeriphCLKConfig+0xf0>)
 800584c:	6a23      	ldr	r3, [r4, #32]
 800584e:	f8c2 0440 	str.w	r0, [r2, #1088]	@ 0x440
 8005852:	2000      	movs	r0, #0
 8005854:	f423 7140 	bic.w	r1, r3, #768	@ 0x300
 8005858:	07df      	lsls	r7, r3, #31
 800585a:	f8c2 0440 	str.w	r0, [r2, #1088]	@ 0x440
 800585e:	6221      	str	r1, [r4, #32]
 8005860:	d5bf      	bpl.n	80057e2 <HAL_RCCEx_PeriphCLKConfig+0x3a>
 8005862:	f7fe f99f 	bl	8003ba4 <HAL_GetTick>
 8005866:	f241 3888 	movw	r8, #5000	@ 0x1388
 800586a:	4607      	mov	r7, r0
 800586c:	6a23      	ldr	r3, [r4, #32]
 800586e:	0798      	lsls	r0, r3, #30
 8005870:	d4b7      	bmi.n	80057e2 <HAL_RCCEx_PeriphCLKConfig+0x3a>
 8005872:	f7fe f997 	bl	8003ba4 <HAL_GetTick>
 8005876:	1bc0      	subs	r0, r0, r7
 8005878:	4540      	cmp	r0, r8
 800587a:	d9f7      	bls.n	800586c <HAL_RCCEx_PeriphCLKConfig+0xc4>
 800587c:	e7dc      	b.n	8005838 <HAL_RCCEx_PeriphCLKConfig+0x90>
 800587e:	4a04      	ldr	r2, [pc, #16]	@ (8005890 <HAL_RCCEx_PeriphCLKConfig+0xe8>)
 8005880:	68e9      	ldr	r1, [r5, #12]
 8005882:	6853      	ldr	r3, [r2, #4]
 8005884:	f423 0380 	bic.w	r3, r3, #4194304	@ 0x400000
 8005888:	430b      	orrs	r3, r1
 800588a:	6053      	str	r3, [r2, #4]
 800588c:	e7c0      	b.n	8005810 <HAL_RCCEx_PeriphCLKConfig+0x68>
 800588e:	bf00      	nop
 8005890:	40021000 	.word	0x40021000
 8005894:	40007000 	.word	0x40007000
 8005898:	42420000 	.word	0x42420000

0800589c <HAL_RCCEx_GetPeriphCLKFreq>:
 800589c:	2802      	cmp	r0, #2
 800589e:	b508      	push	{r3, lr}
 80058a0:	d044      	beq.n	800592c <HAL_RCCEx_GetPeriphCLKFreq+0x90>
 80058a2:	2810      	cmp	r0, #16
 80058a4:	d003      	beq.n	80058ae <HAL_RCCEx_GetPeriphCLKFreq+0x12>
 80058a6:	2801      	cmp	r0, #1
 80058a8:	d022      	beq.n	80058f0 <HAL_RCCEx_GetPeriphCLKFreq+0x54>
 80058aa:	2000      	movs	r0, #0
 80058ac:	e034      	b.n	8005918 <HAL_RCCEx_GetPeriphCLKFreq+0x7c>
 80058ae:	4b25      	ldr	r3, [pc, #148]	@ (8005944 <HAL_RCCEx_GetPeriphCLKFreq+0xa8>)
 80058b0:	685a      	ldr	r2, [r3, #4]
 80058b2:	6818      	ldr	r0, [r3, #0]
 80058b4:	f010 7080 	ands.w	r0, r0, #16777216	@ 0x1000000
 80058b8:	d02e      	beq.n	8005918 <HAL_RCCEx_GetPeriphCLKFreq+0x7c>
 80058ba:	f3c2 4183 	ubfx	r1, r2, #18, #4
 80058be:	4822      	ldr	r0, [pc, #136]	@ (8005948 <HAL_RCCEx_GetPeriphCLKFreq+0xac>)
 80058c0:	03d2      	lsls	r2, r2, #15
 80058c2:	bf48      	it	mi
 80058c4:	685a      	ldrmi	r2, [r3, #4]
 80058c6:	5c40      	ldrb	r0, [r0, r1]
 80058c8:	bf41      	itttt	mi
 80058ca:	4920      	ldrmi	r1, [pc, #128]	@ (800594c <HAL_RCCEx_GetPeriphCLKFreq+0xb0>)
 80058cc:	f3c2 4240 	ubfxmi	r2, r2, #17, #1
 80058d0:	5c89      	ldrbmi	r1, [r1, r2]
 80058d2:	4a1f      	ldrmi	r2, [pc, #124]	@ (8005950 <HAL_RCCEx_GetPeriphCLKFreq+0xb4>)
 80058d4:	685b      	ldr	r3, [r3, #4]
 80058d6:	bf4c      	ite	mi
 80058d8:	fbb2 f2f1 	udivmi	r2, r2, r1
 80058dc:	4a1d      	ldrpl	r2, [pc, #116]	@ (8005954 <HAL_RCCEx_GetPeriphCLKFreq+0xb8>)
 80058de:	025b      	lsls	r3, r3, #9
 80058e0:	fb02 f000 	mul.w	r0, r2, r0
 80058e4:	d418      	bmi.n	8005918 <HAL_RCCEx_GetPeriphCLKFreq+0x7c>
 80058e6:	2303      	movs	r3, #3
 80058e8:	0040      	lsls	r0, r0, #1
 80058ea:	fbb0 f0f3 	udiv	r0, r0, r3
 80058ee:	e013      	b.n	8005918 <HAL_RCCEx_GetPeriphCLKFreq+0x7c>
 80058f0:	f240 3102 	movw	r1, #770	@ 0x302
 80058f4:	4a13      	ldr	r2, [pc, #76]	@ (8005944 <HAL_RCCEx_GetPeriphCLKFreq+0xa8>)
 80058f6:	6a13      	ldr	r3, [r2, #32]
 80058f8:	4019      	ands	r1, r3
 80058fa:	f5b1 7f81 	cmp.w	r1, #258	@ 0x102
 80058fe:	d01e      	beq.n	800593e <HAL_RCCEx_GetPeriphCLKFreq+0xa2>
 8005900:	f403 7340 	and.w	r3, r3, #768	@ 0x300
 8005904:	f5b3 7f00 	cmp.w	r3, #512	@ 0x200
 8005908:	d107      	bne.n	800591a <HAL_RCCEx_GetPeriphCLKFreq+0x7e>
 800590a:	f649 4040 	movw	r0, #40000	@ 0x9c40
 800590e:	6a53      	ldr	r3, [r2, #36]	@ 0x24
 8005910:	f013 0f02 	tst.w	r3, #2
 8005914:	bf08      	it	eq
 8005916:	2000      	moveq	r0, #0
 8005918:	bd08      	pop	{r3, pc}
 800591a:	f5b3 7f40 	cmp.w	r3, #768	@ 0x300
 800591e:	d1c4      	bne.n	80058aa <HAL_RCCEx_GetPeriphCLKFreq+0xe>
 8005920:	6813      	ldr	r3, [r2, #0]
 8005922:	f24f 4024 	movw	r0, #62500	@ 0xf424
 8005926:	f413 3f00 	tst.w	r3, #131072	@ 0x20000
 800592a:	e7f3      	b.n	8005914 <HAL_RCCEx_GetPeriphCLKFreq+0x78>
 800592c:	f7ff ff2c 	bl	8005788 <HAL_RCC_GetPCLK2Freq>
 8005930:	4b04      	ldr	r3, [pc, #16]	@ (8005944 <HAL_RCCEx_GetPeriphCLKFreq+0xa8>)
 8005932:	685b      	ldr	r3, [r3, #4]
 8005934:	f3c3 3381 	ubfx	r3, r3, #14, #2
 8005938:	3301      	adds	r3, #1
 800593a:	005b      	lsls	r3, r3, #1
 800593c:	e7d5      	b.n	80058ea <HAL_RCCEx_GetPeriphCLKFreq+0x4e>
 800593e:	f44f 4000 	mov.w	r0, #32768	@ 0x8000
 8005942:	e7e9      	b.n	8005918 <HAL_RCCEx_GetPeriphCLKFreq+0x7c>
 8005944:	40021000 	.word	0x40021000
 8005948:	08009e72 	.word	0x08009e72
 800594c:	08009e70 	.word	0x08009e70
 8005950:	007a1200 	.word	0x007a1200
 8005954:	003d0900 	.word	0x003d0900

08005958 <RTC_ReadTimeCounter>:
 8005958:	6803      	ldr	r3, [r0, #0]
 800595a:	b530      	push	{r4, r5, lr}
 800595c:	699a      	ldr	r2, [r3, #24]
 800595e:	69d8      	ldr	r0, [r3, #28]
 8005960:	6999      	ldr	r1, [r3, #24]
 8005962:	b295      	uxth	r5, r2
 8005964:	b28c      	uxth	r4, r1
 8005966:	42a5      	cmp	r5, r4
 8005968:	bf17      	itett	ne
 800596a:	69d8      	ldrne	r0, [r3, #28]
 800596c:	b280      	uxtheq	r0, r0
 800596e:	b280      	uxthne	r0, r0
 8005970:	ea40 4001 	orrne.w	r0, r0, r1, lsl #16
 8005974:	bf08      	it	eq
 8005976:	ea40 4002 	orreq.w	r0, r0, r2, lsl #16
 800597a:	bd30      	pop	{r4, r5, pc}

0800597c <RTC_ReadAlarmCounter>:
 800597c:	6803      	ldr	r3, [r0, #0]
 800597e:	6a18      	ldr	r0, [r3, #32]
 8005980:	6a5b      	ldr	r3, [r3, #36]	@ 0x24
 8005982:	b29b      	uxth	r3, r3
 8005984:	ea43 4000 	orr.w	r0, r3, r0, lsl #16
 8005988:	4770      	bx	lr

0800598a <RTC_ByteToBcd2>:
 800598a:	2300      	movs	r3, #0
 800598c:	2809      	cmp	r0, #9
 800598e:	d803      	bhi.n	8005998 <RTC_ByteToBcd2+0xe>
 8005990:	ea40 1003 	orr.w	r0, r0, r3, lsl #4
 8005994:	b2c0      	uxtb	r0, r0
 8005996:	4770      	bx	lr
 8005998:	380a      	subs	r0, #10
 800599a:	3301      	adds	r3, #1
 800599c:	b2c0      	uxtb	r0, r0
 800599e:	e7f5      	b.n	800598c <RTC_ByteToBcd2+0x2>

080059a0 <RTC_Bcd2ToByte>:
 80059a0:	220a      	movs	r2, #10
 80059a2:	0903      	lsrs	r3, r0, #4
 80059a4:	f000 000f 	and.w	r0, r0, #15
 80059a8:	fb02 0003 	mla	r0, r2, r3, r0
 80059ac:	b2c0      	uxtb	r0, r0
 80059ae:	4770      	bx	lr

080059b0 <RTC_WeekDayNum>:
 80059b0:	b530      	push	{r4, r5, lr}
 80059b2:	2517      	movs	r5, #23
 80059b4:	2309      	movs	r3, #9
 80059b6:	434d      	muls	r5, r1
 80059b8:	2902      	cmp	r1, #2
 80059ba:	fbb5 f5f3 	udiv	r5, r5, r3
 80059be:	f500 64fa 	add.w	r4, r0, #2000	@ 0x7d0
 80059c2:	d817      	bhi.n	80059f4 <RTC_WeekDayNum+0x44>
 80059c4:	f200 73cf 	addw	r3, r0, #1999	@ 0x7cf
 80059c8:	1d10      	adds	r0, r2, #4
 80059ca:	f44f 72c8 	mov.w	r2, #400	@ 0x190
 80059ce:	fbb3 f2f2 	udiv	r2, r3, r2
 80059d2:	4420      	add	r0, r4
 80059d4:	4428      	add	r0, r5
 80059d6:	eb00 0093 	add.w	r0, r0, r3, lsr #2
 80059da:	4410      	add	r0, r2
 80059dc:	2264      	movs	r2, #100	@ 0x64
 80059de:	fbb3 f3f2 	udiv	r3, r3, r2
 80059e2:	1ac0      	subs	r0, r0, r3
 80059e4:	2307      	movs	r3, #7
 80059e6:	fbb0 f3f3 	udiv	r3, r0, r3
 80059ea:	ebc3 03c3 	rsb	r3, r3, r3, lsl #3
 80059ee:	1ac0      	subs	r0, r0, r3
 80059f0:	b2c0      	uxtb	r0, r0
 80059f2:	bd30      	pop	{r4, r5, pc}
 80059f4:	f44f 73c8 	mov.w	r3, #400	@ 0x190
 80059f8:	fbb4 f3f3 	udiv	r3, r4, r3
 80059fc:	1c90      	adds	r0, r2, #2
 80059fe:	4420      	add	r0, r4
 8005a00:	4428      	add	r0, r5
 8005a02:	eb00 0094 	add.w	r0, r0, r4, lsr #2
 8005a06:	4418      	add	r0, r3
 8005a08:	2364      	movs	r3, #100	@ 0x64
 8005a0a:	fbb4 f4f3 	udiv	r4, r4, r3
 8005a0e:	1b00      	subs	r0, r0, r4
 8005a10:	e7e8      	b.n	80059e4 <RTC_WeekDayNum+0x34>

08005a12 <RTC_EnterInitMode>:
 8005a12:	b538      	push	{r3, r4, r5, lr}
 8005a14:	4604      	mov	r4, r0
 8005a16:	f7fe f8c5 	bl	8003ba4 <HAL_GetTick>
 8005a1a:	4605      	mov	r5, r0
 8005a1c:	6823      	ldr	r3, [r4, #0]
 8005a1e:	685a      	ldr	r2, [r3, #4]
 8005a20:	0692      	lsls	r2, r2, #26
 8005a22:	d505      	bpl.n	8005a30 <RTC_EnterInitMode+0x1e>
 8005a24:	2000      	movs	r0, #0
 8005a26:	685a      	ldr	r2, [r3, #4]
 8005a28:	f042 0210 	orr.w	r2, r2, #16
 8005a2c:	605a      	str	r2, [r3, #4]
 8005a2e:	bd38      	pop	{r3, r4, r5, pc}
 8005a30:	f7fe f8b8 	bl	8003ba4 <HAL_GetTick>
 8005a34:	1b40      	subs	r0, r0, r5
 8005a36:	f5b0 7f7a 	cmp.w	r0, #1000	@ 0x3e8
 8005a3a:	d9ef      	bls.n	8005a1c <RTC_EnterInitMode+0xa>
 8005a3c:	2003      	movs	r0, #3
 8005a3e:	e7f6      	b.n	8005a2e <RTC_EnterInitMode+0x1c>

08005a40 <RTC_ExitInitMode>:
 8005a40:	6802      	ldr	r2, [r0, #0]
 8005a42:	b538      	push	{r3, r4, r5, lr}
 8005a44:	6853      	ldr	r3, [r2, #4]
 8005a46:	4604      	mov	r4, r0
 8005a48:	f023 0310 	bic.w	r3, r3, #16
 8005a4c:	6053      	str	r3, [r2, #4]
 8005a4e:	f7fe f8a9 	bl	8003ba4 <HAL_GetTick>
 8005a52:	4605      	mov	r5, r0
 8005a54:	6823      	ldr	r3, [r4, #0]
 8005a56:	685b      	ldr	r3, [r3, #4]
 8005a58:	069b      	lsls	r3, r3, #26
 8005a5a:	d501      	bpl.n	8005a60 <RTC_ExitInitMode+0x20>
 8005a5c:	2000      	movs	r0, #0
 8005a5e:	bd38      	pop	{r3, r4, r5, pc}
 8005a60:	f7fe f8a0 	bl	8003ba4 <HAL_GetTick>
 8005a64:	1b40      	subs	r0, r0, r5
 8005a66:	f5b0 7f7a 	cmp.w	r0, #1000	@ 0x3e8
 8005a6a:	d9f3      	bls.n	8005a54 <RTC_ExitInitMode+0x14>
 8005a6c:	2003      	movs	r0, #3
 8005a6e:	e7f6      	b.n	8005a5e <RTC_ExitInitMode+0x1e>

08005a70 <RTC_WriteTimeCounter>:
 8005a70:	b538      	push	{r3, r4, r5, lr}
 8005a72:	4605      	mov	r5, r0
 8005a74:	460c      	mov	r4, r1
 8005a76:	f7ff ffcc 	bl	8005a12 <RTC_EnterInitMode>
 8005a7a:	b958      	cbnz	r0, 8005a94 <RTC_WriteTimeCounter+0x24>
 8005a7c:	682b      	ldr	r3, [r5, #0]
 8005a7e:	0c22      	lsrs	r2, r4, #16
 8005a80:	b2a4      	uxth	r4, r4
 8005a82:	619a      	str	r2, [r3, #24]
 8005a84:	4628      	mov	r0, r5
 8005a86:	61dc      	str	r4, [r3, #28]
 8005a88:	f7ff ffda 	bl	8005a40 <RTC_ExitInitMode>
 8005a8c:	3800      	subs	r0, #0
 8005a8e:	bf18      	it	ne
 8005a90:	2001      	movne	r0, #1
 8005a92:	bd38      	pop	{r3, r4, r5, pc}
 8005a94:	2001      	movs	r0, #1
 8005a96:	e7fc      	b.n	8005a92 <RTC_WriteTimeCounter+0x22>

08005a98 <RTC_WriteAlarmCounter>:
 8005a98:	b538      	push	{r3, r4, r5, lr}
 8005a9a:	4605      	mov	r5, r0
 8005a9c:	460c      	mov	r4, r1
 8005a9e:	f7ff ffb8 	bl	8005a12 <RTC_EnterInitMode>
 8005aa2:	b958      	cbnz	r0, 8005abc <RTC_WriteAlarmCounter+0x24>
 8005aa4:	682b      	ldr	r3, [r5, #0]
 8005aa6:	0c22      	lsrs	r2, r4, #16
 8005aa8:	b2a4      	uxth	r4, r4
 8005aaa:	621a      	str	r2, [r3, #32]
 8005aac:	4628      	mov	r0, r5
 8005aae:	625c      	str	r4, [r3, #36]	@ 0x24
 8005ab0:	f7ff ffc6 	bl	8005a40 <RTC_ExitInitMode>
 8005ab4:	3800      	subs	r0, #0
 8005ab6:	bf18      	it	ne
 8005ab8:	2001      	movne	r0, #1
 8005aba:	bd38      	pop	{r3, r4, r5, pc}
 8005abc:	2001      	movs	r0, #1
 8005abe:	e7fc      	b.n	8005aba <RTC_WriteAlarmCounter+0x22>

08005ac0 <HAL_RTC_SetTime>:
 8005ac0:	b5f8      	push	{r3, r4, r5, r6, r7, lr}
 8005ac2:	4604      	mov	r4, r0
 8005ac4:	b1e8      	cbz	r0, 8005b02 <HAL_RTC_SetTime+0x42>
 8005ac6:	b1e1      	cbz	r1, 8005b02 <HAL_RTC_SetTime+0x42>
 8005ac8:	7c03      	ldrb	r3, [r0, #16]
 8005aca:	2602      	movs	r6, #2
 8005acc:	2b01      	cmp	r3, #1
 8005ace:	d019      	beq.n	8005b04 <HAL_RTC_SetTime+0x44>
 8005ad0:	2301      	movs	r3, #1
 8005ad2:	7446      	strb	r6, [r0, #17]
 8005ad4:	7403      	strb	r3, [r0, #16]
 8005ad6:	7808      	ldrb	r0, [r1, #0]
 8005ad8:	784d      	ldrb	r5, [r1, #1]
 8005ada:	788f      	ldrb	r7, [r1, #2]
 8005adc:	b9a2      	cbnz	r2, 8005b08 <HAL_RTC_SetTime+0x48>
 8005ade:	233c      	movs	r3, #60	@ 0x3c
 8005ae0:	435d      	muls	r5, r3
 8005ae2:	f44f 6361 	mov.w	r3, #3600	@ 0xe10
 8005ae6:	fb03 5500 	mla	r5, r3, r0, r5
 8005aea:	443d      	add	r5, r7
 8005aec:	4629      	mov	r1, r5
 8005aee:	4620      	mov	r0, r4
 8005af0:	f7ff ffbe 	bl	8005a70 <RTC_WriteTimeCounter>
 8005af4:	4607      	mov	r7, r0
 8005af6:	4606      	mov	r6, r0
 8005af8:	b1c0      	cbz	r0, 8005b2c <HAL_RTC_SetTime+0x6c>
 8005afa:	2304      	movs	r3, #4
 8005afc:	7463      	strb	r3, [r4, #17]
 8005afe:	2300      	movs	r3, #0
 8005b00:	7423      	strb	r3, [r4, #16]
 8005b02:	2601      	movs	r6, #1
 8005b04:	4630      	mov	r0, r6
 8005b06:	bdf8      	pop	{r3, r4, r5, r6, r7, pc}
 8005b08:	f7ff ff4a 	bl	80059a0 <RTC_Bcd2ToByte>
 8005b0c:	4606      	mov	r6, r0
 8005b0e:	4628      	mov	r0, r5
 8005b10:	f7ff ff46 	bl	80059a0 <RTC_Bcd2ToByte>
 8005b14:	233c      	movs	r3, #60	@ 0x3c
 8005b16:	fb03 f100 	mul.w	r1, r3, r0
 8005b1a:	f44f 6361 	mov.w	r3, #3600	@ 0xe10
 8005b1e:	4638      	mov	r0, r7
 8005b20:	fb03 1106 	mla	r1, r3, r6, r1
 8005b24:	f7ff ff3c 	bl	80059a0 <RTC_Bcd2ToByte>
 8005b28:	1845      	adds	r5, r0, r1
 8005b2a:	e7df      	b.n	8005aec <HAL_RTC_SetTime+0x2c>
 8005b2c:	6822      	ldr	r2, [r4, #0]
 8005b2e:	4620      	mov	r0, r4
 8005b30:	6853      	ldr	r3, [r2, #4]
 8005b32:	f023 0305 	bic.w	r3, r3, #5
 8005b36:	6053      	str	r3, [r2, #4]
 8005b38:	f7ff ff20 	bl	800597c <RTC_ReadAlarmCounter>
 8005b3c:	4285      	cmp	r5, r0
 8005b3e:	d90b      	bls.n	8005b58 <HAL_RTC_SetTime+0x98>
 8005b40:	f500 31a8 	add.w	r1, r0, #86016	@ 0x15000
 8005b44:	f501 71c0 	add.w	r1, r1, #384	@ 0x180
 8005b48:	4620      	mov	r0, r4
 8005b4a:	f7ff ffa5 	bl	8005a98 <RTC_WriteAlarmCounter>
 8005b4e:	b118      	cbz	r0, 8005b58 <HAL_RTC_SetTime+0x98>
 8005b50:	2304      	movs	r3, #4
 8005b52:	7427      	strb	r7, [r4, #16]
 8005b54:	7463      	strb	r3, [r4, #17]
 8005b56:	e7d4      	b.n	8005b02 <HAL_RTC_SetTime+0x42>
 8005b58:	2301      	movs	r3, #1
 8005b5a:	7463      	strb	r3, [r4, #17]
 8005b5c:	2300      	movs	r3, #0
 8005b5e:	7423      	strb	r3, [r4, #16]
 8005b60:	e7d0      	b.n	8005b04 <HAL_RTC_SetTime+0x44>
	...

08005b64 <HAL_RTC_GetTime>:
 8005b64:	e92d 47f0 	stmdb	sp!, {r4, r5, r6, r7, r8, r9, sl, lr}
 8005b68:	460e      	mov	r6, r1
 8005b6a:	4617      	mov	r7, r2
 8005b6c:	4605      	mov	r5, r0
 8005b6e:	b910      	cbnz	r0, 8005b76 <HAL_RTC_GetTime+0x12>
 8005b70:	2001      	movs	r0, #1
 8005b72:	e8bd 87f0 	ldmia.w	sp!, {r4, r5, r6, r7, r8, r9, sl, pc}
 8005b76:	2900      	cmp	r1, #0
 8005b78:	d0fa      	beq.n	8005b70 <HAL_RTC_GetTime+0xc>
 8005b7a:	6803      	ldr	r3, [r0, #0]
 8005b7c:	685b      	ldr	r3, [r3, #4]
 8005b7e:	f013 0804 	ands.w	r8, r3, #4
 8005b82:	d1f5      	bne.n	8005b70 <HAL_RTC_GetTime+0xc>
 8005b84:	f7ff fee8 	bl	8005958 <RTC_ReadTimeCounter>
 8005b88:	f44f 6361 	mov.w	r3, #3600	@ 0xe10
 8005b8c:	fbb0 f2f3 	udiv	r2, r0, r3
 8005b90:	4604      	mov	r4, r0
 8005b92:	fb03 0312 	mls	r3, r3, r2, r0
 8005b96:	203c      	movs	r0, #60	@ 0x3c
 8005b98:	fbb3 f1f0 	udiv	r1, r3, r0
 8005b9c:	fb00 3311 	mls	r3, r0, r1, r3
 8005ba0:	70b3      	strb	r3, [r6, #2]
 8005ba2:	4b48      	ldr	r3, [pc, #288]	@ (8005cc4 <HAL_RTC_GetTime+0x160>)
 8005ba4:	7071      	strb	r1, [r6, #1]
 8005ba6:	429c      	cmp	r4, r3
 8005ba8:	d97c      	bls.n	8005ca4 <HAL_RTC_GetTime+0x140>
 8005baa:	2318      	movs	r3, #24
 8005bac:	fbb2 f9f3 	udiv	r9, r2, r3
 8005bb0:	fb03 2219 	mls	r2, r3, r9, r2
 8005bb4:	4628      	mov	r0, r5
 8005bb6:	7032      	strb	r2, [r6, #0]
 8005bb8:	f7ff fee0 	bl	800597c <RTC_ReadAlarmCounter>
 8005bbc:	f1b0 3fff 	cmp.w	r0, #4294967295
 8005bc0:	4682      	mov	sl, r0
 8005bc2:	d005      	beq.n	8005bd0 <HAL_RTC_GetTime+0x6c>
 8005bc4:	4284      	cmp	r4, r0
 8005bc6:	bf2c      	ite	cs
 8005bc8:	f04f 3aff 	movcs.w	sl, #4294967295
 8005bcc:	eba0 0a04 	subcc.w	sl, r0, r4
 8005bd0:	4b3d      	ldr	r3, [pc, #244]	@ (8005cc8 <HAL_RTC_GetTime+0x164>)
 8005bd2:	4628      	mov	r0, r5
 8005bd4:	fb03 4419 	mls	r4, r3, r9, r4
 8005bd8:	4621      	mov	r1, r4
 8005bda:	f7ff ff49 	bl	8005a70 <RTC_WriteTimeCounter>
 8005bde:	2800      	cmp	r0, #0
 8005be0:	d1c6      	bne.n	8005b70 <HAL_RTC_GetTime+0xc>
 8005be2:	f1ba 3fff 	cmp.w	sl, #4294967295
 8005be6:	d028      	beq.n	8005c3a <HAL_RTC_GetTime+0xd6>
 8005be8:	eb0a 0104 	add.w	r1, sl, r4
 8005bec:	4628      	mov	r0, r5
 8005bee:	f7ff ff53 	bl	8005a98 <RTC_WriteAlarmCounter>
 8005bf2:	2800      	cmp	r0, #0
 8005bf4:	d1bc      	bne.n	8005b70 <HAL_RTC_GetTime+0xc>
 8005bf6:	2101      	movs	r1, #1
 8005bf8:	f241 5caa 	movw	ip, #5546	@ 0x15aa
 8005bfc:	7be8      	ldrb	r0, [r5, #15]
 8005bfe:	7b6c      	ldrb	r4, [r5, #13]
 8005c00:	7bab      	ldrb	r3, [r5, #14]
 8005c02:	2c0c      	cmp	r4, #12
 8005c04:	d809      	bhi.n	8005c1a <HAL_RTC_GetTime+0xb6>
 8005c06:	fa01 f204 	lsl.w	r2, r1, r4
 8005c0a:	ea12 0f0c 	tst.w	r2, ip
 8005c0e:	d116      	bne.n	8005c3e <HAL_RTC_GetTime+0xda>
 8005c10:	f412 6f25 	tst.w	r2, #2640	@ 0xa50
 8005c14:	d120      	bne.n	8005c58 <HAL_RTC_GetTime+0xf4>
 8005c16:	2c02      	cmp	r4, #2
 8005c18:	d021      	beq.n	8005c5e <HAL_RTC_GetTime+0xfa>
 8005c1a:	f108 0801 	add.w	r8, r8, #1
 8005c1e:	45c1      	cmp	r9, r8
 8005c20:	d1ef      	bne.n	8005c02 <HAL_RTC_GetTime+0x9e>
 8005c22:	b2e1      	uxtb	r1, r4
 8005c24:	b2da      	uxtb	r2, r3
 8005c26:	73e8      	strb	r0, [r5, #15]
 8005c28:	7369      	strb	r1, [r5, #13]
 8005c2a:	73aa      	strb	r2, [r5, #14]
 8005c2c:	f7ff fec0 	bl	80059b0 <RTC_WeekDayNum>
 8005c30:	7328      	strb	r0, [r5, #12]
 8005c32:	2f00      	cmp	r7, #0
 8005c34:	d138      	bne.n	8005ca8 <HAL_RTC_GetTime+0x144>
 8005c36:	2000      	movs	r0, #0
 8005c38:	e79b      	b.n	8005b72 <HAL_RTC_GetTime+0xe>
 8005c3a:	4651      	mov	r1, sl
 8005c3c:	e7d6      	b.n	8005bec <HAL_RTC_GetTime+0x88>
 8005c3e:	2b1e      	cmp	r3, #30
 8005c40:	d801      	bhi.n	8005c46 <HAL_RTC_GetTime+0xe2>
 8005c42:	3301      	adds	r3, #1
 8005c44:	e7e9      	b.n	8005c1a <HAL_RTC_GetTime+0xb6>
 8005c46:	2c0c      	cmp	r4, #12
 8005c48:	d002      	beq.n	8005c50 <HAL_RTC_GetTime+0xec>
 8005c4a:	2301      	movs	r3, #1
 8005c4c:	3401      	adds	r4, #1
 8005c4e:	e7e4      	b.n	8005c1a <HAL_RTC_GetTime+0xb6>
 8005c50:	2301      	movs	r3, #1
 8005c52:	3001      	adds	r0, #1
 8005c54:	461c      	mov	r4, r3
 8005c56:	e7e0      	b.n	8005c1a <HAL_RTC_GetTime+0xb6>
 8005c58:	2b1d      	cmp	r3, #29
 8005c5a:	d8f6      	bhi.n	8005c4a <HAL_RTC_GetTime+0xe6>
 8005c5c:	e7f1      	b.n	8005c42 <HAL_RTC_GetTime+0xde>
 8005c5e:	2b1b      	cmp	r3, #27
 8005c60:	d9ef      	bls.n	8005c42 <HAL_RTC_GetTime+0xde>
 8005c62:	2b1c      	cmp	r3, #28
 8005c64:	d117      	bne.n	8005c96 <HAL_RTC_GetTime+0x132>
 8005c66:	0782      	lsls	r2, r0, #30
 8005c68:	b283      	uxth	r3, r0
 8005c6a:	d116      	bne.n	8005c9a <HAL_RTC_GetTime+0x136>
 8005c6c:	f04f 0e64 	mov.w	lr, #100	@ 0x64
 8005c70:	fbb3 f2fe 	udiv	r2, r3, lr
 8005c74:	fb0e 3212 	mls	r2, lr, r2, r3
 8005c78:	b292      	uxth	r2, r2
 8005c7a:	b98a      	cbnz	r2, 8005ca0 <HAL_RTC_GetTime+0x13c>
 8005c7c:	f44f 72c8 	mov.w	r2, #400	@ 0x190
 8005c80:	fbb3 fef2 	udiv	lr, r3, r2
 8005c84:	fb02 331e 	mls	r3, r2, lr, r3
 8005c88:	b29b      	uxth	r3, r3
 8005c8a:	2b00      	cmp	r3, #0
 8005c8c:	bf0e      	itee	eq
 8005c8e:	231d      	moveq	r3, #29
 8005c90:	2301      	movne	r3, #1
 8005c92:	2403      	movne	r4, #3
 8005c94:	e7c1      	b.n	8005c1a <HAL_RTC_GetTime+0xb6>
 8005c96:	2b1d      	cmp	r3, #29
 8005c98:	d1bf      	bne.n	8005c1a <HAL_RTC_GetTime+0xb6>
 8005c9a:	2301      	movs	r3, #1
 8005c9c:	2403      	movs	r4, #3
 8005c9e:	e7bc      	b.n	8005c1a <HAL_RTC_GetTime+0xb6>
 8005ca0:	231d      	movs	r3, #29
 8005ca2:	e7ba      	b.n	8005c1a <HAL_RTC_GetTime+0xb6>
 8005ca4:	7032      	strb	r2, [r6, #0]
 8005ca6:	e7c4      	b.n	8005c32 <HAL_RTC_GetTime+0xce>
 8005ca8:	7830      	ldrb	r0, [r6, #0]
 8005caa:	f7ff fe6e 	bl	800598a <RTC_ByteToBcd2>
 8005cae:	7030      	strb	r0, [r6, #0]
 8005cb0:	7870      	ldrb	r0, [r6, #1]
 8005cb2:	f7ff fe6a 	bl	800598a <RTC_ByteToBcd2>
 8005cb6:	7070      	strb	r0, [r6, #1]
 8005cb8:	78b0      	ldrb	r0, [r6, #2]
 8005cba:	f7ff fe66 	bl	800598a <RTC_ByteToBcd2>
 8005cbe:	70b0      	strb	r0, [r6, #2]
 8005cc0:	e7b9      	b.n	8005c36 <HAL_RTC_GetTime+0xd2>
 8005cc2:	bf00      	nop
 8005cc4:	0001517f 	.word	0x0001517f
 8005cc8:	00015180 	.word	0x00015180

08005ccc <HAL_RTC_SetDate>:
 8005ccc:	b570      	push	{r4, r5, r6, lr}
 8005cce:	460d      	mov	r5, r1
 8005cd0:	4604      	mov	r4, r0
 8005cd2:	b348      	cbz	r0, 8005d28 <HAL_RTC_SetDate+0x5c>
 8005cd4:	b341      	cbz	r1, 8005d28 <HAL_RTC_SetDate+0x5c>
 8005cd6:	7c03      	ldrb	r3, [r0, #16]
 8005cd8:	2002      	movs	r0, #2
 8005cda:	2b01      	cmp	r3, #1
 8005cdc:	d025      	beq.n	8005d2a <HAL_RTC_SetDate+0x5e>
 8005cde:	2301      	movs	r3, #1
 8005ce0:	7460      	strb	r0, [r4, #17]
 8005ce2:	7423      	strb	r3, [r4, #16]
 8005ce4:	78c8      	ldrb	r0, [r1, #3]
 8005ce6:	bb0a      	cbnz	r2, 8005d2c <HAL_RTC_SetDate+0x60>
 8005ce8:	73e0      	strb	r0, [r4, #15]
 8005cea:	784b      	ldrb	r3, [r1, #1]
 8005cec:	7363      	strb	r3, [r4, #13]
 8005cee:	788a      	ldrb	r2, [r1, #2]
 8005cf0:	7b61      	ldrb	r1, [r4, #13]
 8005cf2:	7be0      	ldrb	r0, [r4, #15]
 8005cf4:	73a2      	strb	r2, [r4, #14]
 8005cf6:	f7ff fe5b 	bl	80059b0 <RTC_WeekDayNum>
 8005cfa:	7320      	strb	r0, [r4, #12]
 8005cfc:	7028      	strb	r0, [r5, #0]
 8005cfe:	4620      	mov	r0, r4
 8005d00:	f7ff fe2a 	bl	8005958 <RTC_ReadTimeCounter>
 8005d04:	4b1a      	ldr	r3, [pc, #104]	@ (8005d70 <HAL_RTC_SetDate+0xa4>)
 8005d06:	4298      	cmp	r0, r3
 8005d08:	d92d      	bls.n	8005d66 <HAL_RTC_SetDate+0x9a>
 8005d0a:	4d1a      	ldr	r5, [pc, #104]	@ (8005d74 <HAL_RTC_SetDate+0xa8>)
 8005d0c:	fbb0 f2f5 	udiv	r2, r0, r5
 8005d10:	fb05 0512 	mls	r5, r5, r2, r0
 8005d14:	4620      	mov	r0, r4
 8005d16:	4629      	mov	r1, r5
 8005d18:	f7ff feaa 	bl	8005a70 <RTC_WriteTimeCounter>
 8005d1c:	4606      	mov	r6, r0
 8005d1e:	b188      	cbz	r0, 8005d44 <HAL_RTC_SetDate+0x78>
 8005d20:	2304      	movs	r3, #4
 8005d22:	7463      	strb	r3, [r4, #17]
 8005d24:	2300      	movs	r3, #0
 8005d26:	7423      	strb	r3, [r4, #16]
 8005d28:	2001      	movs	r0, #1
 8005d2a:	bd70      	pop	{r4, r5, r6, pc}
 8005d2c:	f7ff fe38 	bl	80059a0 <RTC_Bcd2ToByte>
 8005d30:	73e0      	strb	r0, [r4, #15]
 8005d32:	7848      	ldrb	r0, [r1, #1]
 8005d34:	f7ff fe34 	bl	80059a0 <RTC_Bcd2ToByte>
 8005d38:	7360      	strb	r0, [r4, #13]
 8005d3a:	7888      	ldrb	r0, [r1, #2]
 8005d3c:	f7ff fe30 	bl	80059a0 <RTC_Bcd2ToByte>
 8005d40:	4602      	mov	r2, r0
 8005d42:	e7d5      	b.n	8005cf0 <HAL_RTC_SetDate+0x24>
 8005d44:	4620      	mov	r0, r4
 8005d46:	f7ff fe19 	bl	800597c <RTC_ReadAlarmCounter>
 8005d4a:	4285      	cmp	r5, r0
 8005d4c:	d90b      	bls.n	8005d66 <HAL_RTC_SetDate+0x9a>
 8005d4e:	f500 31a8 	add.w	r1, r0, #86016	@ 0x15000
 8005d52:	f501 71c0 	add.w	r1, r1, #384	@ 0x180
 8005d56:	4620      	mov	r0, r4
 8005d58:	f7ff fe9e 	bl	8005a98 <RTC_WriteAlarmCounter>
 8005d5c:	b118      	cbz	r0, 8005d66 <HAL_RTC_SetDate+0x9a>
 8005d5e:	2304      	movs	r3, #4
 8005d60:	7426      	strb	r6, [r4, #16]
 8005d62:	7463      	strb	r3, [r4, #17]
 8005d64:	e7e0      	b.n	8005d28 <HAL_RTC_SetDate+0x5c>
 8005d66:	2301      	movs	r3, #1
 8005d68:	2000      	movs	r0, #0
 8005d6a:	7463      	strb	r3, [r4, #17]
 8005d6c:	7420      	strb	r0, [r4, #16]
 8005d6e:	e7dc      	b.n	8005d2a <HAL_RTC_SetDate+0x5e>
 8005d70:	00015f8f 	.word	0x00015f8f
 8005d74:	00015180 	.word	0x00015180

08005d78 <HAL_RTC_SetAlarm_IT>:
 8005d78:	e92d 43f7 	stmdb	sp!, {r0, r1, r2, r4, r5, r6, r7, r8, r9, lr}
 8005d7c:	4691      	mov	r9, r2
 8005d7e:	2200      	movs	r2, #0
 8005d80:	460f      	mov	r7, r1
 8005d82:	4605      	mov	r5, r0
 8005d84:	f8ad 2004 	strh.w	r2, [sp, #4]
 8005d88:	f88d 2006 	strb.w	r2, [sp, #6]
 8005d8c:	b918      	cbnz	r0, 8005d96 <HAL_RTC_SetAlarm_IT+0x1e>
 8005d8e:	2001      	movs	r0, #1
 8005d90:	b003      	add	sp, #12
 8005d92:	e8bd 83f0 	ldmia.w	sp!, {r4, r5, r6, r7, r8, r9, pc}
 8005d96:	2900      	cmp	r1, #0
 8005d98:	d0f9      	beq.n	8005d8e <HAL_RTC_SetAlarm_IT+0x16>
 8005d9a:	7c03      	ldrb	r3, [r0, #16]
 8005d9c:	2b01      	cmp	r3, #1
 8005d9e:	f04f 0302 	mov.w	r3, #2
 8005da2:	d051      	beq.n	8005e48 <HAL_RTC_SetAlarm_IT+0xd0>
 8005da4:	2101      	movs	r1, #1
 8005da6:	7443      	strb	r3, [r0, #17]
 8005da8:	7401      	strb	r1, [r0, #16]
 8005daa:	a901      	add	r1, sp, #4
 8005dac:	f7ff feda 	bl	8005b64 <HAL_RTC_GetTime>
 8005db0:	2800      	cmp	r0, #0
 8005db2:	d1ec      	bne.n	8005d8e <HAL_RTC_SetAlarm_IT+0x16>
 8005db4:	213c      	movs	r1, #60	@ 0x3c
 8005db6:	f44f 6861 	mov.w	r8, #3600	@ 0xe10
 8005dba:	f89d 6005 	ldrb.w	r6, [sp, #5]
 8005dbe:	f89d 3004 	ldrb.w	r3, [sp, #4]
 8005dc2:	434e      	muls	r6, r1
 8005dc4:	fb08 6603 	mla	r6, r8, r3, r6
 8005dc8:	f89d 3006 	ldrb.w	r3, [sp, #6]
 8005dcc:	7838      	ldrb	r0, [r7, #0]
 8005dce:	787c      	ldrb	r4, [r7, #1]
 8005dd0:	441e      	add	r6, r3
 8005dd2:	78bf      	ldrb	r7, [r7, #2]
 8005dd4:	f1b9 0f00 	cmp.w	r9, #0
 8005dd8:	d112      	bne.n	8005e00 <HAL_RTC_SetAlarm_IT+0x88>
 8005dda:	434c      	muls	r4, r1
 8005ddc:	fb08 4400 	mla	r4, r8, r0, r4
 8005de0:	19e1      	adds	r1, r4, r7
 8005de2:	42b1      	cmp	r1, r6
 8005de4:	bf3c      	itt	cc
 8005de6:	f501 31a8 	addcc.w	r1, r1, #86016	@ 0x15000
 8005dea:	f501 71c0 	addcc.w	r1, r1, #384	@ 0x180
 8005dee:	4628      	mov	r0, r5
 8005df0:	f7ff fe52 	bl	8005a98 <RTC_WriteAlarmCounter>
 8005df4:	b190      	cbz	r0, 8005e1c <HAL_RTC_SetAlarm_IT+0xa4>
 8005df6:	2304      	movs	r3, #4
 8005df8:	746b      	strb	r3, [r5, #17]
 8005dfa:	2300      	movs	r3, #0
 8005dfc:	742b      	strb	r3, [r5, #16]
 8005dfe:	e7c6      	b.n	8005d8e <HAL_RTC_SetAlarm_IT+0x16>
 8005e00:	f7ff fdce 	bl	80059a0 <RTC_Bcd2ToByte>
 8005e04:	4681      	mov	r9, r0
 8005e06:	4620      	mov	r0, r4
 8005e08:	f7ff fdca 	bl	80059a0 <RTC_Bcd2ToByte>
 8005e0c:	4341      	muls	r1, r0
 8005e0e:	4638      	mov	r0, r7
 8005e10:	f7ff fdc6 	bl	80059a0 <RTC_Bcd2ToByte>
 8005e14:	fb08 1109 	mla	r1, r8, r9, r1
 8005e18:	4401      	add	r1, r0
 8005e1a:	e7e2      	b.n	8005de2 <HAL_RTC_SetAlarm_IT+0x6a>
 8005e1c:	682b      	ldr	r3, [r5, #0]
 8005e1e:	685a      	ldr	r2, [r3, #4]
 8005e20:	f022 0202 	bic.w	r2, r2, #2
 8005e24:	605a      	str	r2, [r3, #4]
 8005e26:	681a      	ldr	r2, [r3, #0]
 8005e28:	f042 0202 	orr.w	r2, r2, #2
 8005e2c:	601a      	str	r2, [r3, #0]
 8005e2e:	4b07      	ldr	r3, [pc, #28]	@ (8005e4c <HAL_RTC_SetAlarm_IT+0xd4>)
 8005e30:	681a      	ldr	r2, [r3, #0]
 8005e32:	f442 3200 	orr.w	r2, r2, #131072	@ 0x20000
 8005e36:	601a      	str	r2, [r3, #0]
 8005e38:	689a      	ldr	r2, [r3, #8]
 8005e3a:	f442 3200 	orr.w	r2, r2, #131072	@ 0x20000
 8005e3e:	609a      	str	r2, [r3, #8]
 8005e40:	2301      	movs	r3, #1
 8005e42:	7428      	strb	r0, [r5, #16]
 8005e44:	746b      	strb	r3, [r5, #17]
 8005e46:	e7a3      	b.n	8005d90 <HAL_RTC_SetAlarm_IT+0x18>
 8005e48:	4618      	mov	r0, r3
 8005e4a:	e7a1      	b.n	8005d90 <HAL_RTC_SetAlarm_IT+0x18>
 8005e4c:	40010400 	.word	0x40010400

08005e50 <HAL_RTC_AlarmIRQHandler>:
 8005e50:	6803      	ldr	r3, [r0, #0]
 8005e52:	b510      	push	{r4, lr}
 8005e54:	681a      	ldr	r2, [r3, #0]
 8005e56:	4604      	mov	r4, r0
 8005e58:	0792      	lsls	r2, r2, #30
 8005e5a:	d509      	bpl.n	8005e70 <HAL_RTC_AlarmIRQHandler+0x20>
 8005e5c:	685b      	ldr	r3, [r3, #4]
 8005e5e:	079b      	lsls	r3, r3, #30
 8005e60:	d506      	bpl.n	8005e70 <HAL_RTC_AlarmIRQHandler+0x20>
 8005e62:	f7fd fc0f 	bl	8003684 <HAL_RTC_AlarmAEventCallback>
 8005e66:	6822      	ldr	r2, [r4, #0]
 8005e68:	6853      	ldr	r3, [r2, #4]
 8005e6a:	f023 0302 	bic.w	r3, r3, #2
 8005e6e:	6053      	str	r3, [r2, #4]
 8005e70:	f44f 3200 	mov.w	r2, #131072	@ 0x20000
 8005e74:	4b02      	ldr	r3, [pc, #8]	@ (8005e80 <HAL_RTC_AlarmIRQHandler+0x30>)
 8005e76:	615a      	str	r2, [r3, #20]
 8005e78:	2301      	movs	r3, #1
 8005e7a:	7463      	strb	r3, [r4, #17]
 8005e7c:	bd10      	pop	{r4, pc}
 8005e7e:	bf00      	nop
 8005e80:	40010400 	.word	0x40010400

08005e84 <HAL_RTC_WaitForSynchro>:
 8005e84:	b538      	push	{r3, r4, r5, lr}
 8005e86:	4604      	mov	r4, r0
 8005e88:	b1a8      	cbz	r0, 8005eb6 <HAL_RTC_WaitForSynchro+0x32>
 8005e8a:	6802      	ldr	r2, [r0, #0]
 8005e8c:	6853      	ldr	r3, [r2, #4]
 8005e8e:	f023 0308 	bic.w	r3, r3, #8
 8005e92:	6053      	str	r3, [r2, #4]
 8005e94:	f7fd fe86 	bl	8003ba4 <HAL_GetTick>
 8005e98:	4605      	mov	r5, r0
 8005e9a:	6823      	ldr	r3, [r4, #0]
 8005e9c:	685b      	ldr	r3, [r3, #4]
 8005e9e:	071b      	lsls	r3, r3, #28
 8005ea0:	d501      	bpl.n	8005ea6 <HAL_RTC_WaitForSynchro+0x22>
 8005ea2:	2000      	movs	r0, #0
 8005ea4:	bd38      	pop	{r3, r4, r5, pc}
 8005ea6:	f7fd fe7d 	bl	8003ba4 <HAL_GetTick>
 8005eaa:	1b40      	subs	r0, r0, r5
 8005eac:	f5b0 7f7a 	cmp.w	r0, #1000	@ 0x3e8
 8005eb0:	d9f3      	bls.n	8005e9a <HAL_RTC_WaitForSynchro+0x16>
 8005eb2:	2003      	movs	r0, #3
 8005eb4:	e7f6      	b.n	8005ea4 <HAL_RTC_WaitForSynchro+0x20>
 8005eb6:	2001      	movs	r0, #1
 8005eb8:	e7f4      	b.n	8005ea4 <HAL_RTC_WaitForSynchro+0x20>
	...

08005ebc <HAL_RTC_Init>:
 8005ebc:	b510      	push	{r4, lr}
 8005ebe:	4604      	mov	r4, r0
 8005ec0:	b170      	cbz	r0, 8005ee0 <HAL_RTC_Init+0x24>
 8005ec2:	7c43      	ldrb	r3, [r0, #17]
 8005ec4:	f003 02ff 	and.w	r2, r3, #255	@ 0xff
 8005ec8:	b913      	cbnz	r3, 8005ed0 <HAL_RTC_Init+0x14>
 8005eca:	7402      	strb	r2, [r0, #16]
 8005ecc:	f7fd fcc4 	bl	8003858 <HAL_RTC_MspInit>
 8005ed0:	2302      	movs	r3, #2
 8005ed2:	4620      	mov	r0, r4
 8005ed4:	7463      	strb	r3, [r4, #17]
 8005ed6:	f7ff ffd5 	bl	8005e84 <HAL_RTC_WaitForSynchro>
 8005eda:	b118      	cbz	r0, 8005ee4 <HAL_RTC_Init+0x28>
 8005edc:	2304      	movs	r3, #4
 8005ede:	7463      	strb	r3, [r4, #17]
 8005ee0:	2001      	movs	r0, #1
 8005ee2:	bd10      	pop	{r4, pc}
 8005ee4:	4620      	mov	r0, r4
 8005ee6:	f7ff fd94 	bl	8005a12 <RTC_EnterInitMode>
 8005eea:	2800      	cmp	r0, #0
 8005eec:	d1f6      	bne.n	8005edc <HAL_RTC_Init+0x20>
 8005eee:	6822      	ldr	r2, [r4, #0]
 8005ef0:	68a1      	ldr	r1, [r4, #8]
 8005ef2:	6853      	ldr	r3, [r2, #4]
 8005ef4:	f023 0307 	bic.w	r3, r3, #7
 8005ef8:	6053      	str	r3, [r2, #4]
 8005efa:	4a12      	ldr	r2, [pc, #72]	@ (8005f44 <HAL_RTC_Init+0x88>)
 8005efc:	b119      	cbz	r1, 8005f06 <HAL_RTC_Init+0x4a>
 8005efe:	6b13      	ldr	r3, [r2, #48]	@ 0x30
 8005f00:	f023 0301 	bic.w	r3, r3, #1
 8005f04:	6313      	str	r3, [r2, #48]	@ 0x30
 8005f06:	6ad3      	ldr	r3, [r2, #44]	@ 0x2c
 8005f08:	f423 7360 	bic.w	r3, r3, #896	@ 0x380
 8005f0c:	430b      	orrs	r3, r1
 8005f0e:	62d3      	str	r3, [r2, #44]	@ 0x2c
 8005f10:	6860      	ldr	r0, [r4, #4]
 8005f12:	1c43      	adds	r3, r0, #1
 8005f14:	d105      	bne.n	8005f22 <HAL_RTC_Init+0x66>
 8005f16:	2001      	movs	r0, #1
 8005f18:	f7ff fcc0 	bl	800589c <HAL_RCCEx_GetPeriphCLKFreq>
 8005f1c:	2800      	cmp	r0, #0
 8005f1e:	d0dd      	beq.n	8005edc <HAL_RTC_Init+0x20>
 8005f20:	3801      	subs	r0, #1
 8005f22:	6823      	ldr	r3, [r4, #0]
 8005f24:	f3c0 4203 	ubfx	r2, r0, #16, #4
 8005f28:	b280      	uxth	r0, r0
 8005f2a:	609a      	str	r2, [r3, #8]
 8005f2c:	60d8      	str	r0, [r3, #12]
 8005f2e:	4620      	mov	r0, r4
 8005f30:	f7ff fd86 	bl	8005a40 <RTC_ExitInitMode>
 8005f34:	2800      	cmp	r0, #0
 8005f36:	d1d1      	bne.n	8005edc <HAL_RTC_Init+0x20>
 8005f38:	2301      	movs	r3, #1
 8005f3a:	7363      	strb	r3, [r4, #13]
 8005f3c:	81e3      	strh	r3, [r4, #14]
 8005f3e:	7463      	strb	r3, [r4, #17]
 8005f40:	e7cf      	b.n	8005ee2 <HAL_RTC_Init+0x26>
 8005f42:	bf00      	nop
 8005f44:	40006c00 	.word	0x40006c00

08005f48 <HAL_RTCEx_RTCEventCallback>:
 8005f48:	4770      	bx	lr

08005f4a <HAL_RTCEx_RTCEventErrorCallback>:
 8005f4a:	4770      	bx	lr

08005f4c <HAL_RTCEx_RTCIRQHandler>:
 8005f4c:	6803      	ldr	r3, [r0, #0]
 8005f4e:	b510      	push	{r4, lr}
 8005f50:	681a      	ldr	r2, [r3, #0]
 8005f52:	4604      	mov	r4, r0
 8005f54:	07d1      	lsls	r1, r2, #31
 8005f56:	d512      	bpl.n	8005f7e <HAL_RTCEx_RTCIRQHandler+0x32>
 8005f58:	685a      	ldr	r2, [r3, #4]
 8005f5a:	07d2      	lsls	r2, r2, #31
 8005f5c:	d50f      	bpl.n	8005f7e <HAL_RTCEx_RTCIRQHandler+0x32>
 8005f5e:	685b      	ldr	r3, [r3, #4]
 8005f60:	075b      	lsls	r3, r3, #29
 8005f62:	d50d      	bpl.n	8005f80 <HAL_RTCEx_RTCIRQHandler+0x34>
 8005f64:	f7ff fff1 	bl	8005f4a <HAL_RTCEx_RTCEventErrorCallback>
 8005f68:	f06f 0204 	mvn.w	r2, #4
 8005f6c:	6823      	ldr	r3, [r4, #0]
 8005f6e:	605a      	str	r2, [r3, #4]
 8005f70:	2304      	movs	r3, #4
 8005f72:	6822      	ldr	r2, [r4, #0]
 8005f74:	7463      	strb	r3, [r4, #17]
 8005f76:	6853      	ldr	r3, [r2, #4]
 8005f78:	f023 0301 	bic.w	r3, r3, #1
 8005f7c:	6053      	str	r3, [r2, #4]
 8005f7e:	bd10      	pop	{r4, pc}
 8005f80:	f7ff ffe2 	bl	8005f48 <HAL_RTCEx_RTCEventCallback>
 8005f84:	2301      	movs	r3, #1
 8005f86:	e7f4      	b.n	8005f72 <HAL_RTCEx_RTCIRQHandler+0x26>

08005f88 <HAL_TIM_Base_Start>:
 8005f88:	f890 303d 	ldrb.w	r3, [r0, #61]	@ 0x3d
 8005f8c:	2b01      	cmp	r3, #1
 8005f8e:	d11c      	bne.n	8005fca <HAL_TIM_Base_Start+0x42>
 8005f90:	2302      	movs	r3, #2
 8005f92:	4a0f      	ldr	r2, [pc, #60]	@ (8005fd0 <HAL_TIM_Base_Start+0x48>)
 8005f94:	f880 303d 	strb.w	r3, [r0, #61]	@ 0x3d
 8005f98:	6803      	ldr	r3, [r0, #0]
 8005f9a:	4293      	cmp	r3, r2
 8005f9c:	d00a      	beq.n	8005fb4 <HAL_TIM_Base_Start+0x2c>
 8005f9e:	f1b3 4f80 	cmp.w	r3, #1073741824	@ 0x40000000
 8005fa2:	d007      	beq.n	8005fb4 <HAL_TIM_Base_Start+0x2c>
 8005fa4:	f5a2 3294 	sub.w	r2, r2, #75776	@ 0x12800
 8005fa8:	4293      	cmp	r3, r2
 8005faa:	d003      	beq.n	8005fb4 <HAL_TIM_Base_Start+0x2c>
 8005fac:	f502 6280 	add.w	r2, r2, #1024	@ 0x400
 8005fb0:	4293      	cmp	r3, r2
 8005fb2:	d104      	bne.n	8005fbe <HAL_TIM_Base_Start+0x36>
 8005fb4:	689a      	ldr	r2, [r3, #8]
 8005fb6:	f002 0207 	and.w	r2, r2, #7
 8005fba:	2a06      	cmp	r2, #6
 8005fbc:	d003      	beq.n	8005fc6 <HAL_TIM_Base_Start+0x3e>
 8005fbe:	681a      	ldr	r2, [r3, #0]
 8005fc0:	f042 0201 	orr.w	r2, r2, #1
 8005fc4:	601a      	str	r2, [r3, #0]
 8005fc6:	2000      	movs	r0, #0
 8005fc8:	4770      	bx	lr
 8005fca:	2001      	movs	r0, #1
 8005fcc:	4770      	bx	lr
 8005fce:	bf00      	nop
 8005fd0:	40012c00 	.word	0x40012c00

08005fd4 <TIM_Base_SetConfig>:
 8005fd4:	4a17      	ldr	r2, [pc, #92]	@ (8006034 <TIM_Base_SetConfig+0x60>)
 8005fd6:	6803      	ldr	r3, [r0, #0]
 8005fd8:	4290      	cmp	r0, r2
 8005fda:	d00a      	beq.n	8005ff2 <TIM_Base_SetConfig+0x1e>
 8005fdc:	f1b0 4f80 	cmp.w	r0, #1073741824	@ 0x40000000
 8005fe0:	d007      	beq.n	8005ff2 <TIM_Base_SetConfig+0x1e>
 8005fe2:	f5a2 3294 	sub.w	r2, r2, #75776	@ 0x12800
 8005fe6:	4290      	cmp	r0, r2
 8005fe8:	d003      	beq.n	8005ff2 <TIM_Base_SetConfig+0x1e>
 8005fea:	f502 6280 	add.w	r2, r2, #1024	@ 0x400
 8005fee:	4290      	cmp	r0, r2
 8005ff0:	d107      	bne.n	8006002 <TIM_Base_SetConfig+0x2e>
 8005ff2:	684a      	ldr	r2, [r1, #4]
 8005ff4:	f023 0370 	bic.w	r3, r3, #112	@ 0x70
 8005ff8:	4313      	orrs	r3, r2
 8005ffa:	68ca      	ldr	r2, [r1, #12]
 8005ffc:	f423 7340 	bic.w	r3, r3, #768	@ 0x300
 8006000:	4313      	orrs	r3, r2
 8006002:	694a      	ldr	r2, [r1, #20]
 8006004:	f023 0380 	bic.w	r3, r3, #128	@ 0x80
 8006008:	4313      	orrs	r3, r2
 800600a:	6003      	str	r3, [r0, #0]
 800600c:	688b      	ldr	r3, [r1, #8]
 800600e:	62c3      	str	r3, [r0, #44]	@ 0x2c
 8006010:	680b      	ldr	r3, [r1, #0]
 8006012:	6283      	str	r3, [r0, #40]	@ 0x28
 8006014:	4b07      	ldr	r3, [pc, #28]	@ (8006034 <TIM_Base_SetConfig+0x60>)
 8006016:	4298      	cmp	r0, r3
 8006018:	bf04      	itt	eq
 800601a:	690b      	ldreq	r3, [r1, #16]
 800601c:	6303      	streq	r3, [r0, #48]	@ 0x30
 800601e:	2301      	movs	r3, #1
 8006020:	6143      	str	r3, [r0, #20]
 8006022:	6903      	ldr	r3, [r0, #16]
 8006024:	07db      	lsls	r3, r3, #31
 8006026:	bf42      	ittt	mi
 8006028:	6903      	ldrmi	r3, [r0, #16]
 800602a:	f023 0301 	bicmi.w	r3, r3, #1
 800602e:	6103      	strmi	r3, [r0, #16]
 8006030:	4770      	bx	lr
 8006032:	bf00      	nop
 8006034:	40012c00 	.word	0x40012c00

08006038 <HAL_TIM_Base_Init>:
 8006038:	b510      	push	{r4, lr}
 800603a:	4604      	mov	r4, r0
 800603c:	b330      	cbz	r0, 800608c <HAL_TIM_Base_Init+0x54>
 800603e:	f890 303d 	ldrb.w	r3, [r0, #61]	@ 0x3d
 8006042:	f003 02ff 	and.w	r2, r3, #255	@ 0xff
 8006046:	b91b      	cbnz	r3, 8006050 <HAL_TIM_Base_Init+0x18>
 8006048:	f880 203c 	strb.w	r2, [r0, #60]	@ 0x3c
 800604c:	f7fd fc36 	bl	80038bc <HAL_TIM_Base_MspInit>
 8006050:	2302      	movs	r3, #2
 8006052:	6820      	ldr	r0, [r4, #0]
 8006054:	f884 303d 	strb.w	r3, [r4, #61]	@ 0x3d
 8006058:	1d21      	adds	r1, r4, #4
 800605a:	f7ff ffbb 	bl	8005fd4 <TIM_Base_SetConfig>
 800605e:	2301      	movs	r3, #1
 8006060:	2000      	movs	r0, #0
 8006062:	f884 3046 	strb.w	r3, [r4, #70]	@ 0x46
 8006066:	f884 303e 	strb.w	r3, [r4, #62]	@ 0x3e
 800606a:	f884 303f 	strb.w	r3, [r4, #63]	@ 0x3f
 800606e:	f884 3040 	strb.w	r3, [r4, #64]	@ 0x40
 8006072:	f884 3041 	strb.w	r3, [r4, #65]	@ 0x41
 8006076:	f884 3042 	strb.w	r3, [r4, #66]	@ 0x42
 800607a:	f884 3043 	strb.w	r3, [r4, #67]	@ 0x43
 800607e:	f884 3044 	strb.w	r3, [r4, #68]	@ 0x44
 8006082:	f884 3045 	strb.w	r3, [r4, #69]	@ 0x45
 8006086:	f884 303d 	strb.w	r3, [r4, #61]	@ 0x3d
 800608a:	bd10      	pop	{r4, pc}
 800608c:	2001      	movs	r0, #1
 800608e:	e7fc      	b.n	800608a <HAL_TIM_Base_Init+0x52>

08006090 <TIM_ETR_SetConfig>:
 8006090:	b510      	push	{r4, lr}
 8006092:	6884      	ldr	r4, [r0, #8]
 8006094:	430a      	orrs	r2, r1
 8006096:	f424 447f 	bic.w	r4, r4, #65280	@ 0xff00
 800609a:	ea42 2203 	orr.w	r2, r2, r3, lsl #8
 800609e:	4322      	orrs	r2, r4
 80060a0:	6082      	str	r2, [r0, #8]
 80060a2:	bd10      	pop	{r4, pc}

080060a4 <HAL_TIM_ConfigClockSource>:
 80060a4:	b538      	push	{r3, r4, r5, lr}
 80060a6:	f890 303c 	ldrb.w	r3, [r0, #60]	@ 0x3c
 80060aa:	4604      	mov	r4, r0
 80060ac:	2b01      	cmp	r3, #1
 80060ae:	f04f 0002 	mov.w	r0, #2
 80060b2:	f000 808e 	beq.w	80061d2 <HAL_TIM_ConfigClockSource+0x12e>
 80060b6:	2201      	movs	r2, #1
 80060b8:	f884 003d 	strb.w	r0, [r4, #61]	@ 0x3d
 80060bc:	6820      	ldr	r0, [r4, #0]
 80060be:	f884 203c 	strb.w	r2, [r4, #60]	@ 0x3c
 80060c2:	6883      	ldr	r3, [r0, #8]
 80060c4:	f423 437f 	bic.w	r3, r3, #65280	@ 0xff00
 80060c8:	f023 0377 	bic.w	r3, r3, #119	@ 0x77
 80060cc:	6083      	str	r3, [r0, #8]
 80060ce:	680b      	ldr	r3, [r1, #0]
 80060d0:	2b60      	cmp	r3, #96	@ 0x60
 80060d2:	d04f      	beq.n	8006174 <HAL_TIM_ConfigClockSource+0xd0>
 80060d4:	d832      	bhi.n	800613c <HAL_TIM_ConfigClockSource+0x98>
 80060d6:	2b40      	cmp	r3, #64	@ 0x40
 80060d8:	d064      	beq.n	80061a4 <HAL_TIM_ConfigClockSource+0x100>
 80060da:	d816      	bhi.n	800610a <HAL_TIM_ConfigClockSource+0x66>
 80060dc:	2b20      	cmp	r3, #32
 80060de:	d00d      	beq.n	80060fc <HAL_TIM_ConfigClockSource+0x58>
 80060e0:	d80a      	bhi.n	80060f8 <HAL_TIM_ConfigClockSource+0x54>
 80060e2:	f033 0110 	bics.w	r1, r3, #16
 80060e6:	d009      	beq.n	80060fc <HAL_TIM_ConfigClockSource+0x58>
 80060e8:	2301      	movs	r3, #1
 80060ea:	f884 303d 	strb.w	r3, [r4, #61]	@ 0x3d
 80060ee:	2300      	movs	r3, #0
 80060f0:	f884 303c 	strb.w	r3, [r4, #60]	@ 0x3c
 80060f4:	4610      	mov	r0, r2
 80060f6:	bd38      	pop	{r3, r4, r5, pc}
 80060f8:	2b30      	cmp	r3, #48	@ 0x30
 80060fa:	d1f5      	bne.n	80060e8 <HAL_TIM_ConfigClockSource+0x44>
 80060fc:	6882      	ldr	r2, [r0, #8]
 80060fe:	f022 0270 	bic.w	r2, r2, #112	@ 0x70
 8006102:	4313      	orrs	r3, r2
 8006104:	f043 0307 	orr.w	r3, r3, #7
 8006108:	e028      	b.n	800615c <HAL_TIM_ConfigClockSource+0xb8>
 800610a:	2b50      	cmp	r3, #80	@ 0x50
 800610c:	d1ec      	bne.n	80060e8 <HAL_TIM_ConfigClockSource+0x44>
 800610e:	684a      	ldr	r2, [r1, #4]
 8006110:	68cd      	ldr	r5, [r1, #12]
 8006112:	6a01      	ldr	r1, [r0, #32]
 8006114:	6a03      	ldr	r3, [r0, #32]
 8006116:	f021 010a 	bic.w	r1, r1, #10
 800611a:	f023 0301 	bic.w	r3, r3, #1
 800611e:	6203      	str	r3, [r0, #32]
 8006120:	6983      	ldr	r3, [r0, #24]
 8006122:	430a      	orrs	r2, r1
 8006124:	f023 03f0 	bic.w	r3, r3, #240	@ 0xf0
 8006128:	ea43 1305 	orr.w	r3, r3, r5, lsl #4
 800612c:	6183      	str	r3, [r0, #24]
 800612e:	6202      	str	r2, [r0, #32]
 8006130:	6883      	ldr	r3, [r0, #8]
 8006132:	f023 0370 	bic.w	r3, r3, #112	@ 0x70
 8006136:	f043 0357 	orr.w	r3, r3, #87	@ 0x57
 800613a:	e00f      	b.n	800615c <HAL_TIM_ConfigClockSource+0xb8>
 800613c:	f5b3 5f80 	cmp.w	r3, #4096	@ 0x1000
 8006140:	d00d      	beq.n	800615e <HAL_TIM_ConfigClockSource+0xba>
 8006142:	f5b3 5f00 	cmp.w	r3, #8192	@ 0x2000
 8006146:	d00c      	beq.n	8006162 <HAL_TIM_ConfigClockSource+0xbe>
 8006148:	2b70      	cmp	r3, #112	@ 0x70
 800614a:	d1cd      	bne.n	80060e8 <HAL_TIM_ConfigClockSource+0x44>
 800614c:	68cb      	ldr	r3, [r1, #12]
 800614e:	e9d1 2101 	ldrd	r2, r1, [r1, #4]
 8006152:	f7ff ff9d 	bl	8006090 <TIM_ETR_SetConfig>
 8006156:	6883      	ldr	r3, [r0, #8]
 8006158:	f043 0377 	orr.w	r3, r3, #119	@ 0x77
 800615c:	6083      	str	r3, [r0, #8]
 800615e:	2200      	movs	r2, #0
 8006160:	e7c2      	b.n	80060e8 <HAL_TIM_ConfigClockSource+0x44>
 8006162:	68cb      	ldr	r3, [r1, #12]
 8006164:	e9d1 2101 	ldrd	r2, r1, [r1, #4]
 8006168:	f7ff ff92 	bl	8006090 <TIM_ETR_SetConfig>
 800616c:	6883      	ldr	r3, [r0, #8]
 800616e:	f443 4380 	orr.w	r3, r3, #16384	@ 0x4000
 8006172:	e7f3      	b.n	800615c <HAL_TIM_ConfigClockSource+0xb8>
 8006174:	6a03      	ldr	r3, [r0, #32]
 8006176:	6a02      	ldr	r2, [r0, #32]
 8006178:	684d      	ldr	r5, [r1, #4]
 800617a:	f022 0210 	bic.w	r2, r2, #16
 800617e:	68c9      	ldr	r1, [r1, #12]
 8006180:	6202      	str	r2, [r0, #32]
 8006182:	6982      	ldr	r2, [r0, #24]
 8006184:	f023 03a0 	bic.w	r3, r3, #160	@ 0xa0
 8006188:	f422 4270 	bic.w	r2, r2, #61440	@ 0xf000
 800618c:	ea43 1305 	orr.w	r3, r3, r5, lsl #4
 8006190:	ea42 3201 	orr.w	r2, r2, r1, lsl #12
 8006194:	6182      	str	r2, [r0, #24]
 8006196:	6203      	str	r3, [r0, #32]
 8006198:	6883      	ldr	r3, [r0, #8]
 800619a:	f023 0370 	bic.w	r3, r3, #112	@ 0x70
 800619e:	f043 0367 	orr.w	r3, r3, #103	@ 0x67
 80061a2:	e7db      	b.n	800615c <HAL_TIM_ConfigClockSource+0xb8>
 80061a4:	684a      	ldr	r2, [r1, #4]
 80061a6:	68cd      	ldr	r5, [r1, #12]
 80061a8:	6a01      	ldr	r1, [r0, #32]
 80061aa:	6a03      	ldr	r3, [r0, #32]
 80061ac:	f021 010a 	bic.w	r1, r1, #10
 80061b0:	f023 0301 	bic.w	r3, r3, #1
 80061b4:	6203      	str	r3, [r0, #32]
 80061b6:	6983      	ldr	r3, [r0, #24]
 80061b8:	430a      	orrs	r2, r1
 80061ba:	f023 03f0 	bic.w	r3, r3, #240	@ 0xf0
 80061be:	ea43 1305 	orr.w	r3, r3, r5, lsl #4
 80061c2:	6183      	str	r3, [r0, #24]
 80061c4:	6202      	str	r2, [r0, #32]
 80061c6:	6883      	ldr	r3, [r0, #8]
 80061c8:	f023 0370 	bic.w	r3, r3, #112	@ 0x70
 80061cc:	f043 0347 	orr.w	r3, r3, #71	@ 0x47
 80061d0:	e7c4      	b.n	800615c <HAL_TIM_ConfigClockSource+0xb8>
 80061d2:	4602      	mov	r2, r0
 80061d4:	e78e      	b.n	80060f4 <HAL_TIM_ConfigClockSource+0x50>
	...

080061d8 <HAL_TIMEx_MasterConfigSynchronization>:
 80061d8:	b530      	push	{r4, r5, lr}
 80061da:	f890 303c 	ldrb.w	r3, [r0, #60]	@ 0x3c
 80061de:	4602      	mov	r2, r0
 80061e0:	2b01      	cmp	r3, #1
 80061e2:	f04f 0002 	mov.w	r0, #2
 80061e6:	d022      	beq.n	800622e <HAL_TIMEx_MasterConfigSynchronization+0x56>
 80061e8:	6813      	ldr	r3, [r2, #0]
 80061ea:	f882 003d 	strb.w	r0, [r2, #61]	@ 0x3d
 80061ee:	685c      	ldr	r4, [r3, #4]
 80061f0:	680d      	ldr	r5, [r1, #0]
 80061f2:	f024 0470 	bic.w	r4, r4, #112	@ 0x70
 80061f6:	432c      	orrs	r4, r5
 80061f8:	6898      	ldr	r0, [r3, #8]
 80061fa:	605c      	str	r4, [r3, #4]
 80061fc:	4c0c      	ldr	r4, [pc, #48]	@ (8006230 <HAL_TIMEx_MasterConfigSynchronization+0x58>)
 80061fe:	42a3      	cmp	r3, r4
 8006200:	d00a      	beq.n	8006218 <HAL_TIMEx_MasterConfigSynchronization+0x40>
 8006202:	f1b3 4f80 	cmp.w	r3, #1073741824	@ 0x40000000
 8006206:	d007      	beq.n	8006218 <HAL_TIMEx_MasterConfigSynchronization+0x40>
 8006208:	f5a4 3494 	sub.w	r4, r4, #75776	@ 0x12800
 800620c:	42a3      	cmp	r3, r4
 800620e:	d003      	beq.n	8006218 <HAL_TIMEx_MasterConfigSynchronization+0x40>
 8006210:	f504 6480 	add.w	r4, r4, #1024	@ 0x400
 8006214:	42a3      	cmp	r3, r4
 8006216:	d104      	bne.n	8006222 <HAL_TIMEx_MasterConfigSynchronization+0x4a>
 8006218:	6849      	ldr	r1, [r1, #4]
 800621a:	f020 0080 	bic.w	r0, r0, #128	@ 0x80
 800621e:	4301      	orrs	r1, r0
 8006220:	6099      	str	r1, [r3, #8]
 8006222:	2301      	movs	r3, #1
 8006224:	2000      	movs	r0, #0
 8006226:	f882 303d 	strb.w	r3, [r2, #61]	@ 0x3d
 800622a:	f882 003c 	strb.w	r0, [r2, #60]	@ 0x3c
 800622e:	bd30      	pop	{r4, r5, pc}
 8006230:	40012c00 	.word	0x40012c00

08006234 <UART_EndRxTransfer>:
 8006234:	6802      	ldr	r2, [r0, #0]
 8006236:	f102 030c 	add.w	r3, r2, #12
 800623a:	e853 3f00 	ldrex	r3, [r3]
 800623e:	f423 7390 	bic.w	r3, r3, #288	@ 0x120
 8006242:	320c      	adds	r2, #12
 8006244:	e842 3100 	strex	r1, r3, [r2]
 8006248:	6802      	ldr	r2, [r0, #0]
 800624a:	2900      	cmp	r1, #0
 800624c:	d1f2      	bne.n	8006234 <UART_EndRxTransfer>
 800624e:	f102 0314 	add.w	r3, r2, #20
 8006252:	e853 3f00 	ldrex	r3, [r3]
 8006256:	f023 0301 	bic.w	r3, r3, #1
 800625a:	f102 0c14 	add.w	ip, r2, #20
 800625e:	e84c 3100 	strex	r1, r3, [ip]
 8006262:	2900      	cmp	r1, #0
 8006264:	d1f3      	bne.n	800624e <UART_EndRxTransfer+0x1a>
 8006266:	6b03      	ldr	r3, [r0, #48]	@ 0x30
 8006268:	2b01      	cmp	r3, #1
 800626a:	d10b      	bne.n	8006284 <UART_EndRxTransfer+0x50>
 800626c:	f102 030c 	add.w	r3, r2, #12
 8006270:	e853 3f00 	ldrex	r3, [r3]
 8006274:	f023 0310 	bic.w	r3, r3, #16
 8006278:	f102 0c0c 	add.w	ip, r2, #12
 800627c:	e84c 3100 	strex	r1, r3, [ip]
 8006280:	2900      	cmp	r1, #0
 8006282:	d1f3      	bne.n	800626c <UART_EndRxTransfer+0x38>
 8006284:	2320      	movs	r3, #32
 8006286:	f880 3042 	strb.w	r3, [r0, #66]	@ 0x42
 800628a:	2300      	movs	r3, #0
 800628c:	6303      	str	r3, [r0, #48]	@ 0x30
 800628e:	4770      	bx	lr

08006290 <UART_SetConfig>:
 8006290:	b510      	push	{r4, lr}
 8006292:	4604      	mov	r4, r0
 8006294:	6803      	ldr	r3, [r0, #0]
 8006296:	68c1      	ldr	r1, [r0, #12]
 8006298:	691a      	ldr	r2, [r3, #16]
 800629a:	f422 5240 	bic.w	r2, r2, #12288	@ 0x3000
 800629e:	430a      	orrs	r2, r1
 80062a0:	611a      	str	r2, [r3, #16]
 80062a2:	6882      	ldr	r2, [r0, #8]
 80062a4:	6900      	ldr	r0, [r0, #16]
 80062a6:	68d9      	ldr	r1, [r3, #12]
 80062a8:	4302      	orrs	r2, r0
 80062aa:	6960      	ldr	r0, [r4, #20]
 80062ac:	f421 51b0 	bic.w	r1, r1, #5632	@ 0x1600
 80062b0:	f021 010c 	bic.w	r1, r1, #12
 80062b4:	4302      	orrs	r2, r0
 80062b6:	430a      	orrs	r2, r1
 80062b8:	60da      	str	r2, [r3, #12]
 80062ba:	695a      	ldr	r2, [r3, #20]
 80062bc:	69a1      	ldr	r1, [r4, #24]
 80062be:	f422 7240 	bic.w	r2, r2, #768	@ 0x300
 80062c2:	430a      	orrs	r2, r1
 80062c4:	615a      	str	r2, [r3, #20]
 80062c6:	4a0e      	ldr	r2, [pc, #56]	@ (8006300 <UART_SetConfig+0x70>)
 80062c8:	4293      	cmp	r3, r2
 80062ca:	d115      	bne.n	80062f8 <UART_SetConfig+0x68>
 80062cc:	f7ff fa5c 	bl	8005788 <HAL_RCC_GetPCLK2Freq>
 80062d0:	2319      	movs	r3, #25
 80062d2:	4343      	muls	r3, r0
 80062d4:	6862      	ldr	r2, [r4, #4]
 80062d6:	6820      	ldr	r0, [r4, #0]
 80062d8:	0092      	lsls	r2, r2, #2
 80062da:	fbb3 f3f2 	udiv	r3, r3, r2
 80062de:	2264      	movs	r2, #100	@ 0x64
 80062e0:	fbb3 f1f2 	udiv	r1, r3, r2
 80062e4:	fb02 3311 	mls	r3, r2, r1, r3
 80062e8:	011b      	lsls	r3, r3, #4
 80062ea:	3332      	adds	r3, #50	@ 0x32
 80062ec:	fbb3 f3f2 	udiv	r3, r3, r2
 80062f0:	eb03 1301 	add.w	r3, r3, r1, lsl #4
 80062f4:	6083      	str	r3, [r0, #8]
 80062f6:	bd10      	pop	{r4, pc}
 80062f8:	f7ff fa36 	bl	8005768 <HAL_RCC_GetPCLK1Freq>
 80062fc:	e7e8      	b.n	80062d0 <UART_SetConfig+0x40>
 80062fe:	bf00      	nop
 8006300:	40013800 	.word	0x40013800

08006304 <UART_WaitOnFlagUntilTimeout.constprop.0>:
 8006304:	b5f7      	push	{r0, r1, r2, r4, r5, r6, r7, lr}
 8006306:	4605      	mov	r5, r0
 8006308:	460c      	mov	r4, r1
 800630a:	4617      	mov	r7, r2
 800630c:	461e      	mov	r6, r3
 800630e:	682a      	ldr	r2, [r5, #0]
 8006310:	6813      	ldr	r3, [r2, #0]
 8006312:	ea34 0303 	bics.w	r3, r4, r3
 8006316:	d101      	bne.n	800631c <UART_WaitOnFlagUntilTimeout.constprop.0+0x18>
 8006318:	2000      	movs	r0, #0
 800631a:	e021      	b.n	8006360 <UART_WaitOnFlagUntilTimeout.constprop.0+0x5c>
 800631c:	1c70      	adds	r0, r6, #1
 800631e:	d0f7      	beq.n	8006310 <UART_WaitOnFlagUntilTimeout.constprop.0+0xc>
 8006320:	f7fd fc40 	bl	8003ba4 <HAL_GetTick>
 8006324:	1bc0      	subs	r0, r0, r7
 8006326:	4286      	cmp	r6, r0
 8006328:	d31c      	bcc.n	8006364 <UART_WaitOnFlagUntilTimeout.constprop.0+0x60>
 800632a:	b1de      	cbz	r6, 8006364 <UART_WaitOnFlagUntilTimeout.constprop.0+0x60>
 800632c:	682b      	ldr	r3, [r5, #0]
 800632e:	68da      	ldr	r2, [r3, #12]
 8006330:	0751      	lsls	r1, r2, #29
 8006332:	d5ec      	bpl.n	800630e <UART_WaitOnFlagUntilTimeout.constprop.0+0xa>
 8006334:	2c80      	cmp	r4, #128	@ 0x80
 8006336:	d0ea      	beq.n	800630e <UART_WaitOnFlagUntilTimeout.constprop.0+0xa>
 8006338:	2c40      	cmp	r4, #64	@ 0x40
 800633a:	d0e8      	beq.n	800630e <UART_WaitOnFlagUntilTimeout.constprop.0+0xa>
 800633c:	681a      	ldr	r2, [r3, #0]
 800633e:	0712      	lsls	r2, r2, #28
 8006340:	d5e5      	bpl.n	800630e <UART_WaitOnFlagUntilTimeout.constprop.0+0xa>
 8006342:	2400      	movs	r4, #0
 8006344:	9401      	str	r4, [sp, #4]
 8006346:	681a      	ldr	r2, [r3, #0]
 8006348:	4628      	mov	r0, r5
 800634a:	9201      	str	r2, [sp, #4]
 800634c:	685b      	ldr	r3, [r3, #4]
 800634e:	9301      	str	r3, [sp, #4]
 8006350:	9b01      	ldr	r3, [sp, #4]
 8006352:	f7ff ff6f 	bl	8006234 <UART_EndRxTransfer>
 8006356:	2308      	movs	r3, #8
 8006358:	2001      	movs	r0, #1
 800635a:	646b      	str	r3, [r5, #68]	@ 0x44
 800635c:	f885 4040 	strb.w	r4, [r5, #64]	@ 0x40
 8006360:	b003      	add	sp, #12
 8006362:	bdf0      	pop	{r4, r5, r6, r7, pc}
 8006364:	2003      	movs	r0, #3
 8006366:	e7fb      	b.n	8006360 <UART_WaitOnFlagUntilTimeout.constprop.0+0x5c>

08006368 <HAL_UART_Init>:
 8006368:	b510      	push	{r4, lr}
 800636a:	4604      	mov	r4, r0
 800636c:	b348      	cbz	r0, 80063c2 <HAL_UART_Init+0x5a>
 800636e:	f890 3041 	ldrb.w	r3, [r0, #65]	@ 0x41
 8006372:	f003 02ff 	and.w	r2, r3, #255	@ 0xff
 8006376:	b91b      	cbnz	r3, 8006380 <HAL_UART_Init+0x18>
 8006378:	f880 2040 	strb.w	r2, [r0, #64]	@ 0x40
 800637c:	f7fd fab2 	bl	80038e4 <HAL_UART_MspInit>
 8006380:	2324      	movs	r3, #36	@ 0x24
 8006382:	6822      	ldr	r2, [r4, #0]
 8006384:	f884 3041 	strb.w	r3, [r4, #65]	@ 0x41
 8006388:	68d3      	ldr	r3, [r2, #12]
 800638a:	4620      	mov	r0, r4
 800638c:	f423 5300 	bic.w	r3, r3, #8192	@ 0x2000
 8006390:	60d3      	str	r3, [r2, #12]
 8006392:	f7ff ff7d 	bl	8006290 <UART_SetConfig>
 8006396:	6823      	ldr	r3, [r4, #0]
 8006398:	2000      	movs	r0, #0
 800639a:	691a      	ldr	r2, [r3, #16]
 800639c:	f422 4290 	bic.w	r2, r2, #18432	@ 0x4800
 80063a0:	611a      	str	r2, [r3, #16]
 80063a2:	695a      	ldr	r2, [r3, #20]
 80063a4:	f022 022a 	bic.w	r2, r2, #42	@ 0x2a
 80063a8:	615a      	str	r2, [r3, #20]
 80063aa:	68da      	ldr	r2, [r3, #12]
 80063ac:	f442 5200 	orr.w	r2, r2, #8192	@ 0x2000
 80063b0:	60da      	str	r2, [r3, #12]
 80063b2:	2320      	movs	r3, #32
 80063b4:	6460      	str	r0, [r4, #68]	@ 0x44
 80063b6:	f884 3041 	strb.w	r3, [r4, #65]	@ 0x41
 80063ba:	f884 3042 	strb.w	r3, [r4, #66]	@ 0x42
 80063be:	6360      	str	r0, [r4, #52]	@ 0x34
 80063c0:	bd10      	pop	{r4, pc}
 80063c2:	2001      	movs	r0, #1
 80063c4:	e7fc      	b.n	80063c0 <HAL_UART_Init+0x58>

080063c6 <HAL_UART_Transmit>:
 80063c6:	e92d 43f8 	stmdb	sp!, {r3, r4, r5, r6, r7, r8, r9, lr}
 80063ca:	4698      	mov	r8, r3
 80063cc:	f890 3041 	ldrb.w	r3, [r0, #65]	@ 0x41
 80063d0:	4604      	mov	r4, r0
 80063d2:	2b20      	cmp	r3, #32
 80063d4:	460e      	mov	r6, r1
 80063d6:	4617      	mov	r7, r2
 80063d8:	d13f      	bne.n	800645a <HAL_UART_Transmit+0x94>
 80063da:	2900      	cmp	r1, #0
 80063dc:	d03f      	beq.n	800645e <HAL_UART_Transmit+0x98>
 80063de:	2a00      	cmp	r2, #0
 80063e0:	d03d      	beq.n	800645e <HAL_UART_Transmit+0x98>
 80063e2:	2321      	movs	r3, #33	@ 0x21
 80063e4:	2500      	movs	r5, #0
 80063e6:	6445      	str	r5, [r0, #68]	@ 0x44
 80063e8:	f880 3041 	strb.w	r3, [r0, #65]	@ 0x41
 80063ec:	f7fd fbda 	bl	8003ba4 <HAL_GetTick>
 80063f0:	68a3      	ldr	r3, [r4, #8]
 80063f2:	4681      	mov	r9, r0
 80063f4:	f5b3 5f80 	cmp.w	r3, #4096	@ 0x1000
 80063f8:	84a7      	strh	r7, [r4, #36]	@ 0x24
 80063fa:	84e7      	strh	r7, [r4, #38]	@ 0x26
 80063fc:	d103      	bne.n	8006406 <HAL_UART_Transmit+0x40>
 80063fe:	6923      	ldr	r3, [r4, #16]
 8006400:	b90b      	cbnz	r3, 8006406 <HAL_UART_Transmit+0x40>
 8006402:	4635      	mov	r5, r6
 8006404:	461e      	mov	r6, r3
 8006406:	8ce3      	ldrh	r3, [r4, #38]	@ 0x26
 8006408:	b29b      	uxth	r3, r3
 800640a:	b953      	cbnz	r3, 8006422 <HAL_UART_Transmit+0x5c>
 800640c:	4643      	mov	r3, r8
 800640e:	464a      	mov	r2, r9
 8006410:	2140      	movs	r1, #64	@ 0x40
 8006412:	4620      	mov	r0, r4
 8006414:	f7ff ff76 	bl	8006304 <UART_WaitOnFlagUntilTimeout.constprop.0>
 8006418:	2320      	movs	r3, #32
 800641a:	b950      	cbnz	r0, 8006432 <HAL_UART_Transmit+0x6c>
 800641c:	f884 3041 	strb.w	r3, [r4, #65]	@ 0x41
 8006420:	e00a      	b.n	8006438 <HAL_UART_Transmit+0x72>
 8006422:	4643      	mov	r3, r8
 8006424:	464a      	mov	r2, r9
 8006426:	2180      	movs	r1, #128	@ 0x80
 8006428:	4620      	mov	r0, r4
 800642a:	f7ff ff6b 	bl	8006304 <UART_WaitOnFlagUntilTimeout.constprop.0>
 800642e:	b128      	cbz	r0, 800643c <HAL_UART_Transmit+0x76>
 8006430:	2320      	movs	r3, #32
 8006432:	2003      	movs	r0, #3
 8006434:	f884 3041 	strb.w	r3, [r4, #65]	@ 0x41
 8006438:	e8bd 83f8 	ldmia.w	sp!, {r3, r4, r5, r6, r7, r8, r9, pc}
 800643c:	6822      	ldr	r2, [r4, #0]
 800643e:	b94e      	cbnz	r6, 8006454 <HAL_UART_Transmit+0x8e>
 8006440:	f835 3b02 	ldrh.w	r3, [r5], #2
 8006444:	f3c3 0308 	ubfx	r3, r3, #0, #9
 8006448:	6053      	str	r3, [r2, #4]
 800644a:	8ce1      	ldrh	r1, [r4, #38]	@ 0x26
 800644c:	3901      	subs	r1, #1
 800644e:	b289      	uxth	r1, r1
 8006450:	84e1      	strh	r1, [r4, #38]	@ 0x26
 8006452:	e7d8      	b.n	8006406 <HAL_UART_Transmit+0x40>
 8006454:	f816 3b01 	ldrb.w	r3, [r6], #1
 8006458:	e7f6      	b.n	8006448 <HAL_UART_Transmit+0x82>
 800645a:	2002      	movs	r0, #2
 800645c:	e7ec      	b.n	8006438 <HAL_UART_Transmit+0x72>
 800645e:	2001      	movs	r0, #1
 8006460:	e7ea      	b.n	8006438 <HAL_UART_Transmit+0x72>

08006462 <HAL_UART_TxCpltCallback>:
 8006462:	4770      	bx	lr

08006464 <HAL_UART_RxCpltCallback>:
 8006464:	4770      	bx	lr

08006466 <HAL_UART_ErrorCallback>:
 8006466:	4770      	bx	lr

08006468 <UART_DMAAbortOnError>:
 8006468:	b508      	push	{r3, lr}
 800646a:	2300      	movs	r3, #0
 800646c:	6a40      	ldr	r0, [r0, #36]	@ 0x24
 800646e:	85c3      	strh	r3, [r0, #46]	@ 0x2e
 8006470:	84c3      	strh	r3, [r0, #38]	@ 0x26
 8006472:	f7ff fff8 	bl	8006466 <HAL_UART_ErrorCallback>
 8006476:	bd08      	pop	{r3, pc}

08006478 <UART_Receive_IT.isra.0>:
 8006478:	f890 3042 	ldrb.w	r3, [r0, #66]	@ 0x42
 800647c:	b507      	push	{r0, r1, r2, lr}
 800647e:	2b22      	cmp	r3, #34	@ 0x22
 8006480:	d142      	bne.n	8006508 <UART_Receive_IT.isra.0+0x90>
 8006482:	6881      	ldr	r1, [r0, #8]
 8006484:	6802      	ldr	r2, [r0, #0]
 8006486:	f5b1 5f80 	cmp.w	r1, #4096	@ 0x1000
 800648a:	6a83      	ldr	r3, [r0, #40]	@ 0x28
 800648c:	d13f      	bne.n	800650e <UART_Receive_IT.isra.0+0x96>
 800648e:	6901      	ldr	r1, [r0, #16]
 8006490:	2900      	cmp	r1, #0
 8006492:	d13f      	bne.n	8006514 <UART_Receive_IT.isra.0+0x9c>
 8006494:	6852      	ldr	r2, [r2, #4]
 8006496:	f3c2 0208 	ubfx	r2, r2, #0, #9
 800649a:	f823 2b02 	strh.w	r2, [r3], #2
 800649e:	6283      	str	r3, [r0, #40]	@ 0x28
 80064a0:	8dc3      	ldrh	r3, [r0, #46]	@ 0x2e
 80064a2:	3b01      	subs	r3, #1
 80064a4:	b29b      	uxth	r3, r3
 80064a6:	85c3      	strh	r3, [r0, #46]	@ 0x2e
 80064a8:	2b00      	cmp	r3, #0
 80064aa:	d12d      	bne.n	8006508 <UART_Receive_IT.isra.0+0x90>
 80064ac:	6802      	ldr	r2, [r0, #0]
 80064ae:	68d1      	ldr	r1, [r2, #12]
 80064b0:	f021 0120 	bic.w	r1, r1, #32
 80064b4:	60d1      	str	r1, [r2, #12]
 80064b6:	68d1      	ldr	r1, [r2, #12]
 80064b8:	f421 7180 	bic.w	r1, r1, #256	@ 0x100
 80064bc:	60d1      	str	r1, [r2, #12]
 80064be:	6951      	ldr	r1, [r2, #20]
 80064c0:	f021 0101 	bic.w	r1, r1, #1
 80064c4:	6151      	str	r1, [r2, #20]
 80064c6:	2220      	movs	r2, #32
 80064c8:	f880 2042 	strb.w	r2, [r0, #66]	@ 0x42
 80064cc:	6343      	str	r3, [r0, #52]	@ 0x34
 80064ce:	6b02      	ldr	r2, [r0, #48]	@ 0x30
 80064d0:	2a01      	cmp	r2, #1
 80064d2:	6802      	ldr	r2, [r0, #0]
 80064d4:	d128      	bne.n	8006528 <UART_Receive_IT.isra.0+0xb0>
 80064d6:	6303      	str	r3, [r0, #48]	@ 0x30
 80064d8:	f102 030c 	add.w	r3, r2, #12
 80064dc:	e853 3f00 	ldrex	r3, [r3]
 80064e0:	f023 0310 	bic.w	r3, r3, #16
 80064e4:	f102 0c0c 	add.w	ip, r2, #12
 80064e8:	e84c 3100 	strex	r1, r3, [ip]
 80064ec:	2900      	cmp	r1, #0
 80064ee:	d1f3      	bne.n	80064d8 <UART_Receive_IT.isra.0+0x60>
 80064f0:	6813      	ldr	r3, [r2, #0]
 80064f2:	06db      	lsls	r3, r3, #27
 80064f4:	d505      	bpl.n	8006502 <UART_Receive_IT.isra.0+0x8a>
 80064f6:	9101      	str	r1, [sp, #4]
 80064f8:	6813      	ldr	r3, [r2, #0]
 80064fa:	9301      	str	r3, [sp, #4]
 80064fc:	6853      	ldr	r3, [r2, #4]
 80064fe:	9301      	str	r3, [sp, #4]
 8006500:	9b01      	ldr	r3, [sp, #4]
 8006502:	8d81      	ldrh	r1, [r0, #44]	@ 0x2c
 8006504:	f7fd f870 	bl	80035e8 <HAL_UARTEx_RxEventCallback>
 8006508:	b003      	add	sp, #12
 800650a:	f85d fb04 	ldr.w	pc, [sp], #4
 800650e:	b939      	cbnz	r1, 8006520 <UART_Receive_IT.isra.0+0xa8>
 8006510:	6901      	ldr	r1, [r0, #16]
 8006512:	b929      	cbnz	r1, 8006520 <UART_Receive_IT.isra.0+0xa8>
 8006514:	6852      	ldr	r2, [r2, #4]
 8006516:	b2d2      	uxtb	r2, r2
 8006518:	701a      	strb	r2, [r3, #0]
 800651a:	6a83      	ldr	r3, [r0, #40]	@ 0x28
 800651c:	3301      	adds	r3, #1
 800651e:	e7be      	b.n	800649e <UART_Receive_IT.isra.0+0x26>
 8006520:	6852      	ldr	r2, [r2, #4]
 8006522:	f002 027f 	and.w	r2, r2, #127	@ 0x7f
 8006526:	e7f7      	b.n	8006518 <UART_Receive_IT.isra.0+0xa0>
 8006528:	f7ff ff9c 	bl	8006464 <HAL_UART_RxCpltCallback>
 800652c:	e7ec      	b.n	8006508 <UART_Receive_IT.isra.0+0x90>
	...

08006530 <HAL_UART_IRQHandler>:
 8006530:	6803      	ldr	r3, [r0, #0]
 8006532:	b573      	push	{r0, r1, r4, r5, r6, lr}
 8006534:	681a      	ldr	r2, [r3, #0]
 8006536:	4604      	mov	r4, r0
 8006538:	0716      	lsls	r6, r2, #28
 800653a:	68d9      	ldr	r1, [r3, #12]
 800653c:	695d      	ldr	r5, [r3, #20]
 800653e:	d108      	bne.n	8006552 <HAL_UART_IRQHandler+0x22>
 8006540:	0696      	lsls	r6, r2, #26
 8006542:	d568      	bpl.n	8006616 <HAL_UART_IRQHandler+0xe6>
 8006544:	068d      	lsls	r5, r1, #26
 8006546:	d566      	bpl.n	8006616 <HAL_UART_IRQHandler+0xe6>
 8006548:	b002      	add	sp, #8
 800654a:	e8bd 4070 	ldmia.w	sp!, {r4, r5, r6, lr}
 800654e:	f7ff bf93 	b.w	8006478 <UART_Receive_IT.isra.0>
 8006552:	f005 0001 	and.w	r0, r5, #1
 8006556:	f401 7590 	and.w	r5, r1, #288	@ 0x120
 800655a:	4305      	orrs	r5, r0
 800655c:	d05b      	beq.n	8006616 <HAL_UART_IRQHandler+0xe6>
 800655e:	07d6      	lsls	r6, r2, #31
 8006560:	d505      	bpl.n	800656e <HAL_UART_IRQHandler+0x3e>
 8006562:	05cd      	lsls	r5, r1, #23
 8006564:	bf42      	ittt	mi
 8006566:	6c63      	ldrmi	r3, [r4, #68]	@ 0x44
 8006568:	f043 0301 	orrmi.w	r3, r3, #1
 800656c:	6463      	strmi	r3, [r4, #68]	@ 0x44
 800656e:	0753      	lsls	r3, r2, #29
 8006570:	d504      	bpl.n	800657c <HAL_UART_IRQHandler+0x4c>
 8006572:	b118      	cbz	r0, 800657c <HAL_UART_IRQHandler+0x4c>
 8006574:	6c63      	ldr	r3, [r4, #68]	@ 0x44
 8006576:	f043 0302 	orr.w	r3, r3, #2
 800657a:	6463      	str	r3, [r4, #68]	@ 0x44
 800657c:	0796      	lsls	r6, r2, #30
 800657e:	d504      	bpl.n	800658a <HAL_UART_IRQHandler+0x5a>
 8006580:	b118      	cbz	r0, 800658a <HAL_UART_IRQHandler+0x5a>
 8006582:	6c63      	ldr	r3, [r4, #68]	@ 0x44
 8006584:	f043 0304 	orr.w	r3, r3, #4
 8006588:	6463      	str	r3, [r4, #68]	@ 0x44
 800658a:	0715      	lsls	r5, r2, #28
 800658c:	d507      	bpl.n	800659e <HAL_UART_IRQHandler+0x6e>
 800658e:	f001 0320 	and.w	r3, r1, #32
 8006592:	4303      	orrs	r3, r0
 8006594:	bf1e      	ittt	ne
 8006596:	6c63      	ldrne	r3, [r4, #68]	@ 0x44
 8006598:	f043 0308 	orrne.w	r3, r3, #8
 800659c:	6463      	strne	r3, [r4, #68]	@ 0x44
 800659e:	6c63      	ldr	r3, [r4, #68]	@ 0x44
 80065a0:	2b00      	cmp	r3, #0
 80065a2:	d032      	beq.n	800660a <HAL_UART_IRQHandler+0xda>
 80065a4:	0692      	lsls	r2, r2, #26
 80065a6:	d504      	bpl.n	80065b2 <HAL_UART_IRQHandler+0x82>
 80065a8:	068b      	lsls	r3, r1, #26
 80065aa:	d502      	bpl.n	80065b2 <HAL_UART_IRQHandler+0x82>
 80065ac:	4620      	mov	r0, r4
 80065ae:	f7ff ff63 	bl	8006478 <UART_Receive_IT.isra.0>
 80065b2:	6826      	ldr	r6, [r4, #0]
 80065b4:	4620      	mov	r0, r4
 80065b6:	6973      	ldr	r3, [r6, #20]
 80065b8:	6c62      	ldr	r2, [r4, #68]	@ 0x44
 80065ba:	f003 0340 	and.w	r3, r3, #64	@ 0x40
 80065be:	f002 0208 	and.w	r2, r2, #8
 80065c2:	ea53 0502 	orrs.w	r5, r3, r2
 80065c6:	d022      	beq.n	800660e <HAL_UART_IRQHandler+0xde>
 80065c8:	f7ff fe34 	bl	8006234 <UART_EndRxTransfer>
 80065cc:	6973      	ldr	r3, [r6, #20]
 80065ce:	065e      	lsls	r6, r3, #25
 80065d0:	d518      	bpl.n	8006604 <HAL_UART_IRQHandler+0xd4>
 80065d2:	6822      	ldr	r2, [r4, #0]
 80065d4:	f102 0314 	add.w	r3, r2, #20
 80065d8:	e853 3f00 	ldrex	r3, [r3]
 80065dc:	f023 0340 	bic.w	r3, r3, #64	@ 0x40
 80065e0:	3214      	adds	r2, #20
 80065e2:	e842 3100 	strex	r1, r3, [r2]
 80065e6:	2900      	cmp	r1, #0
 80065e8:	d1f3      	bne.n	80065d2 <HAL_UART_IRQHandler+0xa2>
 80065ea:	6be0      	ldr	r0, [r4, #60]	@ 0x3c
 80065ec:	b150      	cbz	r0, 8006604 <HAL_UART_IRQHandler+0xd4>
 80065ee:	4b74      	ldr	r3, [pc, #464]	@ (80067c0 <HAL_UART_IRQHandler+0x290>)
 80065f0:	6343      	str	r3, [r0, #52]	@ 0x34
 80065f2:	f7fd fe49 	bl	8004288 <HAL_DMA_Abort_IT>
 80065f6:	b140      	cbz	r0, 800660a <HAL_UART_IRQHandler+0xda>
 80065f8:	6be0      	ldr	r0, [r4, #60]	@ 0x3c
 80065fa:	6b43      	ldr	r3, [r0, #52]	@ 0x34
 80065fc:	b002      	add	sp, #8
 80065fe:	e8bd 4070 	ldmia.w	sp!, {r4, r5, r6, lr}
 8006602:	4718      	bx	r3
 8006604:	4620      	mov	r0, r4
 8006606:	f7ff ff2e 	bl	8006466 <HAL_UART_ErrorCallback>
 800660a:	b002      	add	sp, #8
 800660c:	bd70      	pop	{r4, r5, r6, pc}
 800660e:	f7ff ff2a 	bl	8006466 <HAL_UART_ErrorCallback>
 8006612:	6465      	str	r5, [r4, #68]	@ 0x44
 8006614:	e7f9      	b.n	800660a <HAL_UART_IRQHandler+0xda>
 8006616:	6b20      	ldr	r0, [r4, #48]	@ 0x30
 8006618:	2801      	cmp	r0, #1
 800661a:	f040 8094 	bne.w	8006746 <HAL_UART_IRQHandler+0x216>
 800661e:	06d5      	lsls	r5, r2, #27
 8006620:	f140 8091 	bpl.w	8006746 <HAL_UART_IRQHandler+0x216>
 8006624:	06c8      	lsls	r0, r1, #27
 8006626:	f140 808e 	bpl.w	8006746 <HAL_UART_IRQHandler+0x216>
 800662a:	2200      	movs	r2, #0
 800662c:	9201      	str	r2, [sp, #4]
 800662e:	681a      	ldr	r2, [r3, #0]
 8006630:	9201      	str	r2, [sp, #4]
 8006632:	685a      	ldr	r2, [r3, #4]
 8006634:	9201      	str	r2, [sp, #4]
 8006636:	9a01      	ldr	r2, [sp, #4]
 8006638:	695a      	ldr	r2, [r3, #20]
 800663a:	0652      	lsls	r2, r2, #25
 800663c:	d54d      	bpl.n	80066da <HAL_UART_IRQHandler+0x1aa>
 800663e:	6be1      	ldr	r1, [r4, #60]	@ 0x3c
 8006640:	680a      	ldr	r2, [r1, #0]
 8006642:	6852      	ldr	r2, [r2, #4]
 8006644:	b292      	uxth	r2, r2
 8006646:	2a00      	cmp	r2, #0
 8006648:	d0df      	beq.n	800660a <HAL_UART_IRQHandler+0xda>
 800664a:	8da0      	ldrh	r0, [r4, #44]	@ 0x2c
 800664c:	4290      	cmp	r0, r2
 800664e:	d9dc      	bls.n	800660a <HAL_UART_IRQHandler+0xda>
 8006650:	85e2      	strh	r2, [r4, #46]	@ 0x2e
 8006652:	698a      	ldr	r2, [r1, #24]
 8006654:	2a20      	cmp	r2, #32
 8006656:	d036      	beq.n	80066c6 <HAL_UART_IRQHandler+0x196>
 8006658:	f103 020c 	add.w	r2, r3, #12
 800665c:	e852 2f00 	ldrex	r2, [r2]
 8006660:	f422 7280 	bic.w	r2, r2, #256	@ 0x100
 8006664:	f103 000c 	add.w	r0, r3, #12
 8006668:	e840 2100 	strex	r1, r2, [r0]
 800666c:	2900      	cmp	r1, #0
 800666e:	d1f3      	bne.n	8006658 <HAL_UART_IRQHandler+0x128>
 8006670:	f103 0214 	add.w	r2, r3, #20
 8006674:	e852 2f00 	ldrex	r2, [r2]
 8006678:	f022 0201 	bic.w	r2, r2, #1
 800667c:	f103 0014 	add.w	r0, r3, #20
 8006680:	e840 2100 	strex	r1, r2, [r0]
 8006684:	2900      	cmp	r1, #0
 8006686:	d1f3      	bne.n	8006670 <HAL_UART_IRQHandler+0x140>
 8006688:	f103 0214 	add.w	r2, r3, #20
 800668c:	e852 2f00 	ldrex	r2, [r2]
 8006690:	f022 0240 	bic.w	r2, r2, #64	@ 0x40
 8006694:	f103 0014 	add.w	r0, r3, #20
 8006698:	e840 2100 	strex	r1, r2, [r0]
 800669c:	2900      	cmp	r1, #0
 800669e:	d1f3      	bne.n	8006688 <HAL_UART_IRQHandler+0x158>
 80066a0:	2220      	movs	r2, #32
 80066a2:	f884 2042 	strb.w	r2, [r4, #66]	@ 0x42
 80066a6:	6321      	str	r1, [r4, #48]	@ 0x30
 80066a8:	f103 020c 	add.w	r2, r3, #12
 80066ac:	e852 2f00 	ldrex	r2, [r2]
 80066b0:	f022 0210 	bic.w	r2, r2, #16
 80066b4:	f103 000c 	add.w	r0, r3, #12
 80066b8:	e840 2100 	strex	r1, r2, [r0]
 80066bc:	2900      	cmp	r1, #0
 80066be:	d1f3      	bne.n	80066a8 <HAL_UART_IRQHandler+0x178>
 80066c0:	6be0      	ldr	r0, [r4, #60]	@ 0x3c
 80066c2:	f7fd fdc1 	bl	8004248 <HAL_DMA_Abort>
 80066c6:	2302      	movs	r3, #2
 80066c8:	6363      	str	r3, [r4, #52]	@ 0x34
 80066ca:	8de3      	ldrh	r3, [r4, #46]	@ 0x2e
 80066cc:	8da1      	ldrh	r1, [r4, #44]	@ 0x2c
 80066ce:	1ac9      	subs	r1, r1, r3
 80066d0:	b289      	uxth	r1, r1
 80066d2:	4620      	mov	r0, r4
 80066d4:	f7fc ff88 	bl	80035e8 <HAL_UARTEx_RxEventCallback>
 80066d8:	e797      	b.n	800660a <HAL_UART_IRQHandler+0xda>
 80066da:	8de2      	ldrh	r2, [r4, #46]	@ 0x2e
 80066dc:	8de0      	ldrh	r0, [r4, #46]	@ 0x2e
 80066de:	8da1      	ldrh	r1, [r4, #44]	@ 0x2c
 80066e0:	b280      	uxth	r0, r0
 80066e2:	b292      	uxth	r2, r2
 80066e4:	2800      	cmp	r0, #0
 80066e6:	d090      	beq.n	800660a <HAL_UART_IRQHandler+0xda>
 80066e8:	1a89      	subs	r1, r1, r2
 80066ea:	b289      	uxth	r1, r1
 80066ec:	2900      	cmp	r1, #0
 80066ee:	d08c      	beq.n	800660a <HAL_UART_IRQHandler+0xda>
 80066f0:	f103 020c 	add.w	r2, r3, #12
 80066f4:	e852 2f00 	ldrex	r2, [r2]
 80066f8:	f422 7290 	bic.w	r2, r2, #288	@ 0x120
 80066fc:	f103 050c 	add.w	r5, r3, #12
 8006700:	e845 2000 	strex	r0, r2, [r5]
 8006704:	2800      	cmp	r0, #0
 8006706:	d1f3      	bne.n	80066f0 <HAL_UART_IRQHandler+0x1c0>
 8006708:	f103 0214 	add.w	r2, r3, #20
 800670c:	e852 2f00 	ldrex	r2, [r2]
 8006710:	f022 0201 	bic.w	r2, r2, #1
 8006714:	f103 0514 	add.w	r5, r3, #20
 8006718:	e845 2000 	strex	r0, r2, [r5]
 800671c:	2800      	cmp	r0, #0
 800671e:	d1f3      	bne.n	8006708 <HAL_UART_IRQHandler+0x1d8>
 8006720:	2220      	movs	r2, #32
 8006722:	f884 2042 	strb.w	r2, [r4, #66]	@ 0x42
 8006726:	6320      	str	r0, [r4, #48]	@ 0x30
 8006728:	f103 020c 	add.w	r2, r3, #12
 800672c:	e852 2f00 	ldrex	r2, [r2]
 8006730:	f022 0210 	bic.w	r2, r2, #16
 8006734:	f103 050c 	add.w	r5, r3, #12
 8006738:	e845 2000 	strex	r0, r2, [r5]
 800673c:	2800      	cmp	r0, #0
 800673e:	d1f3      	bne.n	8006728 <HAL_UART_IRQHandler+0x1f8>
 8006740:	2302      	movs	r3, #2
 8006742:	6363      	str	r3, [r4, #52]	@ 0x34
 8006744:	e7c5      	b.n	80066d2 <HAL_UART_IRQHandler+0x1a2>
 8006746:	0616      	lsls	r6, r2, #24
 8006748:	d528      	bpl.n	800679c <HAL_UART_IRQHandler+0x26c>
 800674a:	060d      	lsls	r5, r1, #24
 800674c:	d526      	bpl.n	800679c <HAL_UART_IRQHandler+0x26c>
 800674e:	f894 2041 	ldrb.w	r2, [r4, #65]	@ 0x41
 8006752:	2a21      	cmp	r2, #33	@ 0x21
 8006754:	f47f af59 	bne.w	800660a <HAL_UART_IRQHandler+0xda>
 8006758:	68a1      	ldr	r1, [r4, #8]
 800675a:	6a22      	ldr	r2, [r4, #32]
 800675c:	f5b1 5f80 	cmp.w	r1, #4096	@ 0x1000
 8006760:	d117      	bne.n	8006792 <HAL_UART_IRQHandler+0x262>
 8006762:	6921      	ldr	r1, [r4, #16]
 8006764:	b9a9      	cbnz	r1, 8006792 <HAL_UART_IRQHandler+0x262>
 8006766:	f832 1b02 	ldrh.w	r1, [r2], #2
 800676a:	f3c1 0108 	ubfx	r1, r1, #0, #9
 800676e:	6059      	str	r1, [r3, #4]
 8006770:	6222      	str	r2, [r4, #32]
 8006772:	8ce2      	ldrh	r2, [r4, #38]	@ 0x26
 8006774:	3a01      	subs	r2, #1
 8006776:	b292      	uxth	r2, r2
 8006778:	84e2      	strh	r2, [r4, #38]	@ 0x26
 800677a:	2a00      	cmp	r2, #0
 800677c:	f47f af45 	bne.w	800660a <HAL_UART_IRQHandler+0xda>
 8006780:	68da      	ldr	r2, [r3, #12]
 8006782:	f022 0280 	bic.w	r2, r2, #128	@ 0x80
 8006786:	60da      	str	r2, [r3, #12]
 8006788:	68da      	ldr	r2, [r3, #12]
 800678a:	f042 0240 	orr.w	r2, r2, #64	@ 0x40
 800678e:	60da      	str	r2, [r3, #12]
 8006790:	e73b      	b.n	800660a <HAL_UART_IRQHandler+0xda>
 8006792:	1c51      	adds	r1, r2, #1
 8006794:	6221      	str	r1, [r4, #32]
 8006796:	7812      	ldrb	r2, [r2, #0]
 8006798:	605a      	str	r2, [r3, #4]
 800679a:	e7ea      	b.n	8006772 <HAL_UART_IRQHandler+0x242>
 800679c:	0650      	lsls	r0, r2, #25
 800679e:	f57f af34 	bpl.w	800660a <HAL_UART_IRQHandler+0xda>
 80067a2:	064a      	lsls	r2, r1, #25
 80067a4:	f57f af31 	bpl.w	800660a <HAL_UART_IRQHandler+0xda>
 80067a8:	68da      	ldr	r2, [r3, #12]
 80067aa:	4620      	mov	r0, r4
 80067ac:	f022 0240 	bic.w	r2, r2, #64	@ 0x40
 80067b0:	60da      	str	r2, [r3, #12]
 80067b2:	2320      	movs	r3, #32
 80067b4:	f884 3041 	strb.w	r3, [r4, #65]	@ 0x41
 80067b8:	f7ff fe53 	bl	8006462 <HAL_UART_TxCpltCallback>
 80067bc:	e725      	b.n	800660a <HAL_UART_IRQHandler+0xda>
 80067be:	bf00      	nop
 80067c0:	08006469 	.word	0x08006469

080067c4 <UART_Start_Receive_IT>:
 80067c4:	2300      	movs	r3, #0
 80067c6:	85c2      	strh	r2, [r0, #46]	@ 0x2e
 80067c8:	6443      	str	r3, [r0, #68]	@ 0x44
 80067ca:	2322      	movs	r3, #34	@ 0x22
 80067cc:	8582      	strh	r2, [r0, #44]	@ 0x2c
 80067ce:	6902      	ldr	r2, [r0, #16]
 80067d0:	f880 3042 	strb.w	r3, [r0, #66]	@ 0x42
 80067d4:	6281      	str	r1, [r0, #40]	@ 0x28
 80067d6:	6803      	ldr	r3, [r0, #0]
 80067d8:	b11a      	cbz	r2, 80067e2 <UART_Start_Receive_IT+0x1e>
 80067da:	68da      	ldr	r2, [r3, #12]
 80067dc:	f442 7280 	orr.w	r2, r2, #256	@ 0x100
 80067e0:	60da      	str	r2, [r3, #12]
 80067e2:	695a      	ldr	r2, [r3, #20]
 80067e4:	2000      	movs	r0, #0
 80067e6:	f042 0201 	orr.w	r2, r2, #1
 80067ea:	615a      	str	r2, [r3, #20]
 80067ec:	68da      	ldr	r2, [r3, #12]
 80067ee:	f042 0220 	orr.w	r2, r2, #32
 80067f2:	60da      	str	r2, [r3, #12]
 80067f4:	4770      	bx	lr

080067f6 <HAL_UARTEx_ReceiveToIdle_IT>:
 80067f6:	b573      	push	{r0, r1, r4, r5, r6, lr}
 80067f8:	f890 6042 	ldrb.w	r6, [r0, #66]	@ 0x42
 80067fc:	4604      	mov	r4, r0
 80067fe:	2e20      	cmp	r6, #32
 8006800:	d124      	bne.n	800684c <HAL_UARTEx_ReceiveToIdle_IT+0x56>
 8006802:	b911      	cbnz	r1, 800680a <HAL_UARTEx_ReceiveToIdle_IT+0x14>
 8006804:	2001      	movs	r0, #1
 8006806:	b002      	add	sp, #8
 8006808:	bd70      	pop	{r4, r5, r6, pc}
 800680a:	2a00      	cmp	r2, #0
 800680c:	d0fa      	beq.n	8006804 <HAL_UARTEx_ReceiveToIdle_IT+0xe>
 800680e:	2301      	movs	r3, #1
 8006810:	6303      	str	r3, [r0, #48]	@ 0x30
 8006812:	2300      	movs	r3, #0
 8006814:	6343      	str	r3, [r0, #52]	@ 0x34
 8006816:	f7ff ffd5 	bl	80067c4 <UART_Start_Receive_IT>
 800681a:	2800      	cmp	r0, #0
 800681c:	d1f3      	bne.n	8006806 <HAL_UARTEx_ReceiveToIdle_IT+0x10>
 800681e:	6b23      	ldr	r3, [r4, #48]	@ 0x30
 8006820:	2b01      	cmp	r3, #1
 8006822:	d1ef      	bne.n	8006804 <HAL_UARTEx_ReceiveToIdle_IT+0xe>
 8006824:	6822      	ldr	r2, [r4, #0]
 8006826:	9001      	str	r0, [sp, #4]
 8006828:	6813      	ldr	r3, [r2, #0]
 800682a:	9301      	str	r3, [sp, #4]
 800682c:	6853      	ldr	r3, [r2, #4]
 800682e:	9301      	str	r3, [sp, #4]
 8006830:	9b01      	ldr	r3, [sp, #4]
 8006832:	f102 030c 	add.w	r3, r2, #12
 8006836:	e853 3f00 	ldrex	r3, [r3]
 800683a:	f043 0310 	orr.w	r3, r3, #16
 800683e:	f102 040c 	add.w	r4, r2, #12
 8006842:	e844 3100 	strex	r1, r3, [r4]
 8006846:	2900      	cmp	r1, #0
 8006848:	d1f3      	bne.n	8006832 <HAL_UARTEx_ReceiveToIdle_IT+0x3c>
 800684a:	e7dc      	b.n	8006806 <HAL_UARTEx_ReceiveToIdle_IT+0x10>
 800684c:	2002      	movs	r0, #2
 800684e:	e7da      	b.n	8006806 <HAL_UARTEx_ReceiveToIdle_IT+0x10>

08006850 <__cvt>:
 8006850:	2b00      	cmp	r3, #0
 8006852:	e92d 47f0 	stmdb	sp!, {r4, r5, r6, r7, r8, r9, sl, lr}
 8006856:	461d      	mov	r5, r3
 8006858:	bfbb      	ittet	lt
 800685a:	f103 4300 	addlt.w	r3, r3, #2147483648	@ 0x80000000
 800685e:	461d      	movlt	r5, r3
 8006860:	2300      	movge	r3, #0
 8006862:	232d      	movlt	r3, #45	@ 0x2d
 8006864:	b088      	sub	sp, #32
 8006866:	4614      	mov	r4, r2
 8006868:	bfb8      	it	lt
 800686a:	4614      	movlt	r4, r2
 800686c:	9a12      	ldr	r2, [sp, #72]	@ 0x48
 800686e:	9e10      	ldr	r6, [sp, #64]	@ 0x40
 8006870:	7013      	strb	r3, [r2, #0]
 8006872:	9b14      	ldr	r3, [sp, #80]	@ 0x50
 8006874:	f8dd a04c 	ldr.w	sl, [sp, #76]	@ 0x4c
 8006878:	f023 0820 	bic.w	r8, r3, #32
 800687c:	f1b8 0f46 	cmp.w	r8, #70	@ 0x46
 8006880:	d005      	beq.n	800688e <__cvt+0x3e>
 8006882:	f1b8 0f45 	cmp.w	r8, #69	@ 0x45
 8006886:	d100      	bne.n	800688a <__cvt+0x3a>
 8006888:	3601      	adds	r6, #1
 800688a:	2302      	movs	r3, #2
 800688c:	e000      	b.n	8006890 <__cvt+0x40>
 800688e:	2303      	movs	r3, #3
 8006890:	aa07      	add	r2, sp, #28
 8006892:	9204      	str	r2, [sp, #16]
 8006894:	aa06      	add	r2, sp, #24
 8006896:	e9cd a202 	strd	sl, r2, [sp, #8]
 800689a:	e9cd 3600 	strd	r3, r6, [sp]
 800689e:	4622      	mov	r2, r4
 80068a0:	462b      	mov	r3, r5
 80068a2:	f000 fed1 	bl	8007648 <_dtoa_r>
 80068a6:	f1b8 0f47 	cmp.w	r8, #71	@ 0x47
 80068aa:	4607      	mov	r7, r0
 80068ac:	d119      	bne.n	80068e2 <__cvt+0x92>
 80068ae:	9b11      	ldr	r3, [sp, #68]	@ 0x44
 80068b0:	07db      	lsls	r3, r3, #31
 80068b2:	d50e      	bpl.n	80068d2 <__cvt+0x82>
 80068b4:	eb00 0906 	add.w	r9, r0, r6
 80068b8:	2200      	movs	r2, #0
 80068ba:	2300      	movs	r3, #0
 80068bc:	4620      	mov	r0, r4
 80068be:	4629      	mov	r1, r5
 80068c0:	f7fa f872 	bl	80009a8 <__aeabi_dcmpeq>
 80068c4:	b108      	cbz	r0, 80068ca <__cvt+0x7a>
 80068c6:	f8cd 901c 	str.w	r9, [sp, #28]
 80068ca:	2230      	movs	r2, #48	@ 0x30
 80068cc:	9b07      	ldr	r3, [sp, #28]
 80068ce:	454b      	cmp	r3, r9
 80068d0:	d31e      	bcc.n	8006910 <__cvt+0xc0>
 80068d2:	4638      	mov	r0, r7
 80068d4:	9b07      	ldr	r3, [sp, #28]
 80068d6:	9a15      	ldr	r2, [sp, #84]	@ 0x54
 80068d8:	1bdb      	subs	r3, r3, r7
 80068da:	6013      	str	r3, [r2, #0]
 80068dc:	b008      	add	sp, #32
 80068de:	e8bd 87f0 	ldmia.w	sp!, {r4, r5, r6, r7, r8, r9, sl, pc}
 80068e2:	f1b8 0f46 	cmp.w	r8, #70	@ 0x46
 80068e6:	eb00 0906 	add.w	r9, r0, r6
 80068ea:	d1e5      	bne.n	80068b8 <__cvt+0x68>
 80068ec:	7803      	ldrb	r3, [r0, #0]
 80068ee:	2b30      	cmp	r3, #48	@ 0x30
 80068f0:	d10a      	bne.n	8006908 <__cvt+0xb8>
 80068f2:	2200      	movs	r2, #0
 80068f4:	2300      	movs	r3, #0
 80068f6:	4620      	mov	r0, r4
 80068f8:	4629      	mov	r1, r5
 80068fa:	f7fa f855 	bl	80009a8 <__aeabi_dcmpeq>
 80068fe:	b918      	cbnz	r0, 8006908 <__cvt+0xb8>
 8006900:	f1c6 0601 	rsb	r6, r6, #1
 8006904:	f8ca 6000 	str.w	r6, [sl]
 8006908:	f8da 3000 	ldr.w	r3, [sl]
 800690c:	4499      	add	r9, r3
 800690e:	e7d3      	b.n	80068b8 <__cvt+0x68>
 8006910:	1c59      	adds	r1, r3, #1
 8006912:	9107      	str	r1, [sp, #28]
 8006914:	701a      	strb	r2, [r3, #0]
 8006916:	e7d9      	b.n	80068cc <__cvt+0x7c>

08006918 <__exponent>:
 8006918:	b5f7      	push	{r0, r1, r2, r4, r5, r6, r7, lr}
 800691a:	2900      	cmp	r1, #0
 800691c:	bfb6      	itet	lt
 800691e:	232d      	movlt	r3, #45	@ 0x2d
 8006920:	232b      	movge	r3, #43	@ 0x2b
 8006922:	4249      	neglt	r1, r1
 8006924:	2909      	cmp	r1, #9
 8006926:	7002      	strb	r2, [r0, #0]
 8006928:	7043      	strb	r3, [r0, #1]
 800692a:	dd29      	ble.n	8006980 <__exponent+0x68>
 800692c:	f10d 0307 	add.w	r3, sp, #7
 8006930:	461d      	mov	r5, r3
 8006932:	270a      	movs	r7, #10
 8006934:	fbb1 f6f7 	udiv	r6, r1, r7
 8006938:	461a      	mov	r2, r3
 800693a:	fb07 1416 	mls	r4, r7, r6, r1
 800693e:	3430      	adds	r4, #48	@ 0x30
 8006940:	f802 4c01 	strb.w	r4, [r2, #-1]
 8006944:	460c      	mov	r4, r1
 8006946:	2c63      	cmp	r4, #99	@ 0x63
 8006948:	4631      	mov	r1, r6
 800694a:	f103 33ff 	add.w	r3, r3, #4294967295
 800694e:	dcf1      	bgt.n	8006934 <__exponent+0x1c>
 8006950:	3130      	adds	r1, #48	@ 0x30
 8006952:	1e94      	subs	r4, r2, #2
 8006954:	f803 1c01 	strb.w	r1, [r3, #-1]
 8006958:	4623      	mov	r3, r4
 800695a:	1c41      	adds	r1, r0, #1
 800695c:	42ab      	cmp	r3, r5
 800695e:	d30a      	bcc.n	8006976 <__exponent+0x5e>
 8006960:	f10d 0309 	add.w	r3, sp, #9
 8006964:	1a9b      	subs	r3, r3, r2
 8006966:	42ac      	cmp	r4, r5
 8006968:	bf88      	it	hi
 800696a:	2300      	movhi	r3, #0
 800696c:	3302      	adds	r3, #2
 800696e:	4403      	add	r3, r0
 8006970:	1a18      	subs	r0, r3, r0
 8006972:	b003      	add	sp, #12
 8006974:	bdf0      	pop	{r4, r5, r6, r7, pc}
 8006976:	f813 6b01 	ldrb.w	r6, [r3], #1
 800697a:	f801 6f01 	strb.w	r6, [r1, #1]!
 800697e:	e7ed      	b.n	800695c <__exponent+0x44>
 8006980:	2330      	movs	r3, #48	@ 0x30
 8006982:	3130      	adds	r1, #48	@ 0x30
 8006984:	7083      	strb	r3, [r0, #2]
 8006986:	70c1      	strb	r1, [r0, #3]
 8006988:	1d03      	adds	r3, r0, #4
 800698a:	e7f1      	b.n	8006970 <__exponent+0x58>

0800698c <_printf_float>:
 800698c:	e92d 4ff0 	stmdb	sp!, {r4, r5, r6, r7, r8, r9, sl, fp, lr}
 8006990:	b091      	sub	sp, #68	@ 0x44
 8006992:	460c      	mov	r4, r1
 8006994:	f8dd 8068 	ldr.w	r8, [sp, #104]	@ 0x68
 8006998:	4616      	mov	r6, r2
 800699a:	461f      	mov	r7, r3
 800699c:	4605      	mov	r5, r0
 800699e:	f000 fd2d 	bl	80073fc <_localeconv_r>
 80069a2:	6803      	ldr	r3, [r0, #0]
 80069a4:	4618      	mov	r0, r3
 80069a6:	9308      	str	r3, [sp, #32]
 80069a8:	f7f9 fbd2 	bl	8000150 <strlen>
 80069ac:	2300      	movs	r3, #0
 80069ae:	930e      	str	r3, [sp, #56]	@ 0x38
 80069b0:	f8d8 3000 	ldr.w	r3, [r8]
 80069b4:	9009      	str	r0, [sp, #36]	@ 0x24
 80069b6:	3307      	adds	r3, #7
 80069b8:	f023 0307 	bic.w	r3, r3, #7
 80069bc:	f103 0208 	add.w	r2, r3, #8
 80069c0:	f894 a018 	ldrb.w	sl, [r4, #24]
 80069c4:	f8d4 b000 	ldr.w	fp, [r4]
 80069c8:	f8c8 2000 	str.w	r2, [r8]
 80069cc:	e9d3 8900 	ldrd	r8, r9, [r3]
 80069d0:	f029 4300 	bic.w	r3, r9, #2147483648	@ 0x80000000
 80069d4:	930b      	str	r3, [sp, #44]	@ 0x2c
 80069d6:	f8cd 8028 	str.w	r8, [sp, #40]	@ 0x28
 80069da:	f04f 32ff 	mov.w	r2, #4294967295
 80069de:	e9dd 010a 	ldrd	r0, r1, [sp, #40]	@ 0x28
 80069e2:	e9c4 8912 	strd	r8, r9, [r4, #72]	@ 0x48
 80069e6:	4b9c      	ldr	r3, [pc, #624]	@ (8006c58 <_printf_float+0x2cc>)
 80069e8:	f7fa f810 	bl	8000a0c <__aeabi_dcmpun>
 80069ec:	bb70      	cbnz	r0, 8006a4c <_printf_float+0xc0>
 80069ee:	e9dd 010a 	ldrd	r0, r1, [sp, #40]	@ 0x28
 80069f2:	f04f 32ff 	mov.w	r2, #4294967295
 80069f6:	4b98      	ldr	r3, [pc, #608]	@ (8006c58 <_printf_float+0x2cc>)
 80069f8:	f7f9 ffea 	bl	80009d0 <__aeabi_dcmple>
 80069fc:	bb30      	cbnz	r0, 8006a4c <_printf_float+0xc0>
 80069fe:	2200      	movs	r2, #0
 8006a00:	2300      	movs	r3, #0
 8006a02:	4640      	mov	r0, r8
 8006a04:	4649      	mov	r1, r9
 8006a06:	f7f9 ffd9 	bl	80009bc <__aeabi_dcmplt>
 8006a0a:	b110      	cbz	r0, 8006a12 <_printf_float+0x86>
 8006a0c:	232d      	movs	r3, #45	@ 0x2d
 8006a0e:	f884 3043 	strb.w	r3, [r4, #67]	@ 0x43
 8006a12:	4a92      	ldr	r2, [pc, #584]	@ (8006c5c <_printf_float+0x2d0>)
 8006a14:	4b92      	ldr	r3, [pc, #584]	@ (8006c60 <_printf_float+0x2d4>)
 8006a16:	f1ba 0f47 	cmp.w	sl, #71	@ 0x47
 8006a1a:	bf8c      	ite	hi
 8006a1c:	4690      	movhi	r8, r2
 8006a1e:	4698      	movls	r8, r3
 8006a20:	2303      	movs	r3, #3
 8006a22:	f04f 0900 	mov.w	r9, #0
 8006a26:	6123      	str	r3, [r4, #16]
 8006a28:	f02b 0304 	bic.w	r3, fp, #4
 8006a2c:	6023      	str	r3, [r4, #0]
 8006a2e:	4633      	mov	r3, r6
 8006a30:	4621      	mov	r1, r4
 8006a32:	4628      	mov	r0, r5
 8006a34:	9700      	str	r7, [sp, #0]
 8006a36:	aa0f      	add	r2, sp, #60	@ 0x3c
 8006a38:	f000 f9d4 	bl	8006de4 <_printf_common>
 8006a3c:	3001      	adds	r0, #1
 8006a3e:	f040 8090 	bne.w	8006b62 <_printf_float+0x1d6>
 8006a42:	f04f 30ff 	mov.w	r0, #4294967295
 8006a46:	b011      	add	sp, #68	@ 0x44
 8006a48:	e8bd 8ff0 	ldmia.w	sp!, {r4, r5, r6, r7, r8, r9, sl, fp, pc}
 8006a4c:	4642      	mov	r2, r8
 8006a4e:	464b      	mov	r3, r9
 8006a50:	4640      	mov	r0, r8
 8006a52:	4649      	mov	r1, r9
 8006a54:	f7f9 ffda 	bl	8000a0c <__aeabi_dcmpun>
 8006a58:	b148      	cbz	r0, 8006a6e <_printf_float+0xe2>
 8006a5a:	464b      	mov	r3, r9
 8006a5c:	2b00      	cmp	r3, #0
 8006a5e:	bfb8      	it	lt
 8006a60:	232d      	movlt	r3, #45	@ 0x2d
 8006a62:	4a80      	ldr	r2, [pc, #512]	@ (8006c64 <_printf_float+0x2d8>)
 8006a64:	bfb8      	it	lt
 8006a66:	f884 3043 	strblt.w	r3, [r4, #67]	@ 0x43
 8006a6a:	4b7f      	ldr	r3, [pc, #508]	@ (8006c68 <_printf_float+0x2dc>)
 8006a6c:	e7d3      	b.n	8006a16 <_printf_float+0x8a>
 8006a6e:	6863      	ldr	r3, [r4, #4]
 8006a70:	f00a 01df 	and.w	r1, sl, #223	@ 0xdf
 8006a74:	1c5a      	adds	r2, r3, #1
 8006a76:	d13f      	bne.n	8006af8 <_printf_float+0x16c>
 8006a78:	2306      	movs	r3, #6
 8006a7a:	6063      	str	r3, [r4, #4]
 8006a7c:	2200      	movs	r2, #0
 8006a7e:	f44b 6380 	orr.w	r3, fp, #1024	@ 0x400
 8006a82:	6023      	str	r3, [r4, #0]
 8006a84:	9206      	str	r2, [sp, #24]
 8006a86:	aa0e      	add	r2, sp, #56	@ 0x38
 8006a88:	e9cd a204 	strd	sl, r2, [sp, #16]
 8006a8c:	aa0d      	add	r2, sp, #52	@ 0x34
 8006a8e:	9203      	str	r2, [sp, #12]
 8006a90:	f10d 0233 	add.w	r2, sp, #51	@ 0x33
 8006a94:	e9cd 3201 	strd	r3, r2, [sp, #4]
 8006a98:	6863      	ldr	r3, [r4, #4]
 8006a9a:	4642      	mov	r2, r8
 8006a9c:	9300      	str	r3, [sp, #0]
 8006a9e:	4628      	mov	r0, r5
 8006aa0:	464b      	mov	r3, r9
 8006aa2:	910a      	str	r1, [sp, #40]	@ 0x28
 8006aa4:	f7ff fed4 	bl	8006850 <__cvt>
 8006aa8:	990a      	ldr	r1, [sp, #40]	@ 0x28
 8006aaa:	4680      	mov	r8, r0
 8006aac:	2947      	cmp	r1, #71	@ 0x47
 8006aae:	990d      	ldr	r1, [sp, #52]	@ 0x34
 8006ab0:	d128      	bne.n	8006b04 <_printf_float+0x178>
 8006ab2:	1cc8      	adds	r0, r1, #3
 8006ab4:	db02      	blt.n	8006abc <_printf_float+0x130>
 8006ab6:	6863      	ldr	r3, [r4, #4]
 8006ab8:	4299      	cmp	r1, r3
 8006aba:	dd40      	ble.n	8006b3e <_printf_float+0x1b2>
 8006abc:	f1aa 0a02 	sub.w	sl, sl, #2
 8006ac0:	fa5f fa8a 	uxtb.w	sl, sl
 8006ac4:	4652      	mov	r2, sl
 8006ac6:	3901      	subs	r1, #1
 8006ac8:	f104 0050 	add.w	r0, r4, #80	@ 0x50
 8006acc:	910d      	str	r1, [sp, #52]	@ 0x34
 8006ace:	f7ff ff23 	bl	8006918 <__exponent>
 8006ad2:	9a0e      	ldr	r2, [sp, #56]	@ 0x38
 8006ad4:	4681      	mov	r9, r0
 8006ad6:	1813      	adds	r3, r2, r0
 8006ad8:	2a01      	cmp	r2, #1
 8006ada:	6123      	str	r3, [r4, #16]
 8006adc:	dc02      	bgt.n	8006ae4 <_printf_float+0x158>
 8006ade:	6822      	ldr	r2, [r4, #0]
 8006ae0:	07d2      	lsls	r2, r2, #31
 8006ae2:	d501      	bpl.n	8006ae8 <_printf_float+0x15c>
 8006ae4:	3301      	adds	r3, #1
 8006ae6:	6123      	str	r3, [r4, #16]
 8006ae8:	f89d 3033 	ldrb.w	r3, [sp, #51]	@ 0x33
 8006aec:	2b00      	cmp	r3, #0
 8006aee:	d09e      	beq.n	8006a2e <_printf_float+0xa2>
 8006af0:	232d      	movs	r3, #45	@ 0x2d
 8006af2:	f884 3043 	strb.w	r3, [r4, #67]	@ 0x43
 8006af6:	e79a      	b.n	8006a2e <_printf_float+0xa2>
 8006af8:	2947      	cmp	r1, #71	@ 0x47
 8006afa:	d1bf      	bne.n	8006a7c <_printf_float+0xf0>
 8006afc:	2b00      	cmp	r3, #0
 8006afe:	d1bd      	bne.n	8006a7c <_printf_float+0xf0>
 8006b00:	2301      	movs	r3, #1
 8006b02:	e7ba      	b.n	8006a7a <_printf_float+0xee>
 8006b04:	f1ba 0f65 	cmp.w	sl, #101	@ 0x65
 8006b08:	d9dc      	bls.n	8006ac4 <_printf_float+0x138>
 8006b0a:	f1ba 0f66 	cmp.w	sl, #102	@ 0x66
 8006b0e:	d118      	bne.n	8006b42 <_printf_float+0x1b6>
 8006b10:	2900      	cmp	r1, #0
 8006b12:	6863      	ldr	r3, [r4, #4]
 8006b14:	dd0b      	ble.n	8006b2e <_printf_float+0x1a2>
 8006b16:	6121      	str	r1, [r4, #16]
 8006b18:	b913      	cbnz	r3, 8006b20 <_printf_float+0x194>
 8006b1a:	6822      	ldr	r2, [r4, #0]
 8006b1c:	07d0      	lsls	r0, r2, #31
 8006b1e:	d502      	bpl.n	8006b26 <_printf_float+0x19a>
 8006b20:	3301      	adds	r3, #1
 8006b22:	440b      	add	r3, r1
 8006b24:	6123      	str	r3, [r4, #16]
 8006b26:	f04f 0900 	mov.w	r9, #0
 8006b2a:	65a1      	str	r1, [r4, #88]	@ 0x58
 8006b2c:	e7dc      	b.n	8006ae8 <_printf_float+0x15c>
 8006b2e:	b913      	cbnz	r3, 8006b36 <_printf_float+0x1aa>
 8006b30:	6822      	ldr	r2, [r4, #0]
 8006b32:	07d2      	lsls	r2, r2, #31
 8006b34:	d501      	bpl.n	8006b3a <_printf_float+0x1ae>
 8006b36:	3302      	adds	r3, #2
 8006b38:	e7f4      	b.n	8006b24 <_printf_float+0x198>
 8006b3a:	2301      	movs	r3, #1
 8006b3c:	e7f2      	b.n	8006b24 <_printf_float+0x198>
 8006b3e:	f04f 0a67 	mov.w	sl, #103	@ 0x67
 8006b42:	9b0e      	ldr	r3, [sp, #56]	@ 0x38
 8006b44:	4299      	cmp	r1, r3
 8006b46:	db05      	blt.n	8006b54 <_printf_float+0x1c8>
 8006b48:	6823      	ldr	r3, [r4, #0]
 8006b4a:	6121      	str	r1, [r4, #16]
 8006b4c:	07d8      	lsls	r0, r3, #31
 8006b4e:	d5ea      	bpl.n	8006b26 <_printf_float+0x19a>
 8006b50:	1c4b      	adds	r3, r1, #1
 8006b52:	e7e7      	b.n	8006b24 <_printf_float+0x198>
 8006b54:	2900      	cmp	r1, #0
 8006b56:	bfcc      	ite	gt
 8006b58:	2201      	movgt	r2, #1
 8006b5a:	f1c1 0202 	rsble	r2, r1, #2
 8006b5e:	4413      	add	r3, r2
 8006b60:	e7e0      	b.n	8006b24 <_printf_float+0x198>
 8006b62:	6823      	ldr	r3, [r4, #0]
 8006b64:	055a      	lsls	r2, r3, #21
 8006b66:	d407      	bmi.n	8006b78 <_printf_float+0x1ec>
 8006b68:	6923      	ldr	r3, [r4, #16]
 8006b6a:	4642      	mov	r2, r8
 8006b6c:	4631      	mov	r1, r6
 8006b6e:	4628      	mov	r0, r5
 8006b70:	47b8      	blx	r7
 8006b72:	3001      	adds	r0, #1
 8006b74:	d12b      	bne.n	8006bce <_printf_float+0x242>
 8006b76:	e764      	b.n	8006a42 <_printf_float+0xb6>
 8006b78:	f1ba 0f65 	cmp.w	sl, #101	@ 0x65
 8006b7c:	f240 80dc 	bls.w	8006d38 <_printf_float+0x3ac>
 8006b80:	e9d4 0112 	ldrd	r0, r1, [r4, #72]	@ 0x48
 8006b84:	2200      	movs	r2, #0
 8006b86:	2300      	movs	r3, #0
 8006b88:	f7f9 ff0e 	bl	80009a8 <__aeabi_dcmpeq>
 8006b8c:	2800      	cmp	r0, #0
 8006b8e:	d033      	beq.n	8006bf8 <_printf_float+0x26c>
 8006b90:	2301      	movs	r3, #1
 8006b92:	4631      	mov	r1, r6
 8006b94:	4628      	mov	r0, r5
 8006b96:	4a35      	ldr	r2, [pc, #212]	@ (8006c6c <_printf_float+0x2e0>)
 8006b98:	47b8      	blx	r7
 8006b9a:	3001      	adds	r0, #1
 8006b9c:	f43f af51 	beq.w	8006a42 <_printf_float+0xb6>
 8006ba0:	e9dd 380d 	ldrd	r3, r8, [sp, #52]	@ 0x34
 8006ba4:	4543      	cmp	r3, r8
 8006ba6:	db02      	blt.n	8006bae <_printf_float+0x222>
 8006ba8:	6823      	ldr	r3, [r4, #0]
 8006baa:	07d8      	lsls	r0, r3, #31
 8006bac:	d50f      	bpl.n	8006bce <_printf_float+0x242>
 8006bae:	e9dd 2308 	ldrd	r2, r3, [sp, #32]
 8006bb2:	4631      	mov	r1, r6
 8006bb4:	4628      	mov	r0, r5
 8006bb6:	47b8      	blx	r7
 8006bb8:	3001      	adds	r0, #1
 8006bba:	f43f af42 	beq.w	8006a42 <_printf_float+0xb6>
 8006bbe:	f04f 0900 	mov.w	r9, #0
 8006bc2:	f108 38ff 	add.w	r8, r8, #4294967295
 8006bc6:	f104 0a1a 	add.w	sl, r4, #26
 8006bca:	45c8      	cmp	r8, r9
 8006bcc:	dc09      	bgt.n	8006be2 <_printf_float+0x256>
 8006bce:	6823      	ldr	r3, [r4, #0]
 8006bd0:	079b      	lsls	r3, r3, #30
 8006bd2:	f100 8102 	bmi.w	8006dda <_printf_float+0x44e>
 8006bd6:	68e0      	ldr	r0, [r4, #12]
 8006bd8:	9b0f      	ldr	r3, [sp, #60]	@ 0x3c
 8006bda:	4298      	cmp	r0, r3
 8006bdc:	bfb8      	it	lt
 8006bde:	4618      	movlt	r0, r3
 8006be0:	e731      	b.n	8006a46 <_printf_float+0xba>
 8006be2:	2301      	movs	r3, #1
 8006be4:	4652      	mov	r2, sl
 8006be6:	4631      	mov	r1, r6
 8006be8:	4628      	mov	r0, r5
 8006bea:	47b8      	blx	r7
 8006bec:	3001      	adds	r0, #1
 8006bee:	f43f af28 	beq.w	8006a42 <_printf_float+0xb6>
 8006bf2:	f109 0901 	add.w	r9, r9, #1
 8006bf6:	e7e8      	b.n	8006bca <_printf_float+0x23e>
 8006bf8:	9b0d      	ldr	r3, [sp, #52]	@ 0x34
 8006bfa:	2b00      	cmp	r3, #0
 8006bfc:	dc38      	bgt.n	8006c70 <_printf_float+0x2e4>
 8006bfe:	2301      	movs	r3, #1
 8006c00:	4631      	mov	r1, r6
 8006c02:	4628      	mov	r0, r5
 8006c04:	4a19      	ldr	r2, [pc, #100]	@ (8006c6c <_printf_float+0x2e0>)
 8006c06:	47b8      	blx	r7
 8006c08:	3001      	adds	r0, #1
 8006c0a:	f43f af1a 	beq.w	8006a42 <_printf_float+0xb6>
 8006c0e:	e9dd 390d 	ldrd	r3, r9, [sp, #52]	@ 0x34
 8006c12:	ea59 0303 	orrs.w	r3, r9, r3
 8006c16:	d102      	bne.n	8006c1e <_printf_float+0x292>
 8006c18:	6823      	ldr	r3, [r4, #0]
 8006c1a:	07d9      	lsls	r1, r3, #31
 8006c1c:	d5d7      	bpl.n	8006bce <_printf_float+0x242>
 8006c1e:	e9dd 2308 	ldrd	r2, r3, [sp, #32]
 8006c22:	4631      	mov	r1, r6
 8006c24:	4628      	mov	r0, r5
 8006c26:	47b8      	blx	r7
 8006c28:	3001      	adds	r0, #1
 8006c2a:	f43f af0a 	beq.w	8006a42 <_printf_float+0xb6>
 8006c2e:	f04f 0a00 	mov.w	sl, #0
 8006c32:	f104 0b1a 	add.w	fp, r4, #26
 8006c36:	9b0d      	ldr	r3, [sp, #52]	@ 0x34
 8006c38:	425b      	negs	r3, r3
 8006c3a:	4553      	cmp	r3, sl
 8006c3c:	dc01      	bgt.n	8006c42 <_printf_float+0x2b6>
 8006c3e:	464b      	mov	r3, r9
 8006c40:	e793      	b.n	8006b6a <_printf_float+0x1de>
 8006c42:	2301      	movs	r3, #1
 8006c44:	465a      	mov	r2, fp
 8006c46:	4631      	mov	r1, r6
 8006c48:	4628      	mov	r0, r5
 8006c4a:	47b8      	blx	r7
 8006c4c:	3001      	adds	r0, #1
 8006c4e:	f43f aef8 	beq.w	8006a42 <_printf_float+0xb6>
 8006c52:	f10a 0a01 	add.w	sl, sl, #1
 8006c56:	e7ee      	b.n	8006c36 <_printf_float+0x2aa>
 8006c58:	7fefffff 	.word	0x7fefffff
 8006c5c:	08009bf2 	.word	0x08009bf2
 8006c60:	08009bee 	.word	0x08009bee
 8006c64:	08009bfa 	.word	0x08009bfa
 8006c68:	08009bf6 	.word	0x08009bf6
 8006c6c:	0800972a 	.word	0x0800972a
 8006c70:	6da3      	ldr	r3, [r4, #88]	@ 0x58
 8006c72:	f8dd a038 	ldr.w	sl, [sp, #56]	@ 0x38
 8006c76:	4553      	cmp	r3, sl
 8006c78:	bfa8      	it	ge
 8006c7a:	4653      	movge	r3, sl
 8006c7c:	2b00      	cmp	r3, #0
 8006c7e:	4699      	mov	r9, r3
 8006c80:	dc36      	bgt.n	8006cf0 <_printf_float+0x364>
 8006c82:	f04f 0b00 	mov.w	fp, #0
 8006c86:	ea29 79e9 	bic.w	r9, r9, r9, asr #31
 8006c8a:	f104 021a 	add.w	r2, r4, #26
 8006c8e:	6da3      	ldr	r3, [r4, #88]	@ 0x58
 8006c90:	930a      	str	r3, [sp, #40]	@ 0x28
 8006c92:	eba3 0309 	sub.w	r3, r3, r9
 8006c96:	455b      	cmp	r3, fp
 8006c98:	dc31      	bgt.n	8006cfe <_printf_float+0x372>
 8006c9a:	9b0d      	ldr	r3, [sp, #52]	@ 0x34
 8006c9c:	459a      	cmp	sl, r3
 8006c9e:	dc3a      	bgt.n	8006d16 <_printf_float+0x38a>
 8006ca0:	6823      	ldr	r3, [r4, #0]
 8006ca2:	07da      	lsls	r2, r3, #31
 8006ca4:	d437      	bmi.n	8006d16 <_printf_float+0x38a>
 8006ca6:	9b0d      	ldr	r3, [sp, #52]	@ 0x34
 8006ca8:	ebaa 0903 	sub.w	r9, sl, r3
 8006cac:	9b0a      	ldr	r3, [sp, #40]	@ 0x28
 8006cae:	ebaa 0303 	sub.w	r3, sl, r3
 8006cb2:	4599      	cmp	r9, r3
 8006cb4:	bfa8      	it	ge
 8006cb6:	4699      	movge	r9, r3
 8006cb8:	f1b9 0f00 	cmp.w	r9, #0
 8006cbc:	dc33      	bgt.n	8006d26 <_printf_float+0x39a>
 8006cbe:	f04f 0800 	mov.w	r8, #0
 8006cc2:	ea29 79e9 	bic.w	r9, r9, r9, asr #31
 8006cc6:	f104 0b1a 	add.w	fp, r4, #26
 8006cca:	9b0d      	ldr	r3, [sp, #52]	@ 0x34
 8006ccc:	ebaa 0303 	sub.w	r3, sl, r3
 8006cd0:	eba3 0309 	sub.w	r3, r3, r9
 8006cd4:	4543      	cmp	r3, r8
 8006cd6:	f77f af7a 	ble.w	8006bce <_printf_float+0x242>
 8006cda:	2301      	movs	r3, #1
 8006cdc:	465a      	mov	r2, fp
 8006cde:	4631      	mov	r1, r6
 8006ce0:	4628      	mov	r0, r5
 8006ce2:	47b8      	blx	r7
 8006ce4:	3001      	adds	r0, #1
 8006ce6:	f43f aeac 	beq.w	8006a42 <_printf_float+0xb6>
 8006cea:	f108 0801 	add.w	r8, r8, #1
 8006cee:	e7ec      	b.n	8006cca <_printf_float+0x33e>
 8006cf0:	4642      	mov	r2, r8
 8006cf2:	4631      	mov	r1, r6
 8006cf4:	4628      	mov	r0, r5
 8006cf6:	47b8      	blx	r7
 8006cf8:	3001      	adds	r0, #1
 8006cfa:	d1c2      	bne.n	8006c82 <_printf_float+0x2f6>
 8006cfc:	e6a1      	b.n	8006a42 <_printf_float+0xb6>
 8006cfe:	2301      	movs	r3, #1
 8006d00:	4631      	mov	r1, r6
 8006d02:	4628      	mov	r0, r5
 8006d04:	920a      	str	r2, [sp, #40]	@ 0x28
 8006d06:	47b8      	blx	r7
 8006d08:	3001      	adds	r0, #1
 8006d0a:	f43f ae9a 	beq.w	8006a42 <_printf_float+0xb6>
 8006d0e:	9a0a      	ldr	r2, [sp, #40]	@ 0x28
 8006d10:	f10b 0b01 	add.w	fp, fp, #1
 8006d14:	e7bb      	b.n	8006c8e <_printf_float+0x302>
 8006d16:	4631      	mov	r1, r6
 8006d18:	e9dd 2308 	ldrd	r2, r3, [sp, #32]
 8006d1c:	4628      	mov	r0, r5
 8006d1e:	47b8      	blx	r7
 8006d20:	3001      	adds	r0, #1
 8006d22:	d1c0      	bne.n	8006ca6 <_printf_float+0x31a>
 8006d24:	e68d      	b.n	8006a42 <_printf_float+0xb6>
 8006d26:	9a0a      	ldr	r2, [sp, #40]	@ 0x28
 8006d28:	464b      	mov	r3, r9
 8006d2a:	4631      	mov	r1, r6
 8006d2c:	4628      	mov	r0, r5
 8006d2e:	4442      	add	r2, r8
 8006d30:	47b8      	blx	r7
 8006d32:	3001      	adds	r0, #1
 8006d34:	d1c3      	bne.n	8006cbe <_printf_float+0x332>
 8006d36:	e684      	b.n	8006a42 <_printf_float+0xb6>
 8006d38:	f8dd a038 	ldr.w	sl, [sp, #56]	@ 0x38
 8006d3c:	f1ba 0f01 	cmp.w	sl, #1
 8006d40:	dc01      	bgt.n	8006d46 <_printf_float+0x3ba>
 8006d42:	07db      	lsls	r3, r3, #31
 8006d44:	d536      	bpl.n	8006db4 <_printf_float+0x428>
 8006d46:	2301      	movs	r3, #1
 8006d48:	4642      	mov	r2, r8
 8006d4a:	4631      	mov	r1, r6
 8006d4c:	4628      	mov	r0, r5
 8006d4e:	47b8      	blx	r7
 8006d50:	3001      	adds	r0, #1
 8006d52:	f43f ae76 	beq.w	8006a42 <_printf_float+0xb6>
 8006d56:	e9dd 2308 	ldrd	r2, r3, [sp, #32]
 8006d5a:	4631      	mov	r1, r6
 8006d5c:	4628      	mov	r0, r5
 8006d5e:	47b8      	blx	r7
 8006d60:	3001      	adds	r0, #1
 8006d62:	f43f ae6e 	beq.w	8006a42 <_printf_float+0xb6>
 8006d66:	e9d4 0112 	ldrd	r0, r1, [r4, #72]	@ 0x48
 8006d6a:	2200      	movs	r2, #0
 8006d6c:	2300      	movs	r3, #0
 8006d6e:	f10a 3aff 	add.w	sl, sl, #4294967295
 8006d72:	f7f9 fe19 	bl	80009a8 <__aeabi_dcmpeq>
 8006d76:	b9c0      	cbnz	r0, 8006daa <_printf_float+0x41e>
 8006d78:	4653      	mov	r3, sl
 8006d7a:	f108 0201 	add.w	r2, r8, #1
 8006d7e:	4631      	mov	r1, r6
 8006d80:	4628      	mov	r0, r5
 8006d82:	47b8      	blx	r7
 8006d84:	3001      	adds	r0, #1
 8006d86:	d10c      	bne.n	8006da2 <_printf_float+0x416>
 8006d88:	e65b      	b.n	8006a42 <_printf_float+0xb6>
 8006d8a:	2301      	movs	r3, #1
 8006d8c:	465a      	mov	r2, fp
 8006d8e:	4631      	mov	r1, r6
 8006d90:	4628      	mov	r0, r5
 8006d92:	47b8      	blx	r7
 8006d94:	3001      	adds	r0, #1
 8006d96:	f43f ae54 	beq.w	8006a42 <_printf_float+0xb6>
 8006d9a:	f108 0801 	add.w	r8, r8, #1
 8006d9e:	45d0      	cmp	r8, sl
 8006da0:	dbf3      	blt.n	8006d8a <_printf_float+0x3fe>
 8006da2:	464b      	mov	r3, r9
 8006da4:	f104 0250 	add.w	r2, r4, #80	@ 0x50
 8006da8:	e6e0      	b.n	8006b6c <_printf_float+0x1e0>
 8006daa:	f04f 0800 	mov.w	r8, #0
 8006dae:	f104 0b1a 	add.w	fp, r4, #26
 8006db2:	e7f4      	b.n	8006d9e <_printf_float+0x412>
 8006db4:	2301      	movs	r3, #1
 8006db6:	4642      	mov	r2, r8
 8006db8:	e7e1      	b.n	8006d7e <_printf_float+0x3f2>
 8006dba:	2301      	movs	r3, #1
 8006dbc:	464a      	mov	r2, r9
 8006dbe:	4631      	mov	r1, r6
 8006dc0:	4628      	mov	r0, r5
 8006dc2:	47b8      	blx	r7
 8006dc4:	3001      	adds	r0, #1
 8006dc6:	f43f ae3c 	beq.w	8006a42 <_printf_float+0xb6>
 8006dca:	f108 0801 	add.w	r8, r8, #1
 8006dce:	68e3      	ldr	r3, [r4, #12]
 8006dd0:	990f      	ldr	r1, [sp, #60]	@ 0x3c
 8006dd2:	1a5b      	subs	r3, r3, r1
 8006dd4:	4543      	cmp	r3, r8
 8006dd6:	dcf0      	bgt.n	8006dba <_printf_float+0x42e>
 8006dd8:	e6fd      	b.n	8006bd6 <_printf_float+0x24a>
 8006dda:	f04f 0800 	mov.w	r8, #0
 8006dde:	f104 0919 	add.w	r9, r4, #25
 8006de2:	e7f4      	b.n	8006dce <_printf_float+0x442>

08006de4 <_printf_common>:
 8006de4:	e92d 47f0 	stmdb	sp!, {r4, r5, r6, r7, r8, r9, sl, lr}
 8006de8:	4616      	mov	r6, r2
 8006dea:	4698      	mov	r8, r3
 8006dec:	688a      	ldr	r2, [r1, #8]
 8006dee:	690b      	ldr	r3, [r1, #16]
 8006df0:	4607      	mov	r7, r0
 8006df2:	4293      	cmp	r3, r2
 8006df4:	bfb8      	it	lt
 8006df6:	4613      	movlt	r3, r2
 8006df8:	6033      	str	r3, [r6, #0]
 8006dfa:	f891 2043 	ldrb.w	r2, [r1, #67]	@ 0x43
 8006dfe:	460c      	mov	r4, r1
 8006e00:	f8dd 9020 	ldr.w	r9, [sp, #32]
 8006e04:	b10a      	cbz	r2, 8006e0a <_printf_common+0x26>
 8006e06:	3301      	adds	r3, #1
 8006e08:	6033      	str	r3, [r6, #0]
 8006e0a:	6823      	ldr	r3, [r4, #0]
 8006e0c:	0699      	lsls	r1, r3, #26
 8006e0e:	bf42      	ittt	mi
 8006e10:	6833      	ldrmi	r3, [r6, #0]
 8006e12:	3302      	addmi	r3, #2
 8006e14:	6033      	strmi	r3, [r6, #0]
 8006e16:	6825      	ldr	r5, [r4, #0]
 8006e18:	f015 0506 	ands.w	r5, r5, #6
 8006e1c:	d106      	bne.n	8006e2c <_printf_common+0x48>
 8006e1e:	f104 0a19 	add.w	sl, r4, #25
 8006e22:	68e3      	ldr	r3, [r4, #12]
 8006e24:	6832      	ldr	r2, [r6, #0]
 8006e26:	1a9b      	subs	r3, r3, r2
 8006e28:	42ab      	cmp	r3, r5
 8006e2a:	dc2b      	bgt.n	8006e84 <_printf_common+0xa0>
 8006e2c:	f894 3043 	ldrb.w	r3, [r4, #67]	@ 0x43
 8006e30:	6822      	ldr	r2, [r4, #0]
 8006e32:	3b00      	subs	r3, #0
 8006e34:	bf18      	it	ne
 8006e36:	2301      	movne	r3, #1
 8006e38:	0692      	lsls	r2, r2, #26
 8006e3a:	d430      	bmi.n	8006e9e <_printf_common+0xba>
 8006e3c:	4641      	mov	r1, r8
 8006e3e:	4638      	mov	r0, r7
 8006e40:	f104 0243 	add.w	r2, r4, #67	@ 0x43
 8006e44:	47c8      	blx	r9
 8006e46:	3001      	adds	r0, #1
 8006e48:	d023      	beq.n	8006e92 <_printf_common+0xae>
 8006e4a:	6823      	ldr	r3, [r4, #0]
 8006e4c:	6922      	ldr	r2, [r4, #16]
 8006e4e:	f003 0306 	and.w	r3, r3, #6
 8006e52:	2b04      	cmp	r3, #4
 8006e54:	bf14      	ite	ne
 8006e56:	2500      	movne	r5, #0
 8006e58:	6833      	ldreq	r3, [r6, #0]
 8006e5a:	f04f 0600 	mov.w	r6, #0
 8006e5e:	bf08      	it	eq
 8006e60:	68e5      	ldreq	r5, [r4, #12]
 8006e62:	f104 041a 	add.w	r4, r4, #26
 8006e66:	bf08      	it	eq
 8006e68:	1aed      	subeq	r5, r5, r3
 8006e6a:	f854 3c12 	ldr.w	r3, [r4, #-18]
 8006e6e:	bf08      	it	eq
 8006e70:	ea25 75e5 	biceq.w	r5, r5, r5, asr #31
 8006e74:	4293      	cmp	r3, r2
 8006e76:	bfc4      	itt	gt
 8006e78:	1a9b      	subgt	r3, r3, r2
 8006e7a:	18ed      	addgt	r5, r5, r3
 8006e7c:	42b5      	cmp	r5, r6
 8006e7e:	d11a      	bne.n	8006eb6 <_printf_common+0xd2>
 8006e80:	2000      	movs	r0, #0
 8006e82:	e008      	b.n	8006e96 <_printf_common+0xb2>
 8006e84:	2301      	movs	r3, #1
 8006e86:	4652      	mov	r2, sl
 8006e88:	4641      	mov	r1, r8
 8006e8a:	4638      	mov	r0, r7
 8006e8c:	47c8      	blx	r9
 8006e8e:	3001      	adds	r0, #1
 8006e90:	d103      	bne.n	8006e9a <_printf_common+0xb6>
 8006e92:	f04f 30ff 	mov.w	r0, #4294967295
 8006e96:	e8bd 87f0 	ldmia.w	sp!, {r4, r5, r6, r7, r8, r9, sl, pc}
 8006e9a:	3501      	adds	r5, #1
 8006e9c:	e7c1      	b.n	8006e22 <_printf_common+0x3e>
 8006e9e:	2030      	movs	r0, #48	@ 0x30
 8006ea0:	18e1      	adds	r1, r4, r3
 8006ea2:	f881 0043 	strb.w	r0, [r1, #67]	@ 0x43
 8006ea6:	1c5a      	adds	r2, r3, #1
 8006ea8:	f894 1045 	ldrb.w	r1, [r4, #69]	@ 0x45
 8006eac:	4422      	add	r2, r4
 8006eae:	3302      	adds	r3, #2
 8006eb0:	f882 1043 	strb.w	r1, [r2, #67]	@ 0x43
 8006eb4:	e7c2      	b.n	8006e3c <_printf_common+0x58>
 8006eb6:	2301      	movs	r3, #1
 8006eb8:	4622      	mov	r2, r4
 8006eba:	4641      	mov	r1, r8
 8006ebc:	4638      	mov	r0, r7
 8006ebe:	47c8      	blx	r9
 8006ec0:	3001      	adds	r0, #1
 8006ec2:	d0e6      	beq.n	8006e92 <_printf_common+0xae>
 8006ec4:	3601      	adds	r6, #1
 8006ec6:	e7d9      	b.n	8006e7c <_printf_common+0x98>

08006ec8 <_printf_i>:
 8006ec8:	e92d 47ff 	stmdb	sp!, {r0, r1, r2, r3, r4, r5, r6, r7, r8, r9, sl, lr}
 8006ecc:	7e0f      	ldrb	r7, [r1, #24]
 8006ece:	4691      	mov	r9, r2
 8006ed0:	2f78      	cmp	r7, #120	@ 0x78
 8006ed2:	4680      	mov	r8, r0
 8006ed4:	460c      	mov	r4, r1
 8006ed6:	469a      	mov	sl, r3
 8006ed8:	9e0c      	ldr	r6, [sp, #48]	@ 0x30
 8006eda:	f101 0243 	add.w	r2, r1, #67	@ 0x43
 8006ede:	d807      	bhi.n	8006ef0 <_printf_i+0x28>
 8006ee0:	2f62      	cmp	r7, #98	@ 0x62
 8006ee2:	d80a      	bhi.n	8006efa <_printf_i+0x32>
 8006ee4:	2f00      	cmp	r7, #0
 8006ee6:	f000 80d1 	beq.w	800708c <_printf_i+0x1c4>
 8006eea:	2f58      	cmp	r7, #88	@ 0x58
 8006eec:	f000 80b8 	beq.w	8007060 <_printf_i+0x198>
 8006ef0:	f104 0642 	add.w	r6, r4, #66	@ 0x42
 8006ef4:	f884 7042 	strb.w	r7, [r4, #66]	@ 0x42
 8006ef8:	e03a      	b.n	8006f70 <_printf_i+0xa8>
 8006efa:	f1a7 0363 	sub.w	r3, r7, #99	@ 0x63
 8006efe:	2b15      	cmp	r3, #21
 8006f00:	d8f6      	bhi.n	8006ef0 <_printf_i+0x28>
 8006f02:	a101      	add	r1, pc, #4	@ (adr r1, 8006f08 <_printf_i+0x40>)
 8006f04:	f851 f023 	ldr.w	pc, [r1, r3, lsl #2]
 8006f08:	08006f61 	.word	0x08006f61
 8006f0c:	08006f75 	.word	0x08006f75
 8006f10:	08006ef1 	.word	0x08006ef1
 8006f14:	08006ef1 	.word	0x08006ef1
 8006f18:	08006ef1 	.word	0x08006ef1
 8006f1c:	08006ef1 	.word	0x08006ef1
 8006f20:	08006f75 	.word	0x08006f75
 8006f24:	08006ef1 	.word	0x08006ef1
 8006f28:	08006ef1 	.word	0x08006ef1
 8006f2c:	08006ef1 	.word	0x08006ef1
 8006f30:	08006ef1 	.word	0x08006ef1
 8006f34:	08007073 	.word	0x08007073
 8006f38:	08006f9f 	.word	0x08006f9f
 8006f3c:	0800702d 	.word	0x0800702d
 8006f40:	08006ef1 	.word	0x08006ef1
 8006f44:	08006ef1 	.word	0x08006ef1
 8006f48:	08007095 	.word	0x08007095
 8006f4c:	08006ef1 	.word	0x08006ef1
 8006f50:	08006f9f 	.word	0x08006f9f
 8006f54:	08006ef1 	.word	0x08006ef1
 8006f58:	08006ef1 	.word	0x08006ef1
 8006f5c:	08007035 	.word	0x08007035
 8006f60:	6833      	ldr	r3, [r6, #0]
 8006f62:	1d1a      	adds	r2, r3, #4
 8006f64:	681b      	ldr	r3, [r3, #0]
 8006f66:	6032      	str	r2, [r6, #0]
 8006f68:	f104 0642 	add.w	r6, r4, #66	@ 0x42
 8006f6c:	f884 3042 	strb.w	r3, [r4, #66]	@ 0x42
 8006f70:	2301      	movs	r3, #1
 8006f72:	e09c      	b.n	80070ae <_printf_i+0x1e6>
 8006f74:	6833      	ldr	r3, [r6, #0]
 8006f76:	6820      	ldr	r0, [r4, #0]
 8006f78:	1d19      	adds	r1, r3, #4
 8006f7a:	6031      	str	r1, [r6, #0]
 8006f7c:	0606      	lsls	r6, r0, #24
 8006f7e:	d501      	bpl.n	8006f84 <_printf_i+0xbc>
 8006f80:	681d      	ldr	r5, [r3, #0]
 8006f82:	e003      	b.n	8006f8c <_printf_i+0xc4>
 8006f84:	0645      	lsls	r5, r0, #25
 8006f86:	d5fb      	bpl.n	8006f80 <_printf_i+0xb8>
 8006f88:	f9b3 5000 	ldrsh.w	r5, [r3]
 8006f8c:	2d00      	cmp	r5, #0
 8006f8e:	da03      	bge.n	8006f98 <_printf_i+0xd0>
 8006f90:	232d      	movs	r3, #45	@ 0x2d
 8006f92:	426d      	negs	r5, r5
 8006f94:	f884 3043 	strb.w	r3, [r4, #67]	@ 0x43
 8006f98:	230a      	movs	r3, #10
 8006f9a:	4858      	ldr	r0, [pc, #352]	@ (80070fc <_printf_i+0x234>)
 8006f9c:	e011      	b.n	8006fc2 <_printf_i+0xfa>
 8006f9e:	6821      	ldr	r1, [r4, #0]
 8006fa0:	6833      	ldr	r3, [r6, #0]
 8006fa2:	0608      	lsls	r0, r1, #24
 8006fa4:	f853 5b04 	ldr.w	r5, [r3], #4
 8006fa8:	d402      	bmi.n	8006fb0 <_printf_i+0xe8>
 8006faa:	0649      	lsls	r1, r1, #25
 8006fac:	bf48      	it	mi
 8006fae:	b2ad      	uxthmi	r5, r5
 8006fb0:	2f6f      	cmp	r7, #111	@ 0x6f
 8006fb2:	6033      	str	r3, [r6, #0]
 8006fb4:	bf14      	ite	ne
 8006fb6:	230a      	movne	r3, #10
 8006fb8:	2308      	moveq	r3, #8
 8006fba:	4850      	ldr	r0, [pc, #320]	@ (80070fc <_printf_i+0x234>)
 8006fbc:	2100      	movs	r1, #0
 8006fbe:	f884 1043 	strb.w	r1, [r4, #67]	@ 0x43
 8006fc2:	6866      	ldr	r6, [r4, #4]
 8006fc4:	2e00      	cmp	r6, #0
 8006fc6:	60a6      	str	r6, [r4, #8]
 8006fc8:	db05      	blt.n	8006fd6 <_printf_i+0x10e>
 8006fca:	6821      	ldr	r1, [r4, #0]
 8006fcc:	432e      	orrs	r6, r5
 8006fce:	f021 0104 	bic.w	r1, r1, #4
 8006fd2:	6021      	str	r1, [r4, #0]
 8006fd4:	d04b      	beq.n	800706e <_printf_i+0x1a6>
 8006fd6:	4616      	mov	r6, r2
 8006fd8:	fbb5 f1f3 	udiv	r1, r5, r3
 8006fdc:	fb03 5711 	mls	r7, r3, r1, r5
 8006fe0:	5dc7      	ldrb	r7, [r0, r7]
 8006fe2:	f806 7d01 	strb.w	r7, [r6, #-1]!
 8006fe6:	462f      	mov	r7, r5
 8006fe8:	42bb      	cmp	r3, r7
 8006fea:	460d      	mov	r5, r1
 8006fec:	d9f4      	bls.n	8006fd8 <_printf_i+0x110>
 8006fee:	2b08      	cmp	r3, #8
 8006ff0:	d10b      	bne.n	800700a <_printf_i+0x142>
 8006ff2:	6823      	ldr	r3, [r4, #0]
 8006ff4:	07df      	lsls	r7, r3, #31
 8006ff6:	d508      	bpl.n	800700a <_printf_i+0x142>
 8006ff8:	6923      	ldr	r3, [r4, #16]
 8006ffa:	6861      	ldr	r1, [r4, #4]
 8006ffc:	4299      	cmp	r1, r3
 8006ffe:	bfde      	ittt	le
 8007000:	2330      	movle	r3, #48	@ 0x30
 8007002:	f806 3c01 	strble.w	r3, [r6, #-1]
 8007006:	f106 36ff 	addle.w	r6, r6, #4294967295
 800700a:	1b92      	subs	r2, r2, r6
 800700c:	6122      	str	r2, [r4, #16]
 800700e:	464b      	mov	r3, r9
 8007010:	4621      	mov	r1, r4
 8007012:	4640      	mov	r0, r8
 8007014:	f8cd a000 	str.w	sl, [sp]
 8007018:	aa03      	add	r2, sp, #12
 800701a:	f7ff fee3 	bl	8006de4 <_printf_common>
 800701e:	3001      	adds	r0, #1
 8007020:	d14a      	bne.n	80070b8 <_printf_i+0x1f0>
 8007022:	f04f 30ff 	mov.w	r0, #4294967295
 8007026:	b004      	add	sp, #16
 8007028:	e8bd 87f0 	ldmia.w	sp!, {r4, r5, r6, r7, r8, r9, sl, pc}
 800702c:	6823      	ldr	r3, [r4, #0]
 800702e:	f043 0320 	orr.w	r3, r3, #32
 8007032:	6023      	str	r3, [r4, #0]
 8007034:	2778      	movs	r7, #120	@ 0x78
 8007036:	4832      	ldr	r0, [pc, #200]	@ (8007100 <_printf_i+0x238>)
 8007038:	f884 7045 	strb.w	r7, [r4, #69]	@ 0x45
 800703c:	6823      	ldr	r3, [r4, #0]
 800703e:	6831      	ldr	r1, [r6, #0]
 8007040:	061f      	lsls	r7, r3, #24
 8007042:	f851 5b04 	ldr.w	r5, [r1], #4
 8007046:	d402      	bmi.n	800704e <_printf_i+0x186>
 8007048:	065f      	lsls	r7, r3, #25
 800704a:	bf48      	it	mi
 800704c:	b2ad      	uxthmi	r5, r5
 800704e:	6031      	str	r1, [r6, #0]
 8007050:	07d9      	lsls	r1, r3, #31
 8007052:	bf44      	itt	mi
 8007054:	f043 0320 	orrmi.w	r3, r3, #32
 8007058:	6023      	strmi	r3, [r4, #0]
 800705a:	b11d      	cbz	r5, 8007064 <_printf_i+0x19c>
 800705c:	2310      	movs	r3, #16
 800705e:	e7ad      	b.n	8006fbc <_printf_i+0xf4>
 8007060:	4826      	ldr	r0, [pc, #152]	@ (80070fc <_printf_i+0x234>)
 8007062:	e7e9      	b.n	8007038 <_printf_i+0x170>
 8007064:	6823      	ldr	r3, [r4, #0]
 8007066:	f023 0320 	bic.w	r3, r3, #32
 800706a:	6023      	str	r3, [r4, #0]
 800706c:	e7f6      	b.n	800705c <_printf_i+0x194>
 800706e:	4616      	mov	r6, r2
 8007070:	e7bd      	b.n	8006fee <_printf_i+0x126>
 8007072:	6833      	ldr	r3, [r6, #0]
 8007074:	6825      	ldr	r5, [r4, #0]
 8007076:	1d18      	adds	r0, r3, #4
 8007078:	6961      	ldr	r1, [r4, #20]
 800707a:	6030      	str	r0, [r6, #0]
 800707c:	062e      	lsls	r6, r5, #24
 800707e:	681b      	ldr	r3, [r3, #0]
 8007080:	d501      	bpl.n	8007086 <_printf_i+0x1be>
 8007082:	6019      	str	r1, [r3, #0]
 8007084:	e002      	b.n	800708c <_printf_i+0x1c4>
 8007086:	0668      	lsls	r0, r5, #25
 8007088:	d5fb      	bpl.n	8007082 <_printf_i+0x1ba>
 800708a:	8019      	strh	r1, [r3, #0]
 800708c:	2300      	movs	r3, #0
 800708e:	4616      	mov	r6, r2
 8007090:	6123      	str	r3, [r4, #16]
 8007092:	e7bc      	b.n	800700e <_printf_i+0x146>
 8007094:	6833      	ldr	r3, [r6, #0]
 8007096:	2100      	movs	r1, #0
 8007098:	1d1a      	adds	r2, r3, #4
 800709a:	6032      	str	r2, [r6, #0]
 800709c:	681e      	ldr	r6, [r3, #0]
 800709e:	6862      	ldr	r2, [r4, #4]
 80070a0:	4630      	mov	r0, r6
 80070a2:	f000 fa2a 	bl	80074fa <memchr>
 80070a6:	b108      	cbz	r0, 80070ac <_printf_i+0x1e4>
 80070a8:	1b80      	subs	r0, r0, r6
 80070aa:	6060      	str	r0, [r4, #4]
 80070ac:	6863      	ldr	r3, [r4, #4]
 80070ae:	6123      	str	r3, [r4, #16]
 80070b0:	2300      	movs	r3, #0
 80070b2:	f884 3043 	strb.w	r3, [r4, #67]	@ 0x43
 80070b6:	e7aa      	b.n	800700e <_printf_i+0x146>
 80070b8:	4632      	mov	r2, r6
 80070ba:	4649      	mov	r1, r9
 80070bc:	4640      	mov	r0, r8
 80070be:	6923      	ldr	r3, [r4, #16]
 80070c0:	47d0      	blx	sl
 80070c2:	3001      	adds	r0, #1
 80070c4:	d0ad      	beq.n	8007022 <_printf_i+0x15a>
 80070c6:	6823      	ldr	r3, [r4, #0]
 80070c8:	079b      	lsls	r3, r3, #30
 80070ca:	d413      	bmi.n	80070f4 <_printf_i+0x22c>
 80070cc:	68e0      	ldr	r0, [r4, #12]
 80070ce:	9b03      	ldr	r3, [sp, #12]
 80070d0:	4298      	cmp	r0, r3
 80070d2:	bfb8      	it	lt
 80070d4:	4618      	movlt	r0, r3
 80070d6:	e7a6      	b.n	8007026 <_printf_i+0x15e>
 80070d8:	2301      	movs	r3, #1
 80070da:	4632      	mov	r2, r6
 80070dc:	4649      	mov	r1, r9
 80070de:	4640      	mov	r0, r8
 80070e0:	47d0      	blx	sl
 80070e2:	3001      	adds	r0, #1
 80070e4:	d09d      	beq.n	8007022 <_printf_i+0x15a>
 80070e6:	3501      	adds	r5, #1
 80070e8:	68e3      	ldr	r3, [r4, #12]
 80070ea:	9903      	ldr	r1, [sp, #12]
 80070ec:	1a5b      	subs	r3, r3, r1
 80070ee:	42ab      	cmp	r3, r5
 80070f0:	dcf2      	bgt.n	80070d8 <_printf_i+0x210>
 80070f2:	e7eb      	b.n	80070cc <_printf_i+0x204>
 80070f4:	2500      	movs	r5, #0
 80070f6:	f104 0619 	add.w	r6, r4, #25
 80070fa:	e7f5      	b.n	80070e8 <_printf_i+0x220>
 80070fc:	08009bfe 	.word	0x08009bfe
 8007100:	08009c0f 	.word	0x08009c0f

08007104 <std>:
 8007104:	2300      	movs	r3, #0
 8007106:	b510      	push	{r4, lr}
 8007108:	4604      	mov	r4, r0
 800710a:	e9c0 3300 	strd	r3, r3, [r0]
 800710e:	e9c0 3304 	strd	r3, r3, [r0, #16]
 8007112:	6083      	str	r3, [r0, #8]
 8007114:	8181      	strh	r1, [r0, #12]
 8007116:	6643      	str	r3, [r0, #100]	@ 0x64
 8007118:	81c2      	strh	r2, [r0, #14]
 800711a:	6183      	str	r3, [r0, #24]
 800711c:	4619      	mov	r1, r3
 800711e:	2208      	movs	r2, #8
 8007120:	305c      	adds	r0, #92	@ 0x5c
 8007122:	f000 f92a 	bl	800737a <memset>
 8007126:	4b0d      	ldr	r3, [pc, #52]	@ (800715c <std+0x58>)
 8007128:	6224      	str	r4, [r4, #32]
 800712a:	6263      	str	r3, [r4, #36]	@ 0x24
 800712c:	4b0c      	ldr	r3, [pc, #48]	@ (8007160 <std+0x5c>)
 800712e:	62a3      	str	r3, [r4, #40]	@ 0x28
 8007130:	4b0c      	ldr	r3, [pc, #48]	@ (8007164 <std+0x60>)
 8007132:	62e3      	str	r3, [r4, #44]	@ 0x2c
 8007134:	4b0c      	ldr	r3, [pc, #48]	@ (8007168 <std+0x64>)
 8007136:	6323      	str	r3, [r4, #48]	@ 0x30
 8007138:	4b0c      	ldr	r3, [pc, #48]	@ (800716c <std+0x68>)
 800713a:	429c      	cmp	r4, r3
 800713c:	d006      	beq.n	800714c <std+0x48>
 800713e:	f103 0268 	add.w	r2, r3, #104	@ 0x68
 8007142:	4294      	cmp	r4, r2
 8007144:	d002      	beq.n	800714c <std+0x48>
 8007146:	33d0      	adds	r3, #208	@ 0xd0
 8007148:	429c      	cmp	r4, r3
 800714a:	d105      	bne.n	8007158 <std+0x54>
 800714c:	f104 0058 	add.w	r0, r4, #88	@ 0x58
 8007150:	e8bd 4010 	ldmia.w	sp!, {r4, lr}
 8007154:	f000 b9c6 	b.w	80074e4 <__retarget_lock_init_recursive>
 8007158:	bd10      	pop	{r4, pc}
 800715a:	bf00      	nop
 800715c:	080072f5 	.word	0x080072f5
 8007160:	08007317 	.word	0x08007317
 8007164:	0800734f 	.word	0x0800734f
 8007168:	08007373 	.word	0x08007373
 800716c:	20000e44 	.word	0x20000e44

08007170 <stdio_exit_handler>:
 8007170:	4a02      	ldr	r2, [pc, #8]	@ (800717c <stdio_exit_handler+0xc>)
 8007172:	4903      	ldr	r1, [pc, #12]	@ (8007180 <stdio_exit_handler+0x10>)
 8007174:	4803      	ldr	r0, [pc, #12]	@ (8007184 <stdio_exit_handler+0x14>)
 8007176:	f000 b869 	b.w	800724c <_fwalk_sglue>
 800717a:	bf00      	nop
 800717c:	20000064 	.word	0x20000064
 8007180:	08008e91 	.word	0x08008e91
 8007184:	20000074 	.word	0x20000074

08007188 <cleanup_stdio>:
 8007188:	6841      	ldr	r1, [r0, #4]
 800718a:	4b0c      	ldr	r3, [pc, #48]	@ (80071bc <cleanup_stdio+0x34>)
 800718c:	b510      	push	{r4, lr}
 800718e:	4299      	cmp	r1, r3
 8007190:	4604      	mov	r4, r0
 8007192:	d001      	beq.n	8007198 <cleanup_stdio+0x10>
 8007194:	f001 fe7c 	bl	8008e90 <_fflush_r>
 8007198:	68a1      	ldr	r1, [r4, #8]
 800719a:	4b09      	ldr	r3, [pc, #36]	@ (80071c0 <cleanup_stdio+0x38>)
 800719c:	4299      	cmp	r1, r3
 800719e:	d002      	beq.n	80071a6 <cleanup_stdio+0x1e>
 80071a0:	4620      	mov	r0, r4
 80071a2:	f001 fe75 	bl	8008e90 <_fflush_r>
 80071a6:	68e1      	ldr	r1, [r4, #12]
 80071a8:	4b06      	ldr	r3, [pc, #24]	@ (80071c4 <cleanup_stdio+0x3c>)
 80071aa:	4299      	cmp	r1, r3
 80071ac:	d004      	beq.n	80071b8 <cleanup_stdio+0x30>
 80071ae:	4620      	mov	r0, r4
 80071b0:	e8bd 4010 	ldmia.w	sp!, {r4, lr}
 80071b4:	f001 be6c 	b.w	8008e90 <_fflush_r>
 80071b8:	bd10      	pop	{r4, pc}
 80071ba:	bf00      	nop
 80071bc:	20000e44 	.word	0x20000e44
 80071c0:	20000eac 	.word	0x20000eac
 80071c4:	20000f14 	.word	0x20000f14

080071c8 <global_stdio_init.part.0>:
 80071c8:	b510      	push	{r4, lr}
 80071ca:	4b0b      	ldr	r3, [pc, #44]	@ (80071f8 <global_stdio_init.part.0+0x30>)
 80071cc:	4c0b      	ldr	r4, [pc, #44]	@ (80071fc <global_stdio_init.part.0+0x34>)
 80071ce:	4a0c      	ldr	r2, [pc, #48]	@ (8007200 <global_stdio_init.part.0+0x38>)
 80071d0:	4620      	mov	r0, r4
 80071d2:	601a      	str	r2, [r3, #0]
 80071d4:	2104      	movs	r1, #4
 80071d6:	2200      	movs	r2, #0
 80071d8:	f7ff ff94 	bl	8007104 <std>
 80071dc:	f104 0068 	add.w	r0, r4, #104	@ 0x68
 80071e0:	2201      	movs	r2, #1
 80071e2:	2109      	movs	r1, #9
 80071e4:	f7ff ff8e 	bl	8007104 <std>
 80071e8:	f104 00d0 	add.w	r0, r4, #208	@ 0xd0
 80071ec:	2202      	movs	r2, #2
 80071ee:	e8bd 4010 	ldmia.w	sp!, {r4, lr}
 80071f2:	2112      	movs	r1, #18
 80071f4:	f7ff bf86 	b.w	8007104 <std>
 80071f8:	20000f7c 	.word	0x20000f7c
 80071fc:	20000e44 	.word	0x20000e44
 8007200:	08007171 	.word	0x08007171

08007204 <__sfp_lock_acquire>:
 8007204:	4801      	ldr	r0, [pc, #4]	@ (800720c <__sfp_lock_acquire+0x8>)
 8007206:	f000 b96e 	b.w	80074e6 <__retarget_lock_acquire_recursive>
 800720a:	bf00      	nop
 800720c:	20000f85 	.word	0x20000f85

08007210 <__sfp_lock_release>:
 8007210:	4801      	ldr	r0, [pc, #4]	@ (8007218 <__sfp_lock_release+0x8>)
 8007212:	f000 b969 	b.w	80074e8 <__retarget_lock_release_recursive>
 8007216:	bf00      	nop
 8007218:	20000f85 	.word	0x20000f85

0800721c <__sinit>:
 800721c:	b510      	push	{r4, lr}
 800721e:	4604      	mov	r4, r0
 8007220:	f7ff fff0 	bl	8007204 <__sfp_lock_acquire>
 8007224:	6a23      	ldr	r3, [r4, #32]
 8007226:	b11b      	cbz	r3, 8007230 <__sinit+0x14>
 8007228:	e8bd 4010 	ldmia.w	sp!, {r4, lr}
 800722c:	f7ff bff0 	b.w	8007210 <__sfp_lock_release>
 8007230:	4b04      	ldr	r3, [pc, #16]	@ (8007244 <__sinit+0x28>)
 8007232:	6223      	str	r3, [r4, #32]
 8007234:	4b04      	ldr	r3, [pc, #16]	@ (8007248 <__sinit+0x2c>)
 8007236:	681b      	ldr	r3, [r3, #0]
 8007238:	2b00      	cmp	r3, #0
 800723a:	d1f5      	bne.n	8007228 <__sinit+0xc>
 800723c:	f7ff ffc4 	bl	80071c8 <global_stdio_init.part.0>
 8007240:	e7f2      	b.n	8007228 <__sinit+0xc>
 8007242:	bf00      	nop
 8007244:	08007189 	.word	0x08007189
 8007248:	20000f7c 	.word	0x20000f7c

0800724c <_fwalk_sglue>:
 800724c:	e92d 43f8 	stmdb	sp!, {r3, r4, r5, r6, r7, r8, r9, lr}
 8007250:	4607      	mov	r7, r0
 8007252:	4688      	mov	r8, r1
 8007254:	4614      	mov	r4, r2
 8007256:	2600      	movs	r6, #0
 8007258:	e9d4 9501 	ldrd	r9, r5, [r4, #4]
 800725c:	f1b9 0901 	subs.w	r9, r9, #1
 8007260:	d505      	bpl.n	800726e <_fwalk_sglue+0x22>
 8007262:	6824      	ldr	r4, [r4, #0]
 8007264:	2c00      	cmp	r4, #0
 8007266:	d1f7      	bne.n	8007258 <_fwalk_sglue+0xc>
 8007268:	4630      	mov	r0, r6
 800726a:	e8bd 83f8 	ldmia.w	sp!, {r3, r4, r5, r6, r7, r8, r9, pc}
 800726e:	89ab      	ldrh	r3, [r5, #12]
 8007270:	2b01      	cmp	r3, #1
 8007272:	d907      	bls.n	8007284 <_fwalk_sglue+0x38>
 8007274:	f9b5 300e 	ldrsh.w	r3, [r5, #14]
 8007278:	3301      	adds	r3, #1
 800727a:	d003      	beq.n	8007284 <_fwalk_sglue+0x38>
 800727c:	4629      	mov	r1, r5
 800727e:	4638      	mov	r0, r7
 8007280:	47c0      	blx	r8
 8007282:	4306      	orrs	r6, r0
 8007284:	3568      	adds	r5, #104	@ 0x68
 8007286:	e7e9      	b.n	800725c <_fwalk_sglue+0x10>

08007288 <sniprintf>:
 8007288:	b40c      	push	{r2, r3}
 800728a:	b530      	push	{r4, r5, lr}
 800728c:	4b18      	ldr	r3, [pc, #96]	@ (80072f0 <sniprintf+0x68>)
 800728e:	1e0c      	subs	r4, r1, #0
 8007290:	681d      	ldr	r5, [r3, #0]
 8007292:	b09d      	sub	sp, #116	@ 0x74
 8007294:	da08      	bge.n	80072a8 <sniprintf+0x20>
 8007296:	238b      	movs	r3, #139	@ 0x8b
 8007298:	f04f 30ff 	mov.w	r0, #4294967295
 800729c:	602b      	str	r3, [r5, #0]
 800729e:	b01d      	add	sp, #116	@ 0x74
 80072a0:	e8bd 4030 	ldmia.w	sp!, {r4, r5, lr}
 80072a4:	b002      	add	sp, #8
 80072a6:	4770      	bx	lr
 80072a8:	f44f 7302 	mov.w	r3, #520	@ 0x208
 80072ac:	f8ad 3014 	strh.w	r3, [sp, #20]
 80072b0:	f04f 0300 	mov.w	r3, #0
 80072b4:	931b      	str	r3, [sp, #108]	@ 0x6c
 80072b6:	bf0c      	ite	eq
 80072b8:	4623      	moveq	r3, r4
 80072ba:	f104 33ff 	addne.w	r3, r4, #4294967295
 80072be:	9304      	str	r3, [sp, #16]
 80072c0:	9307      	str	r3, [sp, #28]
 80072c2:	f64f 73ff 	movw	r3, #65535	@ 0xffff
 80072c6:	9002      	str	r0, [sp, #8]
 80072c8:	9006      	str	r0, [sp, #24]
 80072ca:	f8ad 3016 	strh.w	r3, [sp, #22]
 80072ce:	4628      	mov	r0, r5
 80072d0:	ab21      	add	r3, sp, #132	@ 0x84
 80072d2:	9a20      	ldr	r2, [sp, #128]	@ 0x80
 80072d4:	a902      	add	r1, sp, #8
 80072d6:	9301      	str	r3, [sp, #4]
 80072d8:	f001 fc5e 	bl	8008b98 <_svfiprintf_r>
 80072dc:	1c43      	adds	r3, r0, #1
 80072de:	bfbc      	itt	lt
 80072e0:	238b      	movlt	r3, #139	@ 0x8b
 80072e2:	602b      	strlt	r3, [r5, #0]
 80072e4:	2c00      	cmp	r4, #0
 80072e6:	d0da      	beq.n	800729e <sniprintf+0x16>
 80072e8:	2200      	movs	r2, #0
 80072ea:	9b02      	ldr	r3, [sp, #8]
 80072ec:	701a      	strb	r2, [r3, #0]
 80072ee:	e7d6      	b.n	800729e <sniprintf+0x16>
 80072f0:	20000070 	.word	0x20000070

080072f4 <__sread>:
 80072f4:	b510      	push	{r4, lr}
 80072f6:	460c      	mov	r4, r1
 80072f8:	f9b1 100e 	ldrsh.w	r1, [r1, #14]
 80072fc:	f000 f8a4 	bl	8007448 <_read_r>
 8007300:	2800      	cmp	r0, #0
 8007302:	bfab      	itete	ge
 8007304:	6d63      	ldrge	r3, [r4, #84]	@ 0x54
 8007306:	89a3      	ldrhlt	r3, [r4, #12]
 8007308:	181b      	addge	r3, r3, r0
 800730a:	f423 5380 	biclt.w	r3, r3, #4096	@ 0x1000
 800730e:	bfac      	ite	ge
 8007310:	6563      	strge	r3, [r4, #84]	@ 0x54
 8007312:	81a3      	strhlt	r3, [r4, #12]
 8007314:	bd10      	pop	{r4, pc}

08007316 <__swrite>:
 8007316:	e92d 41f0 	stmdb	sp!, {r4, r5, r6, r7, r8, lr}
 800731a:	461f      	mov	r7, r3
 800731c:	898b      	ldrh	r3, [r1, #12]
 800731e:	4605      	mov	r5, r0
 8007320:	05db      	lsls	r3, r3, #23
 8007322:	460c      	mov	r4, r1
 8007324:	4616      	mov	r6, r2
 8007326:	d505      	bpl.n	8007334 <__swrite+0x1e>
 8007328:	2302      	movs	r3, #2
 800732a:	2200      	movs	r2, #0
 800732c:	f9b1 100e 	ldrsh.w	r1, [r1, #14]
 8007330:	f000 f878 	bl	8007424 <_lseek_r>
 8007334:	89a3      	ldrh	r3, [r4, #12]
 8007336:	4632      	mov	r2, r6
 8007338:	f423 5380 	bic.w	r3, r3, #4096	@ 0x1000
 800733c:	81a3      	strh	r3, [r4, #12]
 800733e:	4628      	mov	r0, r5
 8007340:	463b      	mov	r3, r7
 8007342:	f9b4 100e 	ldrsh.w	r1, [r4, #14]
 8007346:	e8bd 41f0 	ldmia.w	sp!, {r4, r5, r6, r7, r8, lr}
 800734a:	f000 b88f 	b.w	800746c <_write_r>

0800734e <__sseek>:
 800734e:	b510      	push	{r4, lr}
 8007350:	460c      	mov	r4, r1
 8007352:	f9b1 100e 	ldrsh.w	r1, [r1, #14]
 8007356:	f000 f865 	bl	8007424 <_lseek_r>
 800735a:	1c43      	adds	r3, r0, #1
 800735c:	89a3      	ldrh	r3, [r4, #12]
 800735e:	bf15      	itete	ne
 8007360:	6560      	strne	r0, [r4, #84]	@ 0x54
 8007362:	f423 5380 	biceq.w	r3, r3, #4096	@ 0x1000
 8007366:	f443 5380 	orrne.w	r3, r3, #4096	@ 0x1000
 800736a:	81a3      	strheq	r3, [r4, #12]
 800736c:	bf18      	it	ne
 800736e:	81a3      	strhne	r3, [r4, #12]
 8007370:	bd10      	pop	{r4, pc}

08007372 <__sclose>:
 8007372:	f9b1 100e 	ldrsh.w	r1, [r1, #14]
 8007376:	f000 b845 	b.w	8007404 <_close_r>

0800737a <memset>:
 800737a:	4603      	mov	r3, r0
 800737c:	4402      	add	r2, r0
 800737e:	4293      	cmp	r3, r2
 8007380:	d100      	bne.n	8007384 <memset+0xa>
 8007382:	4770      	bx	lr
 8007384:	f803 1b01 	strb.w	r1, [r3], #1
 8007388:	e7f9      	b.n	800737e <memset+0x4>

0800738a <strcat>:
 800738a:	4602      	mov	r2, r0
 800738c:	b510      	push	{r4, lr}
 800738e:	7814      	ldrb	r4, [r2, #0]
 8007390:	4613      	mov	r3, r2
 8007392:	3201      	adds	r2, #1
 8007394:	2c00      	cmp	r4, #0
 8007396:	d1fa      	bne.n	800738e <strcat+0x4>
 8007398:	3b01      	subs	r3, #1
 800739a:	f811 2b01 	ldrb.w	r2, [r1], #1
 800739e:	f803 2f01 	strb.w	r2, [r3, #1]!
 80073a2:	2a00      	cmp	r2, #0
 80073a4:	d1f9      	bne.n	800739a <strcat+0x10>
 80073a6:	bd10      	pop	{r4, pc}

080073a8 <strncpy>:
 80073a8:	4603      	mov	r3, r0
 80073aa:	b510      	push	{r4, lr}
 80073ac:	3901      	subs	r1, #1
 80073ae:	b132      	cbz	r2, 80073be <strncpy+0x16>
 80073b0:	f811 4f01 	ldrb.w	r4, [r1, #1]!
 80073b4:	3a01      	subs	r2, #1
 80073b6:	f803 4b01 	strb.w	r4, [r3], #1
 80073ba:	2c00      	cmp	r4, #0
 80073bc:	d1f7      	bne.n	80073ae <strncpy+0x6>
 80073be:	2100      	movs	r1, #0
 80073c0:	441a      	add	r2, r3
 80073c2:	4293      	cmp	r3, r2
 80073c4:	d100      	bne.n	80073c8 <strncpy+0x20>
 80073c6:	bd10      	pop	{r4, pc}
 80073c8:	f803 1b01 	strb.w	r1, [r3], #1
 80073cc:	e7f9      	b.n	80073c2 <strncpy+0x1a>

080073ce <strstr>:
 80073ce:	780a      	ldrb	r2, [r1, #0]
 80073d0:	b570      	push	{r4, r5, r6, lr}
 80073d2:	b96a      	cbnz	r2, 80073f0 <strstr+0x22>
 80073d4:	bd70      	pop	{r4, r5, r6, pc}
 80073d6:	429a      	cmp	r2, r3
 80073d8:	d109      	bne.n	80073ee <strstr+0x20>
 80073da:	460c      	mov	r4, r1
 80073dc:	4605      	mov	r5, r0
 80073de:	f814 3f01 	ldrb.w	r3, [r4, #1]!
 80073e2:	2b00      	cmp	r3, #0
 80073e4:	d0f6      	beq.n	80073d4 <strstr+0x6>
 80073e6:	f815 6f01 	ldrb.w	r6, [r5, #1]!
 80073ea:	429e      	cmp	r6, r3
 80073ec:	d0f7      	beq.n	80073de <strstr+0x10>
 80073ee:	3001      	adds	r0, #1
 80073f0:	7803      	ldrb	r3, [r0, #0]
 80073f2:	2b00      	cmp	r3, #0
 80073f4:	d1ef      	bne.n	80073d6 <strstr+0x8>
 80073f6:	4618      	mov	r0, r3
 80073f8:	e7ec      	b.n	80073d4 <strstr+0x6>
	...

080073fc <_localeconv_r>:
 80073fc:	4800      	ldr	r0, [pc, #0]	@ (8007400 <_localeconv_r+0x4>)
 80073fe:	4770      	bx	lr
 8007400:	200001b0 	.word	0x200001b0

08007404 <_close_r>:
 8007404:	b538      	push	{r3, r4, r5, lr}
 8007406:	2300      	movs	r3, #0
 8007408:	4d05      	ldr	r5, [pc, #20]	@ (8007420 <_close_r+0x1c>)
 800740a:	4604      	mov	r4, r0
 800740c:	4608      	mov	r0, r1
 800740e:	602b      	str	r3, [r5, #0]
 8007410:	f7fc fb32 	bl	8003a78 <_close>
 8007414:	1c43      	adds	r3, r0, #1
 8007416:	d102      	bne.n	800741e <_close_r+0x1a>
 8007418:	682b      	ldr	r3, [r5, #0]
 800741a:	b103      	cbz	r3, 800741e <_close_r+0x1a>
 800741c:	6023      	str	r3, [r4, #0]
 800741e:	bd38      	pop	{r3, r4, r5, pc}
 8007420:	20000f80 	.word	0x20000f80

08007424 <_lseek_r>:
 8007424:	b538      	push	{r3, r4, r5, lr}
 8007426:	4604      	mov	r4, r0
 8007428:	4608      	mov	r0, r1
 800742a:	4611      	mov	r1, r2
 800742c:	2200      	movs	r2, #0
 800742e:	4d05      	ldr	r5, [pc, #20]	@ (8007444 <_lseek_r+0x20>)
 8007430:	602a      	str	r2, [r5, #0]
 8007432:	461a      	mov	r2, r3
 8007434:	f7fc fb2a 	bl	8003a8c <_lseek>
 8007438:	1c43      	adds	r3, r0, #1
 800743a:	d102      	bne.n	8007442 <_lseek_r+0x1e>
 800743c:	682b      	ldr	r3, [r5, #0]
 800743e:	b103      	cbz	r3, 8007442 <_lseek_r+0x1e>
 8007440:	6023      	str	r3, [r4, #0]
 8007442:	bd38      	pop	{r3, r4, r5, pc}
 8007444:	20000f80 	.word	0x20000f80

08007448 <_read_r>:
 8007448:	b538      	push	{r3, r4, r5, lr}
 800744a:	4604      	mov	r4, r0
 800744c:	4608      	mov	r0, r1
 800744e:	4611      	mov	r1, r2
 8007450:	2200      	movs	r2, #0
 8007452:	4d05      	ldr	r5, [pc, #20]	@ (8007468 <_read_r+0x20>)
 8007454:	602a      	str	r2, [r5, #0]
 8007456:	461a      	mov	r2, r3
 8007458:	f7fc faf2 	bl	8003a40 <_read>
 800745c:	1c43      	adds	r3, r0, #1
 800745e:	d102      	bne.n	8007466 <_read_r+0x1e>
 8007460:	682b      	ldr	r3, [r5, #0]
 8007462:	b103      	cbz	r3, 8007466 <_read_r+0x1e>
 8007464:	6023      	str	r3, [r4, #0]
 8007466:	bd38      	pop	{r3, r4, r5, pc}
 8007468:	20000f80 	.word	0x20000f80

0800746c <_write_r>:
 800746c:	b538      	push	{r3, r4, r5, lr}
 800746e:	4604      	mov	r4, r0
 8007470:	4608      	mov	r0, r1
 8007472:	4611      	mov	r1, r2
 8007474:	2200      	movs	r2, #0
 8007476:	4d05      	ldr	r5, [pc, #20]	@ (800748c <_write_r+0x20>)
 8007478:	602a      	str	r2, [r5, #0]
 800747a:	461a      	mov	r2, r3
 800747c:	f7fc faee 	bl	8003a5c <_write>
 8007480:	1c43      	adds	r3, r0, #1
 8007482:	d102      	bne.n	800748a <_write_r+0x1e>
 8007484:	682b      	ldr	r3, [r5, #0]
 8007486:	b103      	cbz	r3, 800748a <_write_r+0x1e>
 8007488:	6023      	str	r3, [r4, #0]
 800748a:	bd38      	pop	{r3, r4, r5, pc}
 800748c:	20000f80 	.word	0x20000f80

08007490 <__errno>:
 8007490:	4b01      	ldr	r3, [pc, #4]	@ (8007498 <__errno+0x8>)
 8007492:	6818      	ldr	r0, [r3, #0]
 8007494:	4770      	bx	lr
 8007496:	bf00      	nop
 8007498:	20000070 	.word	0x20000070

0800749c <__libc_init_array>:
 800749c:	b570      	push	{r4, r5, r6, lr}
 800749e:	2600      	movs	r6, #0
 80074a0:	4d0c      	ldr	r5, [pc, #48]	@ (80074d4 <__libc_init_array+0x38>)
 80074a2:	4c0d      	ldr	r4, [pc, #52]	@ (80074d8 <__libc_init_array+0x3c>)
 80074a4:	1b64      	subs	r4, r4, r5
 80074a6:	10a4      	asrs	r4, r4, #2
 80074a8:	42a6      	cmp	r6, r4
 80074aa:	d109      	bne.n	80074c0 <__libc_init_array+0x24>
 80074ac:	f002 f87e 	bl	80095ac <_init>
 80074b0:	2600      	movs	r6, #0
 80074b2:	4d0a      	ldr	r5, [pc, #40]	@ (80074dc <__libc_init_array+0x40>)
 80074b4:	4c0a      	ldr	r4, [pc, #40]	@ (80074e0 <__libc_init_array+0x44>)
 80074b6:	1b64      	subs	r4, r4, r5
 80074b8:	10a4      	asrs	r4, r4, #2
 80074ba:	42a6      	cmp	r6, r4
 80074bc:	d105      	bne.n	80074ca <__libc_init_array+0x2e>
 80074be:	bd70      	pop	{r4, r5, r6, pc}
 80074c0:	f855 3b04 	ldr.w	r3, [r5], #4
 80074c4:	4798      	blx	r3
 80074c6:	3601      	adds	r6, #1
 80074c8:	e7ee      	b.n	80074a8 <__libc_init_array+0xc>
 80074ca:	f855 3b04 	ldr.w	r3, [r5], #4
 80074ce:	4798      	blx	r3
 80074d0:	3601      	adds	r6, #1
 80074d2:	e7f2      	b.n	80074ba <__libc_init_array+0x1e>
 80074d4:	0800a08c 	.word	0x0800a08c
 80074d8:	0800a08c 	.word	0x0800a08c
 80074dc:	0800a08c 	.word	0x0800a08c
 80074e0:	0800a090 	.word	0x0800a090

080074e4 <__retarget_lock_init_recursive>:
 80074e4:	4770      	bx	lr

080074e6 <__retarget_lock_acquire_recursive>:
 80074e6:	4770      	bx	lr

080074e8 <__retarget_lock_release_recursive>:
 80074e8:	4770      	bx	lr

080074ea <strcpy>:
 80074ea:	4603      	mov	r3, r0
 80074ec:	f811 2b01 	ldrb.w	r2, [r1], #1
 80074f0:	f803 2b01 	strb.w	r2, [r3], #1
 80074f4:	2a00      	cmp	r2, #0
 80074f6:	d1f9      	bne.n	80074ec <strcpy+0x2>
 80074f8:	4770      	bx	lr

080074fa <memchr>:
 80074fa:	4603      	mov	r3, r0
 80074fc:	b510      	push	{r4, lr}
 80074fe:	b2c9      	uxtb	r1, r1
 8007500:	4402      	add	r2, r0
 8007502:	4293      	cmp	r3, r2
 8007504:	4618      	mov	r0, r3
 8007506:	d101      	bne.n	800750c <memchr+0x12>
 8007508:	2000      	movs	r0, #0
 800750a:	e003      	b.n	8007514 <memchr+0x1a>
 800750c:	7804      	ldrb	r4, [r0, #0]
 800750e:	3301      	adds	r3, #1
 8007510:	428c      	cmp	r4, r1
 8007512:	d1f6      	bne.n	8007502 <memchr+0x8>
 8007514:	bd10      	pop	{r4, pc}

08007516 <memcpy>:
 8007516:	440a      	add	r2, r1
 8007518:	4291      	cmp	r1, r2
 800751a:	f100 33ff 	add.w	r3, r0, #4294967295
 800751e:	d100      	bne.n	8007522 <memcpy+0xc>
 8007520:	4770      	bx	lr
 8007522:	b510      	push	{r4, lr}
 8007524:	f811 4b01 	ldrb.w	r4, [r1], #1
 8007528:	4291      	cmp	r1, r2
 800752a:	f803 4f01 	strb.w	r4, [r3, #1]!
 800752e:	d1f9      	bne.n	8007524 <memcpy+0xe>
 8007530:	bd10      	pop	{r4, pc}

08007532 <quorem>:
 8007532:	e92d 4ff7 	stmdb	sp!, {r0, r1, r2, r4, r5, r6, r7, r8, r9, sl, fp, lr}
 8007536:	6903      	ldr	r3, [r0, #16]
 8007538:	690c      	ldr	r4, [r1, #16]
 800753a:	4607      	mov	r7, r0
 800753c:	42a3      	cmp	r3, r4
 800753e:	db7e      	blt.n	800763e <quorem+0x10c>
 8007540:	3c01      	subs	r4, #1
 8007542:	00a3      	lsls	r3, r4, #2
 8007544:	f100 0514 	add.w	r5, r0, #20
 8007548:	f101 0814 	add.w	r8, r1, #20
 800754c:	9300      	str	r3, [sp, #0]
 800754e:	eb05 0384 	add.w	r3, r5, r4, lsl #2
 8007552:	9301      	str	r3, [sp, #4]
 8007554:	f858 3024 	ldr.w	r3, [r8, r4, lsl #2]
 8007558:	f855 2024 	ldr.w	r2, [r5, r4, lsl #2]
 800755c:	3301      	adds	r3, #1
 800755e:	429a      	cmp	r2, r3
 8007560:	fbb2 f6f3 	udiv	r6, r2, r3
 8007564:	eb08 0984 	add.w	r9, r8, r4, lsl #2
 8007568:	d32e      	bcc.n	80075c8 <quorem+0x96>
 800756a:	f04f 0a00 	mov.w	sl, #0
 800756e:	46c4      	mov	ip, r8
 8007570:	46ae      	mov	lr, r5
 8007572:	46d3      	mov	fp, sl
 8007574:	f85c 3b04 	ldr.w	r3, [ip], #4
 8007578:	b298      	uxth	r0, r3
 800757a:	fb06 a000 	mla	r0, r6, r0, sl
 800757e:	0c1b      	lsrs	r3, r3, #16
 8007580:	0c02      	lsrs	r2, r0, #16
 8007582:	fb06 2303 	mla	r3, r6, r3, r2
 8007586:	f8de 2000 	ldr.w	r2, [lr]
 800758a:	b280      	uxth	r0, r0
 800758c:	b292      	uxth	r2, r2
 800758e:	1a12      	subs	r2, r2, r0
 8007590:	445a      	add	r2, fp
 8007592:	f8de 0000 	ldr.w	r0, [lr]
 8007596:	ea4f 4a13 	mov.w	sl, r3, lsr #16
 800759a:	b29b      	uxth	r3, r3
 800759c:	ebc3 4322 	rsb	r3, r3, r2, asr #16
 80075a0:	eb03 4310 	add.w	r3, r3, r0, lsr #16
 80075a4:	b292      	uxth	r2, r2
 80075a6:	ea42 4203 	orr.w	r2, r2, r3, lsl #16
 80075aa:	45e1      	cmp	r9, ip
 80075ac:	ea4f 4b23 	mov.w	fp, r3, asr #16
 80075b0:	f84e 2b04 	str.w	r2, [lr], #4
 80075b4:	d2de      	bcs.n	8007574 <quorem+0x42>
 80075b6:	9b00      	ldr	r3, [sp, #0]
 80075b8:	58eb      	ldr	r3, [r5, r3]
 80075ba:	b92b      	cbnz	r3, 80075c8 <quorem+0x96>
 80075bc:	9b01      	ldr	r3, [sp, #4]
 80075be:	3b04      	subs	r3, #4
 80075c0:	429d      	cmp	r5, r3
 80075c2:	461a      	mov	r2, r3
 80075c4:	d32f      	bcc.n	8007626 <quorem+0xf4>
 80075c6:	613c      	str	r4, [r7, #16]
 80075c8:	4638      	mov	r0, r7
 80075ca:	f001 f981 	bl	80088d0 <__mcmp>
 80075ce:	2800      	cmp	r0, #0
 80075d0:	db25      	blt.n	800761e <quorem+0xec>
 80075d2:	4629      	mov	r1, r5
 80075d4:	2000      	movs	r0, #0
 80075d6:	f858 2b04 	ldr.w	r2, [r8], #4
 80075da:	f8d1 c000 	ldr.w	ip, [r1]
 80075de:	fa1f fe82 	uxth.w	lr, r2
 80075e2:	fa1f f38c 	uxth.w	r3, ip
 80075e6:	eba3 030e 	sub.w	r3, r3, lr
 80075ea:	4403      	add	r3, r0
 80075ec:	0c12      	lsrs	r2, r2, #16
 80075ee:	ebc2 4223 	rsb	r2, r2, r3, asr #16
 80075f2:	eb02 421c 	add.w	r2, r2, ip, lsr #16
 80075f6:	b29b      	uxth	r3, r3
 80075f8:	ea43 4302 	orr.w	r3, r3, r2, lsl #16
 80075fc:	45c1      	cmp	r9, r8
 80075fe:	ea4f 4022 	mov.w	r0, r2, asr #16
 8007602:	f841 3b04 	str.w	r3, [r1], #4
 8007606:	d2e6      	bcs.n	80075d6 <quorem+0xa4>
 8007608:	f855 2024 	ldr.w	r2, [r5, r4, lsl #2]
 800760c:	eb05 0384 	add.w	r3, r5, r4, lsl #2
 8007610:	b922      	cbnz	r2, 800761c <quorem+0xea>
 8007612:	3b04      	subs	r3, #4
 8007614:	429d      	cmp	r5, r3
 8007616:	461a      	mov	r2, r3
 8007618:	d30b      	bcc.n	8007632 <quorem+0x100>
 800761a:	613c      	str	r4, [r7, #16]
 800761c:	3601      	adds	r6, #1
 800761e:	4630      	mov	r0, r6
 8007620:	b003      	add	sp, #12
 8007622:	e8bd 8ff0 	ldmia.w	sp!, {r4, r5, r6, r7, r8, r9, sl, fp, pc}
 8007626:	6812      	ldr	r2, [r2, #0]
 8007628:	3b04      	subs	r3, #4
 800762a:	2a00      	cmp	r2, #0
 800762c:	d1cb      	bne.n	80075c6 <quorem+0x94>
 800762e:	3c01      	subs	r4, #1
 8007630:	e7c6      	b.n	80075c0 <quorem+0x8e>
 8007632:	6812      	ldr	r2, [r2, #0]
 8007634:	3b04      	subs	r3, #4
 8007636:	2a00      	cmp	r2, #0
 8007638:	d1ef      	bne.n	800761a <quorem+0xe8>
 800763a:	3c01      	subs	r4, #1
 800763c:	e7ea      	b.n	8007614 <quorem+0xe2>
 800763e:	2000      	movs	r0, #0
 8007640:	e7ee      	b.n	8007620 <quorem+0xee>
 8007642:	0000      	movs	r0, r0
 8007644:	0000      	movs	r0, r0
	...

08007648 <_dtoa_r>:
 8007648:	e92d 4ff0 	stmdb	sp!, {r4, r5, r6, r7, r8, r9, sl, fp, lr}
 800764c:	4614      	mov	r4, r2
 800764e:	461d      	mov	r5, r3
 8007650:	69c7      	ldr	r7, [r0, #28]
 8007652:	b097      	sub	sp, #92	@ 0x5c
 8007654:	4681      	mov	r9, r0
 8007656:	e9cd 4506 	strd	r4, r5, [sp, #24]
 800765a:	9e23      	ldr	r6, [sp, #140]	@ 0x8c
 800765c:	b97f      	cbnz	r7, 800767e <_dtoa_r+0x36>
 800765e:	2010      	movs	r0, #16
 8007660:	f000 fe0e 	bl	8008280 <malloc>
 8007664:	4602      	mov	r2, r0
 8007666:	f8c9 001c 	str.w	r0, [r9, #28]
 800766a:	b920      	cbnz	r0, 8007676 <_dtoa_r+0x2e>
 800766c:	21ef      	movs	r1, #239	@ 0xef
 800766e:	4bac      	ldr	r3, [pc, #688]	@ (8007920 <_dtoa_r+0x2d8>)
 8007670:	48ac      	ldr	r0, [pc, #688]	@ (8007924 <_dtoa_r+0x2dc>)
 8007672:	f001 fc5f 	bl	8008f34 <__assert_func>
 8007676:	e9c0 7701 	strd	r7, r7, [r0, #4]
 800767a:	6007      	str	r7, [r0, #0]
 800767c:	60c7      	str	r7, [r0, #12]
 800767e:	f8d9 301c 	ldr.w	r3, [r9, #28]
 8007682:	6819      	ldr	r1, [r3, #0]
 8007684:	b159      	cbz	r1, 800769e <_dtoa_r+0x56>
 8007686:	685a      	ldr	r2, [r3, #4]
 8007688:	2301      	movs	r3, #1
 800768a:	4093      	lsls	r3, r2
 800768c:	604a      	str	r2, [r1, #4]
 800768e:	608b      	str	r3, [r1, #8]
 8007690:	4648      	mov	r0, r9
 8007692:	f000 feeb 	bl	800846c <_Bfree>
 8007696:	2200      	movs	r2, #0
 8007698:	f8d9 301c 	ldr.w	r3, [r9, #28]
 800769c:	601a      	str	r2, [r3, #0]
 800769e:	1e2b      	subs	r3, r5, #0
 80076a0:	bfaf      	iteee	ge
 80076a2:	2300      	movge	r3, #0
 80076a4:	2201      	movlt	r2, #1
 80076a6:	f023 4300 	biclt.w	r3, r3, #2147483648	@ 0x80000000
 80076aa:	9307      	strlt	r3, [sp, #28]
 80076ac:	bfa8      	it	ge
 80076ae:	6033      	strge	r3, [r6, #0]
 80076b0:	f8dd 801c 	ldr.w	r8, [sp, #28]
 80076b4:	4b9c      	ldr	r3, [pc, #624]	@ (8007928 <_dtoa_r+0x2e0>)
 80076b6:	bfb8      	it	lt
 80076b8:	6032      	strlt	r2, [r6, #0]
 80076ba:	ea33 0308 	bics.w	r3, r3, r8
 80076be:	d112      	bne.n	80076e6 <_dtoa_r+0x9e>
 80076c0:	f242 730f 	movw	r3, #9999	@ 0x270f
 80076c4:	9a22      	ldr	r2, [sp, #136]	@ 0x88
 80076c6:	6013      	str	r3, [r2, #0]
 80076c8:	f3c8 0313 	ubfx	r3, r8, #0, #20
 80076cc:	4323      	orrs	r3, r4
 80076ce:	f000 855e 	beq.w	800818e <_dtoa_r+0xb46>
 80076d2:	9b24      	ldr	r3, [sp, #144]	@ 0x90
 80076d4:	f8df a254 	ldr.w	sl, [pc, #596]	@ 800792c <_dtoa_r+0x2e4>
 80076d8:	2b00      	cmp	r3, #0
 80076da:	f000 8560 	beq.w	800819e <_dtoa_r+0xb56>
 80076de:	f10a 0303 	add.w	r3, sl, #3
 80076e2:	f000 bd5a 	b.w	800819a <_dtoa_r+0xb52>
 80076e6:	e9dd 2306 	ldrd	r2, r3, [sp, #24]
 80076ea:	e9cd 230c 	strd	r2, r3, [sp, #48]	@ 0x30
 80076ee:	e9dd 010c 	ldrd	r0, r1, [sp, #48]	@ 0x30
 80076f2:	2200      	movs	r2, #0
 80076f4:	2300      	movs	r3, #0
 80076f6:	f7f9 f957 	bl	80009a8 <__aeabi_dcmpeq>
 80076fa:	4607      	mov	r7, r0
 80076fc:	b158      	cbz	r0, 8007716 <_dtoa_r+0xce>
 80076fe:	2301      	movs	r3, #1
 8007700:	9a22      	ldr	r2, [sp, #136]	@ 0x88
 8007702:	6013      	str	r3, [r2, #0]
 8007704:	9b24      	ldr	r3, [sp, #144]	@ 0x90
 8007706:	b113      	cbz	r3, 800770e <_dtoa_r+0xc6>
 8007708:	4b89      	ldr	r3, [pc, #548]	@ (8007930 <_dtoa_r+0x2e8>)
 800770a:	9a24      	ldr	r2, [sp, #144]	@ 0x90
 800770c:	6013      	str	r3, [r2, #0]
 800770e:	f8df a224 	ldr.w	sl, [pc, #548]	@ 8007934 <_dtoa_r+0x2ec>
 8007712:	f000 bd44 	b.w	800819e <_dtoa_r+0xb56>
 8007716:	ab14      	add	r3, sp, #80	@ 0x50
 8007718:	9301      	str	r3, [sp, #4]
 800771a:	ab15      	add	r3, sp, #84	@ 0x54
 800771c:	9300      	str	r3, [sp, #0]
 800771e:	4648      	mov	r0, r9
 8007720:	e9dd 230c 	ldrd	r2, r3, [sp, #48]	@ 0x30
 8007724:	f001 f984 	bl	8008a30 <__d2b>
 8007728:	f3c8 560a 	ubfx	r6, r8, #20, #11
 800772c:	9003      	str	r0, [sp, #12]
 800772e:	2e00      	cmp	r6, #0
 8007730:	d078      	beq.n	8007824 <_dtoa_r+0x1dc>
 8007732:	e9dd 010c 	ldrd	r0, r1, [sp, #48]	@ 0x30
 8007736:	9b0d      	ldr	r3, [sp, #52]	@ 0x34
 8007738:	f2a6 36ff 	subw	r6, r6, #1023	@ 0x3ff
 800773c:	f3c3 0313 	ubfx	r3, r3, #0, #20
 8007740:	f043 537f 	orr.w	r3, r3, #1069547520	@ 0x3fc00000
 8007744:	f443 1340 	orr.w	r3, r3, #3145728	@ 0x300000
 8007748:	9712      	str	r7, [sp, #72]	@ 0x48
 800774a:	4619      	mov	r1, r3
 800774c:	2200      	movs	r2, #0
 800774e:	4b7a      	ldr	r3, [pc, #488]	@ (8007938 <_dtoa_r+0x2f0>)
 8007750:	f7f8 fd0a 	bl	8000168 <__aeabi_dsub>
 8007754:	a36c      	add	r3, pc, #432	@ (adr r3, 8007908 <_dtoa_r+0x2c0>)
 8007756:	e9d3 2300 	ldrd	r2, r3, [r3]
 800775a:	f7f8 febd 	bl	80004d8 <__aeabi_dmul>
 800775e:	a36c      	add	r3, pc, #432	@ (adr r3, 8007910 <_dtoa_r+0x2c8>)
 8007760:	e9d3 2300 	ldrd	r2, r3, [r3]
 8007764:	f7f8 fd02 	bl	800016c <__adddf3>
 8007768:	4604      	mov	r4, r0
 800776a:	4630      	mov	r0, r6
 800776c:	460d      	mov	r5, r1
 800776e:	f7f8 fe49 	bl	8000404 <__aeabi_i2d>
 8007772:	a369      	add	r3, pc, #420	@ (adr r3, 8007918 <_dtoa_r+0x2d0>)
 8007774:	e9d3 2300 	ldrd	r2, r3, [r3]
 8007778:	f7f8 feae 	bl	80004d8 <__aeabi_dmul>
 800777c:	4602      	mov	r2, r0
 800777e:	460b      	mov	r3, r1
 8007780:	4620      	mov	r0, r4
 8007782:	4629      	mov	r1, r5
 8007784:	f7f8 fcf2 	bl	800016c <__adddf3>
 8007788:	4604      	mov	r4, r0
 800778a:	460d      	mov	r5, r1
 800778c:	f7f9 f954 	bl	8000a38 <__aeabi_d2iz>
 8007790:	2200      	movs	r2, #0
 8007792:	4607      	mov	r7, r0
 8007794:	2300      	movs	r3, #0
 8007796:	4620      	mov	r0, r4
 8007798:	4629      	mov	r1, r5
 800779a:	f7f9 f90f 	bl	80009bc <__aeabi_dcmplt>
 800779e:	b140      	cbz	r0, 80077b2 <_dtoa_r+0x16a>
 80077a0:	4638      	mov	r0, r7
 80077a2:	f7f8 fe2f 	bl	8000404 <__aeabi_i2d>
 80077a6:	4622      	mov	r2, r4
 80077a8:	462b      	mov	r3, r5
 80077aa:	f7f9 f8fd 	bl	80009a8 <__aeabi_dcmpeq>
 80077ae:	b900      	cbnz	r0, 80077b2 <_dtoa_r+0x16a>
 80077b0:	3f01      	subs	r7, #1
 80077b2:	2f16      	cmp	r7, #22
 80077b4:	d854      	bhi.n	8007860 <_dtoa_r+0x218>
 80077b6:	e9dd 010c 	ldrd	r0, r1, [sp, #48]	@ 0x30
 80077ba:	4b60      	ldr	r3, [pc, #384]	@ (800793c <_dtoa_r+0x2f4>)
 80077bc:	eb03 03c7 	add.w	r3, r3, r7, lsl #3
 80077c0:	e9d3 2300 	ldrd	r2, r3, [r3]
 80077c4:	f7f9 f8fa 	bl	80009bc <__aeabi_dcmplt>
 80077c8:	2800      	cmp	r0, #0
 80077ca:	d04b      	beq.n	8007864 <_dtoa_r+0x21c>
 80077cc:	2300      	movs	r3, #0
 80077ce:	3f01      	subs	r7, #1
 80077d0:	930f      	str	r3, [sp, #60]	@ 0x3c
 80077d2:	9b14      	ldr	r3, [sp, #80]	@ 0x50
 80077d4:	1b9b      	subs	r3, r3, r6
 80077d6:	1e5a      	subs	r2, r3, #1
 80077d8:	bf49      	itett	mi
 80077da:	f1c3 0301 	rsbmi	r3, r3, #1
 80077de:	2300      	movpl	r3, #0
 80077e0:	9304      	strmi	r3, [sp, #16]
 80077e2:	2300      	movmi	r3, #0
 80077e4:	9209      	str	r2, [sp, #36]	@ 0x24
 80077e6:	bf54      	ite	pl
 80077e8:	9304      	strpl	r3, [sp, #16]
 80077ea:	9309      	strmi	r3, [sp, #36]	@ 0x24
 80077ec:	2f00      	cmp	r7, #0
 80077ee:	db3b      	blt.n	8007868 <_dtoa_r+0x220>
 80077f0:	9b09      	ldr	r3, [sp, #36]	@ 0x24
 80077f2:	970e      	str	r7, [sp, #56]	@ 0x38
 80077f4:	443b      	add	r3, r7
 80077f6:	9309      	str	r3, [sp, #36]	@ 0x24
 80077f8:	2300      	movs	r3, #0
 80077fa:	930a      	str	r3, [sp, #40]	@ 0x28
 80077fc:	9b20      	ldr	r3, [sp, #128]	@ 0x80
 80077fe:	2b09      	cmp	r3, #9
 8007800:	d865      	bhi.n	80078ce <_dtoa_r+0x286>
 8007802:	2b05      	cmp	r3, #5
 8007804:	bfc4      	itt	gt
 8007806:	3b04      	subgt	r3, #4
 8007808:	9320      	strgt	r3, [sp, #128]	@ 0x80
 800780a:	9b20      	ldr	r3, [sp, #128]	@ 0x80
 800780c:	bfc8      	it	gt
 800780e:	2400      	movgt	r4, #0
 8007810:	f1a3 0302 	sub.w	r3, r3, #2
 8007814:	bfd8      	it	le
 8007816:	2401      	movle	r4, #1
 8007818:	2b03      	cmp	r3, #3
 800781a:	d864      	bhi.n	80078e6 <_dtoa_r+0x29e>
 800781c:	e8df f003 	tbb	[pc, r3]
 8007820:	2c385553 	.word	0x2c385553
 8007824:	e9dd 6314 	ldrd	r6, r3, [sp, #80]	@ 0x50
 8007828:	441e      	add	r6, r3
 800782a:	f206 4332 	addw	r3, r6, #1074	@ 0x432
 800782e:	2b20      	cmp	r3, #32
 8007830:	bfc1      	itttt	gt
 8007832:	f1c3 0340 	rsbgt	r3, r3, #64	@ 0x40
 8007836:	fa08 f803 	lslgt.w	r8, r8, r3
 800783a:	f206 4312 	addwgt	r3, r6, #1042	@ 0x412
 800783e:	fa24 f303 	lsrgt.w	r3, r4, r3
 8007842:	bfd6      	itet	le
 8007844:	f1c3 0320 	rsble	r3, r3, #32
 8007848:	ea48 0003 	orrgt.w	r0, r8, r3
 800784c:	fa04 f003 	lslle.w	r0, r4, r3
 8007850:	f7f8 fdc8 	bl	80003e4 <__aeabi_ui2d>
 8007854:	2201      	movs	r2, #1
 8007856:	f1a1 73f8 	sub.w	r3, r1, #32505856	@ 0x1f00000
 800785a:	3e01      	subs	r6, #1
 800785c:	9212      	str	r2, [sp, #72]	@ 0x48
 800785e:	e774      	b.n	800774a <_dtoa_r+0x102>
 8007860:	2301      	movs	r3, #1
 8007862:	e7b5      	b.n	80077d0 <_dtoa_r+0x188>
 8007864:	900f      	str	r0, [sp, #60]	@ 0x3c
 8007866:	e7b4      	b.n	80077d2 <_dtoa_r+0x18a>
 8007868:	9b04      	ldr	r3, [sp, #16]
 800786a:	1bdb      	subs	r3, r3, r7
 800786c:	9304      	str	r3, [sp, #16]
 800786e:	427b      	negs	r3, r7
 8007870:	930a      	str	r3, [sp, #40]	@ 0x28
 8007872:	2300      	movs	r3, #0
 8007874:	930e      	str	r3, [sp, #56]	@ 0x38
 8007876:	e7c1      	b.n	80077fc <_dtoa_r+0x1b4>
 8007878:	2301      	movs	r3, #1
 800787a:	930b      	str	r3, [sp, #44]	@ 0x2c
 800787c:	9b21      	ldr	r3, [sp, #132]	@ 0x84
 800787e:	eb07 0b03 	add.w	fp, r7, r3
 8007882:	f10b 0301 	add.w	r3, fp, #1
 8007886:	2b01      	cmp	r3, #1
 8007888:	9308      	str	r3, [sp, #32]
 800788a:	bfb8      	it	lt
 800788c:	2301      	movlt	r3, #1
 800788e:	e006      	b.n	800789e <_dtoa_r+0x256>
 8007890:	2301      	movs	r3, #1
 8007892:	930b      	str	r3, [sp, #44]	@ 0x2c
 8007894:	9b21      	ldr	r3, [sp, #132]	@ 0x84
 8007896:	2b00      	cmp	r3, #0
 8007898:	dd28      	ble.n	80078ec <_dtoa_r+0x2a4>
 800789a:	469b      	mov	fp, r3
 800789c:	9308      	str	r3, [sp, #32]
 800789e:	2100      	movs	r1, #0
 80078a0:	2204      	movs	r2, #4
 80078a2:	f8d9 001c 	ldr.w	r0, [r9, #28]
 80078a6:	f102 0514 	add.w	r5, r2, #20
 80078aa:	429d      	cmp	r5, r3
 80078ac:	d926      	bls.n	80078fc <_dtoa_r+0x2b4>
 80078ae:	6041      	str	r1, [r0, #4]
 80078b0:	4648      	mov	r0, r9
 80078b2:	f000 fd9b 	bl	80083ec <_Balloc>
 80078b6:	4682      	mov	sl, r0
 80078b8:	2800      	cmp	r0, #0
 80078ba:	d143      	bne.n	8007944 <_dtoa_r+0x2fc>
 80078bc:	4602      	mov	r2, r0
 80078be:	f240 11af 	movw	r1, #431	@ 0x1af
 80078c2:	4b1f      	ldr	r3, [pc, #124]	@ (8007940 <_dtoa_r+0x2f8>)
 80078c4:	e6d4      	b.n	8007670 <_dtoa_r+0x28>
 80078c6:	2300      	movs	r3, #0
 80078c8:	e7e3      	b.n	8007892 <_dtoa_r+0x24a>
 80078ca:	2300      	movs	r3, #0
 80078cc:	e7d5      	b.n	800787a <_dtoa_r+0x232>
 80078ce:	2401      	movs	r4, #1
 80078d0:	2300      	movs	r3, #0
 80078d2:	940b      	str	r4, [sp, #44]	@ 0x2c
 80078d4:	9320      	str	r3, [sp, #128]	@ 0x80
 80078d6:	f04f 3bff 	mov.w	fp, #4294967295
 80078da:	2200      	movs	r2, #0
 80078dc:	2312      	movs	r3, #18
 80078de:	f8cd b020 	str.w	fp, [sp, #32]
 80078e2:	9221      	str	r2, [sp, #132]	@ 0x84
 80078e4:	e7db      	b.n	800789e <_dtoa_r+0x256>
 80078e6:	2301      	movs	r3, #1
 80078e8:	930b      	str	r3, [sp, #44]	@ 0x2c
 80078ea:	e7f4      	b.n	80078d6 <_dtoa_r+0x28e>
 80078ec:	f04f 0b01 	mov.w	fp, #1
 80078f0:	465b      	mov	r3, fp
 80078f2:	f8cd b020 	str.w	fp, [sp, #32]
 80078f6:	f8cd b084 	str.w	fp, [sp, #132]	@ 0x84
 80078fa:	e7d0      	b.n	800789e <_dtoa_r+0x256>
 80078fc:	3101      	adds	r1, #1
 80078fe:	0052      	lsls	r2, r2, #1
 8007900:	e7d1      	b.n	80078a6 <_dtoa_r+0x25e>
 8007902:	bf00      	nop
 8007904:	f3af 8000 	nop.w
 8007908:	636f4361 	.word	0x636f4361
 800790c:	3fd287a7 	.word	0x3fd287a7
 8007910:	8b60c8b3 	.word	0x8b60c8b3
 8007914:	3fc68a28 	.word	0x3fc68a28
 8007918:	509f79fb 	.word	0x509f79fb
 800791c:	3fd34413 	.word	0x3fd34413
 8007920:	08009c2d 	.word	0x08009c2d
 8007924:	08009c44 	.word	0x08009c44
 8007928:	7ff00000 	.word	0x7ff00000
 800792c:	08009c29 	.word	0x08009c29
 8007930:	0800972b 	.word	0x0800972b
 8007934:	0800972a 	.word	0x0800972a
 8007938:	3ff80000 	.word	0x3ff80000
 800793c:	08009eb8 	.word	0x08009eb8
 8007940:	08009c9c 	.word	0x08009c9c
 8007944:	f8d9 301c 	ldr.w	r3, [r9, #28]
 8007948:	6018      	str	r0, [r3, #0]
 800794a:	9b08      	ldr	r3, [sp, #32]
 800794c:	2b0e      	cmp	r3, #14
 800794e:	f200 80a1 	bhi.w	8007a94 <_dtoa_r+0x44c>
 8007952:	2c00      	cmp	r4, #0
 8007954:	f000 809e 	beq.w	8007a94 <_dtoa_r+0x44c>
 8007958:	2f00      	cmp	r7, #0
 800795a:	dd33      	ble.n	80079c4 <_dtoa_r+0x37c>
 800795c:	4b9c      	ldr	r3, [pc, #624]	@ (8007bd0 <_dtoa_r+0x588>)
 800795e:	f007 020f 	and.w	r2, r7, #15
 8007962:	eb03 03c2 	add.w	r3, r3, r2, lsl #3
 8007966:	05f8      	lsls	r0, r7, #23
 8007968:	e9d3 3400 	ldrd	r3, r4, [r3]
 800796c:	e9cd 3410 	strd	r3, r4, [sp, #64]	@ 0x40
 8007970:	ea4f 1427 	mov.w	r4, r7, asr #4
 8007974:	d516      	bpl.n	80079a4 <_dtoa_r+0x35c>
 8007976:	e9dd 010c 	ldrd	r0, r1, [sp, #48]	@ 0x30
 800797a:	4b96      	ldr	r3, [pc, #600]	@ (8007bd4 <_dtoa_r+0x58c>)
 800797c:	2603      	movs	r6, #3
 800797e:	e9d3 2308 	ldrd	r2, r3, [r3, #32]
 8007982:	f7f8 fed3 	bl	800072c <__aeabi_ddiv>
 8007986:	e9cd 0106 	strd	r0, r1, [sp, #24]
 800798a:	f004 040f 	and.w	r4, r4, #15
 800798e:	4d91      	ldr	r5, [pc, #580]	@ (8007bd4 <_dtoa_r+0x58c>)
 8007990:	b954      	cbnz	r4, 80079a8 <_dtoa_r+0x360>
 8007992:	e9dd 2310 	ldrd	r2, r3, [sp, #64]	@ 0x40
 8007996:	e9dd 0106 	ldrd	r0, r1, [sp, #24]
 800799a:	f7f8 fec7 	bl	800072c <__aeabi_ddiv>
 800799e:	e9cd 0106 	strd	r0, r1, [sp, #24]
 80079a2:	e028      	b.n	80079f6 <_dtoa_r+0x3ae>
 80079a4:	2602      	movs	r6, #2
 80079a6:	e7f2      	b.n	800798e <_dtoa_r+0x346>
 80079a8:	07e1      	lsls	r1, r4, #31
 80079aa:	d508      	bpl.n	80079be <_dtoa_r+0x376>
 80079ac:	e9dd 0110 	ldrd	r0, r1, [sp, #64]	@ 0x40
 80079b0:	e9d5 2300 	ldrd	r2, r3, [r5]
 80079b4:	f7f8 fd90 	bl	80004d8 <__aeabi_dmul>
 80079b8:	e9cd 0110 	strd	r0, r1, [sp, #64]	@ 0x40
 80079bc:	3601      	adds	r6, #1
 80079be:	1064      	asrs	r4, r4, #1
 80079c0:	3508      	adds	r5, #8
 80079c2:	e7e5      	b.n	8007990 <_dtoa_r+0x348>
 80079c4:	f000 80af 	beq.w	8007b26 <_dtoa_r+0x4de>
 80079c8:	e9dd 010c 	ldrd	r0, r1, [sp, #48]	@ 0x30
 80079cc:	427c      	negs	r4, r7
 80079ce:	4b80      	ldr	r3, [pc, #512]	@ (8007bd0 <_dtoa_r+0x588>)
 80079d0:	f004 020f 	and.w	r2, r4, #15
 80079d4:	eb03 03c2 	add.w	r3, r3, r2, lsl #3
 80079d8:	e9d3 2300 	ldrd	r2, r3, [r3]
 80079dc:	f7f8 fd7c 	bl	80004d8 <__aeabi_dmul>
 80079e0:	2602      	movs	r6, #2
 80079e2:	2300      	movs	r3, #0
 80079e4:	e9cd 0106 	strd	r0, r1, [sp, #24]
 80079e8:	4d7a      	ldr	r5, [pc, #488]	@ (8007bd4 <_dtoa_r+0x58c>)
 80079ea:	1124      	asrs	r4, r4, #4
 80079ec:	2c00      	cmp	r4, #0
 80079ee:	f040 808f 	bne.w	8007b10 <_dtoa_r+0x4c8>
 80079f2:	2b00      	cmp	r3, #0
 80079f4:	d1d3      	bne.n	800799e <_dtoa_r+0x356>
 80079f6:	e9dd 4506 	ldrd	r4, r5, [sp, #24]
 80079fa:	9b0f      	ldr	r3, [sp, #60]	@ 0x3c
 80079fc:	2b00      	cmp	r3, #0
 80079fe:	f000 8094 	beq.w	8007b2a <_dtoa_r+0x4e2>
 8007a02:	2200      	movs	r2, #0
 8007a04:	4620      	mov	r0, r4
 8007a06:	4629      	mov	r1, r5
 8007a08:	4b73      	ldr	r3, [pc, #460]	@ (8007bd8 <_dtoa_r+0x590>)
 8007a0a:	f7f8 ffd7 	bl	80009bc <__aeabi_dcmplt>
 8007a0e:	2800      	cmp	r0, #0
 8007a10:	f000 808b 	beq.w	8007b2a <_dtoa_r+0x4e2>
 8007a14:	9b08      	ldr	r3, [sp, #32]
 8007a16:	2b00      	cmp	r3, #0
 8007a18:	f000 8087 	beq.w	8007b2a <_dtoa_r+0x4e2>
 8007a1c:	f1bb 0f00 	cmp.w	fp, #0
 8007a20:	dd34      	ble.n	8007a8c <_dtoa_r+0x444>
 8007a22:	4620      	mov	r0, r4
 8007a24:	2200      	movs	r2, #0
 8007a26:	4629      	mov	r1, r5
 8007a28:	4b6c      	ldr	r3, [pc, #432]	@ (8007bdc <_dtoa_r+0x594>)
 8007a2a:	f7f8 fd55 	bl	80004d8 <__aeabi_dmul>
 8007a2e:	465c      	mov	r4, fp
 8007a30:	e9cd 0106 	strd	r0, r1, [sp, #24]
 8007a34:	f107 38ff 	add.w	r8, r7, #4294967295
 8007a38:	3601      	adds	r6, #1
 8007a3a:	4630      	mov	r0, r6
 8007a3c:	f7f8 fce2 	bl	8000404 <__aeabi_i2d>
 8007a40:	e9dd 2306 	ldrd	r2, r3, [sp, #24]
 8007a44:	f7f8 fd48 	bl	80004d8 <__aeabi_dmul>
 8007a48:	2200      	movs	r2, #0
 8007a4a:	4b65      	ldr	r3, [pc, #404]	@ (8007be0 <_dtoa_r+0x598>)
 8007a4c:	f7f8 fb8e 	bl	800016c <__adddf3>
 8007a50:	4605      	mov	r5, r0
 8007a52:	f1a1 7650 	sub.w	r6, r1, #54525952	@ 0x3400000
 8007a56:	2c00      	cmp	r4, #0
 8007a58:	d16a      	bne.n	8007b30 <_dtoa_r+0x4e8>
 8007a5a:	e9dd 0106 	ldrd	r0, r1, [sp, #24]
 8007a5e:	2200      	movs	r2, #0
 8007a60:	4b60      	ldr	r3, [pc, #384]	@ (8007be4 <_dtoa_r+0x59c>)
 8007a62:	f7f8 fb81 	bl	8000168 <__aeabi_dsub>
 8007a66:	4602      	mov	r2, r0
 8007a68:	460b      	mov	r3, r1
 8007a6a:	e9cd 2306 	strd	r2, r3, [sp, #24]
 8007a6e:	462a      	mov	r2, r5
 8007a70:	4633      	mov	r3, r6
 8007a72:	f7f8 ffc1 	bl	80009f8 <__aeabi_dcmpgt>
 8007a76:	2800      	cmp	r0, #0
 8007a78:	f040 8298 	bne.w	8007fac <_dtoa_r+0x964>
 8007a7c:	e9dd 0106 	ldrd	r0, r1, [sp, #24]
 8007a80:	462a      	mov	r2, r5
 8007a82:	f106 4300 	add.w	r3, r6, #2147483648	@ 0x80000000
 8007a86:	f7f8 ff99 	bl	80009bc <__aeabi_dcmplt>
 8007a8a:	bb38      	cbnz	r0, 8007adc <_dtoa_r+0x494>
 8007a8c:	e9dd 340c 	ldrd	r3, r4, [sp, #48]	@ 0x30
 8007a90:	e9cd 3406 	strd	r3, r4, [sp, #24]
 8007a94:	9b15      	ldr	r3, [sp, #84]	@ 0x54
 8007a96:	2b00      	cmp	r3, #0
 8007a98:	f2c0 8157 	blt.w	8007d4a <_dtoa_r+0x702>
 8007a9c:	2f0e      	cmp	r7, #14
 8007a9e:	f300 8154 	bgt.w	8007d4a <_dtoa_r+0x702>
 8007aa2:	4b4b      	ldr	r3, [pc, #300]	@ (8007bd0 <_dtoa_r+0x588>)
 8007aa4:	eb03 03c7 	add.w	r3, r3, r7, lsl #3
 8007aa8:	e9d3 3400 	ldrd	r3, r4, [r3]
 8007aac:	e9cd 3404 	strd	r3, r4, [sp, #16]
 8007ab0:	9b21      	ldr	r3, [sp, #132]	@ 0x84
 8007ab2:	2b00      	cmp	r3, #0
 8007ab4:	f280 80e5 	bge.w	8007c82 <_dtoa_r+0x63a>
 8007ab8:	9b08      	ldr	r3, [sp, #32]
 8007aba:	2b00      	cmp	r3, #0
 8007abc:	f300 80e1 	bgt.w	8007c82 <_dtoa_r+0x63a>
 8007ac0:	d10c      	bne.n	8007adc <_dtoa_r+0x494>
 8007ac2:	e9dd 0104 	ldrd	r0, r1, [sp, #16]
 8007ac6:	2200      	movs	r2, #0
 8007ac8:	4b46      	ldr	r3, [pc, #280]	@ (8007be4 <_dtoa_r+0x59c>)
 8007aca:	f7f8 fd05 	bl	80004d8 <__aeabi_dmul>
 8007ace:	e9dd 2306 	ldrd	r2, r3, [sp, #24]
 8007ad2:	f7f8 ff87 	bl	80009e4 <__aeabi_dcmpge>
 8007ad6:	2800      	cmp	r0, #0
 8007ad8:	f000 8266 	beq.w	8007fa8 <_dtoa_r+0x960>
 8007adc:	2400      	movs	r4, #0
 8007ade:	4625      	mov	r5, r4
 8007ae0:	9b21      	ldr	r3, [sp, #132]	@ 0x84
 8007ae2:	4656      	mov	r6, sl
 8007ae4:	ea6f 0803 	mvn.w	r8, r3
 8007ae8:	2700      	movs	r7, #0
 8007aea:	4621      	mov	r1, r4
 8007aec:	4648      	mov	r0, r9
 8007aee:	f000 fcbd 	bl	800846c <_Bfree>
 8007af2:	2d00      	cmp	r5, #0
 8007af4:	f000 80bd 	beq.w	8007c72 <_dtoa_r+0x62a>
 8007af8:	b12f      	cbz	r7, 8007b06 <_dtoa_r+0x4be>
 8007afa:	42af      	cmp	r7, r5
 8007afc:	d003      	beq.n	8007b06 <_dtoa_r+0x4be>
 8007afe:	4639      	mov	r1, r7
 8007b00:	4648      	mov	r0, r9
 8007b02:	f000 fcb3 	bl	800846c <_Bfree>
 8007b06:	4629      	mov	r1, r5
 8007b08:	4648      	mov	r0, r9
 8007b0a:	f000 fcaf 	bl	800846c <_Bfree>
 8007b0e:	e0b0      	b.n	8007c72 <_dtoa_r+0x62a>
 8007b10:	07e2      	lsls	r2, r4, #31
 8007b12:	d505      	bpl.n	8007b20 <_dtoa_r+0x4d8>
 8007b14:	e9d5 2300 	ldrd	r2, r3, [r5]
 8007b18:	f7f8 fcde 	bl	80004d8 <__aeabi_dmul>
 8007b1c:	2301      	movs	r3, #1
 8007b1e:	3601      	adds	r6, #1
 8007b20:	1064      	asrs	r4, r4, #1
 8007b22:	3508      	adds	r5, #8
 8007b24:	e762      	b.n	80079ec <_dtoa_r+0x3a4>
 8007b26:	2602      	movs	r6, #2
 8007b28:	e765      	b.n	80079f6 <_dtoa_r+0x3ae>
 8007b2a:	46b8      	mov	r8, r7
 8007b2c:	9c08      	ldr	r4, [sp, #32]
 8007b2e:	e784      	b.n	8007a3a <_dtoa_r+0x3f2>
 8007b30:	4b27      	ldr	r3, [pc, #156]	@ (8007bd0 <_dtoa_r+0x588>)
 8007b32:	990b      	ldr	r1, [sp, #44]	@ 0x2c
 8007b34:	eb03 03c4 	add.w	r3, r3, r4, lsl #3
 8007b38:	e953 2302 	ldrd	r2, r3, [r3, #-8]
 8007b3c:	4454      	add	r4, sl
 8007b3e:	2900      	cmp	r1, #0
 8007b40:	d054      	beq.n	8007bec <_dtoa_r+0x5a4>
 8007b42:	2000      	movs	r0, #0
 8007b44:	4928      	ldr	r1, [pc, #160]	@ (8007be8 <_dtoa_r+0x5a0>)
 8007b46:	f7f8 fdf1 	bl	800072c <__aeabi_ddiv>
 8007b4a:	4633      	mov	r3, r6
 8007b4c:	462a      	mov	r2, r5
 8007b4e:	f7f8 fb0b 	bl	8000168 <__aeabi_dsub>
 8007b52:	4656      	mov	r6, sl
 8007b54:	e9cd 0110 	strd	r0, r1, [sp, #64]	@ 0x40
 8007b58:	e9dd 0106 	ldrd	r0, r1, [sp, #24]
 8007b5c:	f7f8 ff6c 	bl	8000a38 <__aeabi_d2iz>
 8007b60:	4605      	mov	r5, r0
 8007b62:	f7f8 fc4f 	bl	8000404 <__aeabi_i2d>
 8007b66:	4602      	mov	r2, r0
 8007b68:	460b      	mov	r3, r1
 8007b6a:	e9dd 0106 	ldrd	r0, r1, [sp, #24]
 8007b6e:	f7f8 fafb 	bl	8000168 <__aeabi_dsub>
 8007b72:	4602      	mov	r2, r0
 8007b74:	460b      	mov	r3, r1
 8007b76:	3530      	adds	r5, #48	@ 0x30
 8007b78:	e9cd 2306 	strd	r2, r3, [sp, #24]
 8007b7c:	e9dd 2310 	ldrd	r2, r3, [sp, #64]	@ 0x40
 8007b80:	f806 5b01 	strb.w	r5, [r6], #1
 8007b84:	f7f8 ff1a 	bl	80009bc <__aeabi_dcmplt>
 8007b88:	2800      	cmp	r0, #0
 8007b8a:	d172      	bne.n	8007c72 <_dtoa_r+0x62a>
 8007b8c:	e9dd 2306 	ldrd	r2, r3, [sp, #24]
 8007b90:	2000      	movs	r0, #0
 8007b92:	4911      	ldr	r1, [pc, #68]	@ (8007bd8 <_dtoa_r+0x590>)
 8007b94:	f7f8 fae8 	bl	8000168 <__aeabi_dsub>
 8007b98:	e9dd 2310 	ldrd	r2, r3, [sp, #64]	@ 0x40
 8007b9c:	f7f8 ff0e 	bl	80009bc <__aeabi_dcmplt>
 8007ba0:	2800      	cmp	r0, #0
 8007ba2:	f040 80b4 	bne.w	8007d0e <_dtoa_r+0x6c6>
 8007ba6:	42a6      	cmp	r6, r4
 8007ba8:	f43f af70 	beq.w	8007a8c <_dtoa_r+0x444>
 8007bac:	e9dd 0110 	ldrd	r0, r1, [sp, #64]	@ 0x40
 8007bb0:	2200      	movs	r2, #0
 8007bb2:	4b0a      	ldr	r3, [pc, #40]	@ (8007bdc <_dtoa_r+0x594>)
 8007bb4:	f7f8 fc90 	bl	80004d8 <__aeabi_dmul>
 8007bb8:	2200      	movs	r2, #0
 8007bba:	e9cd 0110 	strd	r0, r1, [sp, #64]	@ 0x40
 8007bbe:	e9dd 0106 	ldrd	r0, r1, [sp, #24]
 8007bc2:	4b06      	ldr	r3, [pc, #24]	@ (8007bdc <_dtoa_r+0x594>)
 8007bc4:	f7f8 fc88 	bl	80004d8 <__aeabi_dmul>
 8007bc8:	e9cd 0106 	strd	r0, r1, [sp, #24]
 8007bcc:	e7c4      	b.n	8007b58 <_dtoa_r+0x510>
 8007bce:	bf00      	nop
 8007bd0:	08009eb8 	.word	0x08009eb8
 8007bd4:	08009e90 	.word	0x08009e90
 8007bd8:	3ff00000 	.word	0x3ff00000
 8007bdc:	40240000 	.word	0x40240000
 8007be0:	401c0000 	.word	0x401c0000
 8007be4:	40140000 	.word	0x40140000
 8007be8:	3fe00000 	.word	0x3fe00000
 8007bec:	4631      	mov	r1, r6
 8007bee:	4628      	mov	r0, r5
 8007bf0:	f7f8 fc72 	bl	80004d8 <__aeabi_dmul>
 8007bf4:	4656      	mov	r6, sl
 8007bf6:	e9cd 0110 	strd	r0, r1, [sp, #64]	@ 0x40
 8007bfa:	9413      	str	r4, [sp, #76]	@ 0x4c
 8007bfc:	e9dd 0106 	ldrd	r0, r1, [sp, #24]
 8007c00:	f7f8 ff1a 	bl	8000a38 <__aeabi_d2iz>
 8007c04:	4605      	mov	r5, r0
 8007c06:	f7f8 fbfd 	bl	8000404 <__aeabi_i2d>
 8007c0a:	4602      	mov	r2, r0
 8007c0c:	460b      	mov	r3, r1
 8007c0e:	e9dd 0106 	ldrd	r0, r1, [sp, #24]
 8007c12:	f7f8 faa9 	bl	8000168 <__aeabi_dsub>
 8007c16:	4602      	mov	r2, r0
 8007c18:	460b      	mov	r3, r1
 8007c1a:	3530      	adds	r5, #48	@ 0x30
 8007c1c:	f806 5b01 	strb.w	r5, [r6], #1
 8007c20:	42a6      	cmp	r6, r4
 8007c22:	e9cd 2306 	strd	r2, r3, [sp, #24]
 8007c26:	f04f 0200 	mov.w	r2, #0
 8007c2a:	d124      	bne.n	8007c76 <_dtoa_r+0x62e>
 8007c2c:	e9dd 0110 	ldrd	r0, r1, [sp, #64]	@ 0x40
 8007c30:	4bae      	ldr	r3, [pc, #696]	@ (8007eec <_dtoa_r+0x8a4>)
 8007c32:	f7f8 fa9b 	bl	800016c <__adddf3>
 8007c36:	4602      	mov	r2, r0
 8007c38:	460b      	mov	r3, r1
 8007c3a:	e9dd 0106 	ldrd	r0, r1, [sp, #24]
 8007c3e:	f7f8 fedb 	bl	80009f8 <__aeabi_dcmpgt>
 8007c42:	2800      	cmp	r0, #0
 8007c44:	d163      	bne.n	8007d0e <_dtoa_r+0x6c6>
 8007c46:	e9dd 2310 	ldrd	r2, r3, [sp, #64]	@ 0x40
 8007c4a:	2000      	movs	r0, #0
 8007c4c:	49a7      	ldr	r1, [pc, #668]	@ (8007eec <_dtoa_r+0x8a4>)
 8007c4e:	f7f8 fa8b 	bl	8000168 <__aeabi_dsub>
 8007c52:	4602      	mov	r2, r0
 8007c54:	460b      	mov	r3, r1
 8007c56:	e9dd 0106 	ldrd	r0, r1, [sp, #24]
 8007c5a:	f7f8 feaf 	bl	80009bc <__aeabi_dcmplt>
 8007c5e:	2800      	cmp	r0, #0
 8007c60:	f43f af14 	beq.w	8007a8c <_dtoa_r+0x444>
 8007c64:	9e13      	ldr	r6, [sp, #76]	@ 0x4c
 8007c66:	1e73      	subs	r3, r6, #1
 8007c68:	9313      	str	r3, [sp, #76]	@ 0x4c
 8007c6a:	f816 3c01 	ldrb.w	r3, [r6, #-1]
 8007c6e:	2b30      	cmp	r3, #48	@ 0x30
 8007c70:	d0f8      	beq.n	8007c64 <_dtoa_r+0x61c>
 8007c72:	4647      	mov	r7, r8
 8007c74:	e03b      	b.n	8007cee <_dtoa_r+0x6a6>
 8007c76:	4b9e      	ldr	r3, [pc, #632]	@ (8007ef0 <_dtoa_r+0x8a8>)
 8007c78:	f7f8 fc2e 	bl	80004d8 <__aeabi_dmul>
 8007c7c:	e9cd 0106 	strd	r0, r1, [sp, #24]
 8007c80:	e7bc      	b.n	8007bfc <_dtoa_r+0x5b4>
 8007c82:	4656      	mov	r6, sl
 8007c84:	e9dd 4506 	ldrd	r4, r5, [sp, #24]
 8007c88:	e9dd 2304 	ldrd	r2, r3, [sp, #16]
 8007c8c:	4620      	mov	r0, r4
 8007c8e:	4629      	mov	r1, r5
 8007c90:	f7f8 fd4c 	bl	800072c <__aeabi_ddiv>
 8007c94:	f7f8 fed0 	bl	8000a38 <__aeabi_d2iz>
 8007c98:	4680      	mov	r8, r0
 8007c9a:	f7f8 fbb3 	bl	8000404 <__aeabi_i2d>
 8007c9e:	e9dd 2304 	ldrd	r2, r3, [sp, #16]
 8007ca2:	f7f8 fc19 	bl	80004d8 <__aeabi_dmul>
 8007ca6:	4602      	mov	r2, r0
 8007ca8:	460b      	mov	r3, r1
 8007caa:	4620      	mov	r0, r4
 8007cac:	4629      	mov	r1, r5
 8007cae:	f7f8 fa5b 	bl	8000168 <__aeabi_dsub>
 8007cb2:	f108 0430 	add.w	r4, r8, #48	@ 0x30
 8007cb6:	9d08      	ldr	r5, [sp, #32]
 8007cb8:	f806 4b01 	strb.w	r4, [r6], #1
 8007cbc:	eba6 040a 	sub.w	r4, r6, sl
 8007cc0:	42a5      	cmp	r5, r4
 8007cc2:	4602      	mov	r2, r0
 8007cc4:	460b      	mov	r3, r1
 8007cc6:	d133      	bne.n	8007d30 <_dtoa_r+0x6e8>
 8007cc8:	f7f8 fa50 	bl	800016c <__adddf3>
 8007ccc:	e9dd 2304 	ldrd	r2, r3, [sp, #16]
 8007cd0:	4604      	mov	r4, r0
 8007cd2:	460d      	mov	r5, r1
 8007cd4:	f7f8 fe90 	bl	80009f8 <__aeabi_dcmpgt>
 8007cd8:	b9c0      	cbnz	r0, 8007d0c <_dtoa_r+0x6c4>
 8007cda:	e9dd 2304 	ldrd	r2, r3, [sp, #16]
 8007cde:	4620      	mov	r0, r4
 8007ce0:	4629      	mov	r1, r5
 8007ce2:	f7f8 fe61 	bl	80009a8 <__aeabi_dcmpeq>
 8007ce6:	b110      	cbz	r0, 8007cee <_dtoa_r+0x6a6>
 8007ce8:	f018 0f01 	tst.w	r8, #1
 8007cec:	d10e      	bne.n	8007d0c <_dtoa_r+0x6c4>
 8007cee:	4648      	mov	r0, r9
 8007cf0:	9903      	ldr	r1, [sp, #12]
 8007cf2:	f000 fbbb 	bl	800846c <_Bfree>
 8007cf6:	2300      	movs	r3, #0
 8007cf8:	7033      	strb	r3, [r6, #0]
 8007cfa:	9b22      	ldr	r3, [sp, #136]	@ 0x88
 8007cfc:	3701      	adds	r7, #1
 8007cfe:	601f      	str	r7, [r3, #0]
 8007d00:	9b24      	ldr	r3, [sp, #144]	@ 0x90
 8007d02:	2b00      	cmp	r3, #0
 8007d04:	f000 824b 	beq.w	800819e <_dtoa_r+0xb56>
 8007d08:	601e      	str	r6, [r3, #0]
 8007d0a:	e248      	b.n	800819e <_dtoa_r+0xb56>
 8007d0c:	46b8      	mov	r8, r7
 8007d0e:	4633      	mov	r3, r6
 8007d10:	461e      	mov	r6, r3
 8007d12:	f813 2d01 	ldrb.w	r2, [r3, #-1]!
 8007d16:	2a39      	cmp	r2, #57	@ 0x39
 8007d18:	d106      	bne.n	8007d28 <_dtoa_r+0x6e0>
 8007d1a:	459a      	cmp	sl, r3
 8007d1c:	d1f8      	bne.n	8007d10 <_dtoa_r+0x6c8>
 8007d1e:	2230      	movs	r2, #48	@ 0x30
 8007d20:	f108 0801 	add.w	r8, r8, #1
 8007d24:	f88a 2000 	strb.w	r2, [sl]
 8007d28:	781a      	ldrb	r2, [r3, #0]
 8007d2a:	3201      	adds	r2, #1
 8007d2c:	701a      	strb	r2, [r3, #0]
 8007d2e:	e7a0      	b.n	8007c72 <_dtoa_r+0x62a>
 8007d30:	2200      	movs	r2, #0
 8007d32:	4b6f      	ldr	r3, [pc, #444]	@ (8007ef0 <_dtoa_r+0x8a8>)
 8007d34:	f7f8 fbd0 	bl	80004d8 <__aeabi_dmul>
 8007d38:	2200      	movs	r2, #0
 8007d3a:	2300      	movs	r3, #0
 8007d3c:	4604      	mov	r4, r0
 8007d3e:	460d      	mov	r5, r1
 8007d40:	f7f8 fe32 	bl	80009a8 <__aeabi_dcmpeq>
 8007d44:	2800      	cmp	r0, #0
 8007d46:	d09f      	beq.n	8007c88 <_dtoa_r+0x640>
 8007d48:	e7d1      	b.n	8007cee <_dtoa_r+0x6a6>
 8007d4a:	9a0b      	ldr	r2, [sp, #44]	@ 0x2c
 8007d4c:	2a00      	cmp	r2, #0
 8007d4e:	f000 80ea 	beq.w	8007f26 <_dtoa_r+0x8de>
 8007d52:	9a20      	ldr	r2, [sp, #128]	@ 0x80
 8007d54:	2a01      	cmp	r2, #1
 8007d56:	f300 80cd 	bgt.w	8007ef4 <_dtoa_r+0x8ac>
 8007d5a:	9a12      	ldr	r2, [sp, #72]	@ 0x48
 8007d5c:	2a00      	cmp	r2, #0
 8007d5e:	f000 80c1 	beq.w	8007ee4 <_dtoa_r+0x89c>
 8007d62:	f203 4333 	addw	r3, r3, #1075	@ 0x433
 8007d66:	9c0a      	ldr	r4, [sp, #40]	@ 0x28
 8007d68:	9e04      	ldr	r6, [sp, #16]
 8007d6a:	9a04      	ldr	r2, [sp, #16]
 8007d6c:	2101      	movs	r1, #1
 8007d6e:	441a      	add	r2, r3
 8007d70:	9204      	str	r2, [sp, #16]
 8007d72:	9a09      	ldr	r2, [sp, #36]	@ 0x24
 8007d74:	4648      	mov	r0, r9
 8007d76:	441a      	add	r2, r3
 8007d78:	9209      	str	r2, [sp, #36]	@ 0x24
 8007d7a:	f000 fc2b 	bl	80085d4 <__i2b>
 8007d7e:	4605      	mov	r5, r0
 8007d80:	b166      	cbz	r6, 8007d9c <_dtoa_r+0x754>
 8007d82:	9b09      	ldr	r3, [sp, #36]	@ 0x24
 8007d84:	2b00      	cmp	r3, #0
 8007d86:	dd09      	ble.n	8007d9c <_dtoa_r+0x754>
 8007d88:	42b3      	cmp	r3, r6
 8007d8a:	bfa8      	it	ge
 8007d8c:	4633      	movge	r3, r6
 8007d8e:	9a04      	ldr	r2, [sp, #16]
 8007d90:	1af6      	subs	r6, r6, r3
 8007d92:	1ad2      	subs	r2, r2, r3
 8007d94:	9204      	str	r2, [sp, #16]
 8007d96:	9a09      	ldr	r2, [sp, #36]	@ 0x24
 8007d98:	1ad3      	subs	r3, r2, r3
 8007d9a:	9309      	str	r3, [sp, #36]	@ 0x24
 8007d9c:	9b0a      	ldr	r3, [sp, #40]	@ 0x28
 8007d9e:	b30b      	cbz	r3, 8007de4 <_dtoa_r+0x79c>
 8007da0:	9b0b      	ldr	r3, [sp, #44]	@ 0x2c
 8007da2:	2b00      	cmp	r3, #0
 8007da4:	f000 80c6 	beq.w	8007f34 <_dtoa_r+0x8ec>
 8007da8:	2c00      	cmp	r4, #0
 8007daa:	f000 80c0 	beq.w	8007f2e <_dtoa_r+0x8e6>
 8007dae:	4629      	mov	r1, r5
 8007db0:	4622      	mov	r2, r4
 8007db2:	4648      	mov	r0, r9
 8007db4:	f000 fcc6 	bl	8008744 <__pow5mult>
 8007db8:	9a03      	ldr	r2, [sp, #12]
 8007dba:	4601      	mov	r1, r0
 8007dbc:	4605      	mov	r5, r0
 8007dbe:	4648      	mov	r0, r9
 8007dc0:	f000 fc1e 	bl	8008600 <__multiply>
 8007dc4:	9903      	ldr	r1, [sp, #12]
 8007dc6:	4680      	mov	r8, r0
 8007dc8:	4648      	mov	r0, r9
 8007dca:	f000 fb4f 	bl	800846c <_Bfree>
 8007dce:	9b0a      	ldr	r3, [sp, #40]	@ 0x28
 8007dd0:	1b1b      	subs	r3, r3, r4
 8007dd2:	930a      	str	r3, [sp, #40]	@ 0x28
 8007dd4:	f000 80b1 	beq.w	8007f3a <_dtoa_r+0x8f2>
 8007dd8:	4641      	mov	r1, r8
 8007dda:	9a0a      	ldr	r2, [sp, #40]	@ 0x28
 8007ddc:	4648      	mov	r0, r9
 8007dde:	f000 fcb1 	bl	8008744 <__pow5mult>
 8007de2:	9003      	str	r0, [sp, #12]
 8007de4:	2101      	movs	r1, #1
 8007de6:	4648      	mov	r0, r9
 8007de8:	f000 fbf4 	bl	80085d4 <__i2b>
 8007dec:	9b0e      	ldr	r3, [sp, #56]	@ 0x38
 8007dee:	4604      	mov	r4, r0
 8007df0:	2b00      	cmp	r3, #0
 8007df2:	f000 81d8 	beq.w	80081a6 <_dtoa_r+0xb5e>
 8007df6:	461a      	mov	r2, r3
 8007df8:	4601      	mov	r1, r0
 8007dfa:	4648      	mov	r0, r9
 8007dfc:	f000 fca2 	bl	8008744 <__pow5mult>
 8007e00:	9b20      	ldr	r3, [sp, #128]	@ 0x80
 8007e02:	4604      	mov	r4, r0
 8007e04:	2b01      	cmp	r3, #1
 8007e06:	f300 809f 	bgt.w	8007f48 <_dtoa_r+0x900>
 8007e0a:	9b06      	ldr	r3, [sp, #24]
 8007e0c:	2b00      	cmp	r3, #0
 8007e0e:	f040 8097 	bne.w	8007f40 <_dtoa_r+0x8f8>
 8007e12:	9b07      	ldr	r3, [sp, #28]
 8007e14:	f3c3 0313 	ubfx	r3, r3, #0, #20
 8007e18:	2b00      	cmp	r3, #0
 8007e1a:	f040 8093 	bne.w	8007f44 <_dtoa_r+0x8fc>
 8007e1e:	9b07      	ldr	r3, [sp, #28]
 8007e20:	f023 4300 	bic.w	r3, r3, #2147483648	@ 0x80000000
 8007e24:	0d1b      	lsrs	r3, r3, #20
 8007e26:	051b      	lsls	r3, r3, #20
 8007e28:	b133      	cbz	r3, 8007e38 <_dtoa_r+0x7f0>
 8007e2a:	9b04      	ldr	r3, [sp, #16]
 8007e2c:	3301      	adds	r3, #1
 8007e2e:	9304      	str	r3, [sp, #16]
 8007e30:	9b09      	ldr	r3, [sp, #36]	@ 0x24
 8007e32:	3301      	adds	r3, #1
 8007e34:	9309      	str	r3, [sp, #36]	@ 0x24
 8007e36:	2301      	movs	r3, #1
 8007e38:	930a      	str	r3, [sp, #40]	@ 0x28
 8007e3a:	9b0e      	ldr	r3, [sp, #56]	@ 0x38
 8007e3c:	2b00      	cmp	r3, #0
 8007e3e:	f000 81b8 	beq.w	80081b2 <_dtoa_r+0xb6a>
 8007e42:	6923      	ldr	r3, [r4, #16]
 8007e44:	eb04 0383 	add.w	r3, r4, r3, lsl #2
 8007e48:	6918      	ldr	r0, [r3, #16]
 8007e4a:	f000 fb77 	bl	800853c <__hi0bits>
 8007e4e:	f1c0 0020 	rsb	r0, r0, #32
 8007e52:	9b09      	ldr	r3, [sp, #36]	@ 0x24
 8007e54:	4418      	add	r0, r3
 8007e56:	f010 001f 	ands.w	r0, r0, #31
 8007e5a:	f000 8082 	beq.w	8007f62 <_dtoa_r+0x91a>
 8007e5e:	f1c0 0320 	rsb	r3, r0, #32
 8007e62:	2b04      	cmp	r3, #4
 8007e64:	dd73      	ble.n	8007f4e <_dtoa_r+0x906>
 8007e66:	9b04      	ldr	r3, [sp, #16]
 8007e68:	f1c0 001c 	rsb	r0, r0, #28
 8007e6c:	4403      	add	r3, r0
 8007e6e:	9304      	str	r3, [sp, #16]
 8007e70:	9b09      	ldr	r3, [sp, #36]	@ 0x24
 8007e72:	4406      	add	r6, r0
 8007e74:	4403      	add	r3, r0
 8007e76:	9309      	str	r3, [sp, #36]	@ 0x24
 8007e78:	9b04      	ldr	r3, [sp, #16]
 8007e7a:	2b00      	cmp	r3, #0
 8007e7c:	dd05      	ble.n	8007e8a <_dtoa_r+0x842>
 8007e7e:	461a      	mov	r2, r3
 8007e80:	4648      	mov	r0, r9
 8007e82:	9903      	ldr	r1, [sp, #12]
 8007e84:	f000 fcb8 	bl	80087f8 <__lshift>
 8007e88:	9003      	str	r0, [sp, #12]
 8007e8a:	9b09      	ldr	r3, [sp, #36]	@ 0x24
 8007e8c:	2b00      	cmp	r3, #0
 8007e8e:	dd05      	ble.n	8007e9c <_dtoa_r+0x854>
 8007e90:	4621      	mov	r1, r4
 8007e92:	461a      	mov	r2, r3
 8007e94:	4648      	mov	r0, r9
 8007e96:	f000 fcaf 	bl	80087f8 <__lshift>
 8007e9a:	4604      	mov	r4, r0
 8007e9c:	9b0f      	ldr	r3, [sp, #60]	@ 0x3c
 8007e9e:	2b00      	cmp	r3, #0
 8007ea0:	d061      	beq.n	8007f66 <_dtoa_r+0x91e>
 8007ea2:	4621      	mov	r1, r4
 8007ea4:	9803      	ldr	r0, [sp, #12]
 8007ea6:	f000 fd13 	bl	80088d0 <__mcmp>
 8007eaa:	2800      	cmp	r0, #0
 8007eac:	da5b      	bge.n	8007f66 <_dtoa_r+0x91e>
 8007eae:	2300      	movs	r3, #0
 8007eb0:	220a      	movs	r2, #10
 8007eb2:	4648      	mov	r0, r9
 8007eb4:	9903      	ldr	r1, [sp, #12]
 8007eb6:	f000 fafb 	bl	80084b0 <__multadd>
 8007eba:	9b0b      	ldr	r3, [sp, #44]	@ 0x2c
 8007ebc:	f107 38ff 	add.w	r8, r7, #4294967295
 8007ec0:	9003      	str	r0, [sp, #12]
 8007ec2:	2b00      	cmp	r3, #0
 8007ec4:	f000 8177 	beq.w	80081b6 <_dtoa_r+0xb6e>
 8007ec8:	4629      	mov	r1, r5
 8007eca:	2300      	movs	r3, #0
 8007ecc:	220a      	movs	r2, #10
 8007ece:	4648      	mov	r0, r9
 8007ed0:	f000 faee 	bl	80084b0 <__multadd>
 8007ed4:	f1bb 0f00 	cmp.w	fp, #0
 8007ed8:	4605      	mov	r5, r0
 8007eda:	dc6f      	bgt.n	8007fbc <_dtoa_r+0x974>
 8007edc:	9b20      	ldr	r3, [sp, #128]	@ 0x80
 8007ede:	2b02      	cmp	r3, #2
 8007ee0:	dc49      	bgt.n	8007f76 <_dtoa_r+0x92e>
 8007ee2:	e06b      	b.n	8007fbc <_dtoa_r+0x974>
 8007ee4:	9b14      	ldr	r3, [sp, #80]	@ 0x50
 8007ee6:	f1c3 0336 	rsb	r3, r3, #54	@ 0x36
 8007eea:	e73c      	b.n	8007d66 <_dtoa_r+0x71e>
 8007eec:	3fe00000 	.word	0x3fe00000
 8007ef0:	40240000 	.word	0x40240000
 8007ef4:	9b08      	ldr	r3, [sp, #32]
 8007ef6:	1e5c      	subs	r4, r3, #1
 8007ef8:	9b0a      	ldr	r3, [sp, #40]	@ 0x28
 8007efa:	42a3      	cmp	r3, r4
 8007efc:	db09      	blt.n	8007f12 <_dtoa_r+0x8ca>
 8007efe:	1b1c      	subs	r4, r3, r4
 8007f00:	9b08      	ldr	r3, [sp, #32]
 8007f02:	2b00      	cmp	r3, #0
 8007f04:	f6bf af30 	bge.w	8007d68 <_dtoa_r+0x720>
 8007f08:	9b04      	ldr	r3, [sp, #16]
 8007f0a:	9a08      	ldr	r2, [sp, #32]
 8007f0c:	1a9e      	subs	r6, r3, r2
 8007f0e:	2300      	movs	r3, #0
 8007f10:	e72b      	b.n	8007d6a <_dtoa_r+0x722>
 8007f12:	9b0a      	ldr	r3, [sp, #40]	@ 0x28
 8007f14:	9a0e      	ldr	r2, [sp, #56]	@ 0x38
 8007f16:	1ae3      	subs	r3, r4, r3
 8007f18:	441a      	add	r2, r3
 8007f1a:	940a      	str	r4, [sp, #40]	@ 0x28
 8007f1c:	9e04      	ldr	r6, [sp, #16]
 8007f1e:	2400      	movs	r4, #0
 8007f20:	9b08      	ldr	r3, [sp, #32]
 8007f22:	920e      	str	r2, [sp, #56]	@ 0x38
 8007f24:	e721      	b.n	8007d6a <_dtoa_r+0x722>
 8007f26:	9c0a      	ldr	r4, [sp, #40]	@ 0x28
 8007f28:	9e04      	ldr	r6, [sp, #16]
 8007f2a:	9d0b      	ldr	r5, [sp, #44]	@ 0x2c
 8007f2c:	e728      	b.n	8007d80 <_dtoa_r+0x738>
 8007f2e:	f8dd 800c 	ldr.w	r8, [sp, #12]
 8007f32:	e751      	b.n	8007dd8 <_dtoa_r+0x790>
 8007f34:	9a0a      	ldr	r2, [sp, #40]	@ 0x28
 8007f36:	9903      	ldr	r1, [sp, #12]
 8007f38:	e750      	b.n	8007ddc <_dtoa_r+0x794>
 8007f3a:	f8cd 800c 	str.w	r8, [sp, #12]
 8007f3e:	e751      	b.n	8007de4 <_dtoa_r+0x79c>
 8007f40:	2300      	movs	r3, #0
 8007f42:	e779      	b.n	8007e38 <_dtoa_r+0x7f0>
 8007f44:	9b06      	ldr	r3, [sp, #24]
 8007f46:	e777      	b.n	8007e38 <_dtoa_r+0x7f0>
 8007f48:	2300      	movs	r3, #0
 8007f4a:	930a      	str	r3, [sp, #40]	@ 0x28
 8007f4c:	e779      	b.n	8007e42 <_dtoa_r+0x7fa>
 8007f4e:	d093      	beq.n	8007e78 <_dtoa_r+0x830>
 8007f50:	9a04      	ldr	r2, [sp, #16]
 8007f52:	331c      	adds	r3, #28
 8007f54:	441a      	add	r2, r3
 8007f56:	9204      	str	r2, [sp, #16]
 8007f58:	9a09      	ldr	r2, [sp, #36]	@ 0x24
 8007f5a:	441e      	add	r6, r3
 8007f5c:	441a      	add	r2, r3
 8007f5e:	9209      	str	r2, [sp, #36]	@ 0x24
 8007f60:	e78a      	b.n	8007e78 <_dtoa_r+0x830>
 8007f62:	4603      	mov	r3, r0
 8007f64:	e7f4      	b.n	8007f50 <_dtoa_r+0x908>
 8007f66:	9b08      	ldr	r3, [sp, #32]
 8007f68:	46b8      	mov	r8, r7
 8007f6a:	2b00      	cmp	r3, #0
 8007f6c:	dc20      	bgt.n	8007fb0 <_dtoa_r+0x968>
 8007f6e:	469b      	mov	fp, r3
 8007f70:	9b20      	ldr	r3, [sp, #128]	@ 0x80
 8007f72:	2b02      	cmp	r3, #2
 8007f74:	dd1e      	ble.n	8007fb4 <_dtoa_r+0x96c>
 8007f76:	f1bb 0f00 	cmp.w	fp, #0
 8007f7a:	f47f adb1 	bne.w	8007ae0 <_dtoa_r+0x498>
 8007f7e:	4621      	mov	r1, r4
 8007f80:	465b      	mov	r3, fp
 8007f82:	2205      	movs	r2, #5
 8007f84:	4648      	mov	r0, r9
 8007f86:	f000 fa93 	bl	80084b0 <__multadd>
 8007f8a:	4601      	mov	r1, r0
 8007f8c:	4604      	mov	r4, r0
 8007f8e:	9803      	ldr	r0, [sp, #12]
 8007f90:	f000 fc9e 	bl	80088d0 <__mcmp>
 8007f94:	2800      	cmp	r0, #0
 8007f96:	f77f ada3 	ble.w	8007ae0 <_dtoa_r+0x498>
 8007f9a:	4656      	mov	r6, sl
 8007f9c:	2331      	movs	r3, #49	@ 0x31
 8007f9e:	f108 0801 	add.w	r8, r8, #1
 8007fa2:	f806 3b01 	strb.w	r3, [r6], #1
 8007fa6:	e59f      	b.n	8007ae8 <_dtoa_r+0x4a0>
 8007fa8:	46b8      	mov	r8, r7
 8007faa:	9c08      	ldr	r4, [sp, #32]
 8007fac:	4625      	mov	r5, r4
 8007fae:	e7f4      	b.n	8007f9a <_dtoa_r+0x952>
 8007fb0:	f8dd b020 	ldr.w	fp, [sp, #32]
 8007fb4:	9b0b      	ldr	r3, [sp, #44]	@ 0x2c
 8007fb6:	2b00      	cmp	r3, #0
 8007fb8:	f000 8101 	beq.w	80081be <_dtoa_r+0xb76>
 8007fbc:	2e00      	cmp	r6, #0
 8007fbe:	dd05      	ble.n	8007fcc <_dtoa_r+0x984>
 8007fc0:	4629      	mov	r1, r5
 8007fc2:	4632      	mov	r2, r6
 8007fc4:	4648      	mov	r0, r9
 8007fc6:	f000 fc17 	bl	80087f8 <__lshift>
 8007fca:	4605      	mov	r5, r0
 8007fcc:	9b0a      	ldr	r3, [sp, #40]	@ 0x28
 8007fce:	2b00      	cmp	r3, #0
 8007fd0:	d05c      	beq.n	800808c <_dtoa_r+0xa44>
 8007fd2:	4648      	mov	r0, r9
 8007fd4:	6869      	ldr	r1, [r5, #4]
 8007fd6:	f000 fa09 	bl	80083ec <_Balloc>
 8007fda:	4606      	mov	r6, r0
 8007fdc:	b928      	cbnz	r0, 8007fea <_dtoa_r+0x9a2>
 8007fde:	4602      	mov	r2, r0
 8007fe0:	f240 21ef 	movw	r1, #751	@ 0x2ef
 8007fe4:	4b80      	ldr	r3, [pc, #512]	@ (80081e8 <_dtoa_r+0xba0>)
 8007fe6:	f7ff bb43 	b.w	8007670 <_dtoa_r+0x28>
 8007fea:	692a      	ldr	r2, [r5, #16]
 8007fec:	f105 010c 	add.w	r1, r5, #12
 8007ff0:	3202      	adds	r2, #2
 8007ff2:	0092      	lsls	r2, r2, #2
 8007ff4:	300c      	adds	r0, #12
 8007ff6:	f7ff fa8e 	bl	8007516 <memcpy>
 8007ffa:	2201      	movs	r2, #1
 8007ffc:	4631      	mov	r1, r6
 8007ffe:	4648      	mov	r0, r9
 8008000:	f000 fbfa 	bl	80087f8 <__lshift>
 8008004:	462f      	mov	r7, r5
 8008006:	4605      	mov	r5, r0
 8008008:	f10a 0301 	add.w	r3, sl, #1
 800800c:	9304      	str	r3, [sp, #16]
 800800e:	eb0a 030b 	add.w	r3, sl, fp
 8008012:	930a      	str	r3, [sp, #40]	@ 0x28
 8008014:	9b06      	ldr	r3, [sp, #24]
 8008016:	f003 0301 	and.w	r3, r3, #1
 800801a:	9309      	str	r3, [sp, #36]	@ 0x24
 800801c:	9b04      	ldr	r3, [sp, #16]
 800801e:	4621      	mov	r1, r4
 8008020:	9803      	ldr	r0, [sp, #12]
 8008022:	f103 3bff 	add.w	fp, r3, #4294967295
 8008026:	f7ff fa84 	bl	8007532 <quorem>
 800802a:	4603      	mov	r3, r0
 800802c:	4639      	mov	r1, r7
 800802e:	3330      	adds	r3, #48	@ 0x30
 8008030:	9006      	str	r0, [sp, #24]
 8008032:	9803      	ldr	r0, [sp, #12]
 8008034:	930b      	str	r3, [sp, #44]	@ 0x2c
 8008036:	f000 fc4b 	bl	80088d0 <__mcmp>
 800803a:	462a      	mov	r2, r5
 800803c:	9008      	str	r0, [sp, #32]
 800803e:	4621      	mov	r1, r4
 8008040:	4648      	mov	r0, r9
 8008042:	f000 fc61 	bl	8008908 <__mdiff>
 8008046:	68c2      	ldr	r2, [r0, #12]
 8008048:	4606      	mov	r6, r0
 800804a:	9b0b      	ldr	r3, [sp, #44]	@ 0x2c
 800804c:	bb02      	cbnz	r2, 8008090 <_dtoa_r+0xa48>
 800804e:	4601      	mov	r1, r0
 8008050:	9803      	ldr	r0, [sp, #12]
 8008052:	f000 fc3d 	bl	80088d0 <__mcmp>
 8008056:	4602      	mov	r2, r0
 8008058:	9b0b      	ldr	r3, [sp, #44]	@ 0x2c
 800805a:	4631      	mov	r1, r6
 800805c:	4648      	mov	r0, r9
 800805e:	e9cd 320b 	strd	r3, r2, [sp, #44]	@ 0x2c
 8008062:	f000 fa03 	bl	800846c <_Bfree>
 8008066:	9b20      	ldr	r3, [sp, #128]	@ 0x80
 8008068:	9a0c      	ldr	r2, [sp, #48]	@ 0x30
 800806a:	9e04      	ldr	r6, [sp, #16]
 800806c:	ea42 0103 	orr.w	r1, r2, r3
 8008070:	9b09      	ldr	r3, [sp, #36]	@ 0x24
 8008072:	4319      	orrs	r1, r3
 8008074:	9b0b      	ldr	r3, [sp, #44]	@ 0x2c
 8008076:	d10d      	bne.n	8008094 <_dtoa_r+0xa4c>
 8008078:	2b39      	cmp	r3, #57	@ 0x39
 800807a:	d027      	beq.n	80080cc <_dtoa_r+0xa84>
 800807c:	9a08      	ldr	r2, [sp, #32]
 800807e:	2a00      	cmp	r2, #0
 8008080:	dd01      	ble.n	8008086 <_dtoa_r+0xa3e>
 8008082:	9b06      	ldr	r3, [sp, #24]
 8008084:	3331      	adds	r3, #49	@ 0x31
 8008086:	f88b 3000 	strb.w	r3, [fp]
 800808a:	e52e      	b.n	8007aea <_dtoa_r+0x4a2>
 800808c:	4628      	mov	r0, r5
 800808e:	e7b9      	b.n	8008004 <_dtoa_r+0x9bc>
 8008090:	2201      	movs	r2, #1
 8008092:	e7e2      	b.n	800805a <_dtoa_r+0xa12>
 8008094:	9908      	ldr	r1, [sp, #32]
 8008096:	2900      	cmp	r1, #0
 8008098:	db04      	blt.n	80080a4 <_dtoa_r+0xa5c>
 800809a:	9820      	ldr	r0, [sp, #128]	@ 0x80
 800809c:	4301      	orrs	r1, r0
 800809e:	9809      	ldr	r0, [sp, #36]	@ 0x24
 80080a0:	4301      	orrs	r1, r0
 80080a2:	d120      	bne.n	80080e6 <_dtoa_r+0xa9e>
 80080a4:	2a00      	cmp	r2, #0
 80080a6:	ddee      	ble.n	8008086 <_dtoa_r+0xa3e>
 80080a8:	2201      	movs	r2, #1
 80080aa:	9903      	ldr	r1, [sp, #12]
 80080ac:	4648      	mov	r0, r9
 80080ae:	9304      	str	r3, [sp, #16]
 80080b0:	f000 fba2 	bl	80087f8 <__lshift>
 80080b4:	4621      	mov	r1, r4
 80080b6:	9003      	str	r0, [sp, #12]
 80080b8:	f000 fc0a 	bl	80088d0 <__mcmp>
 80080bc:	2800      	cmp	r0, #0
 80080be:	9b04      	ldr	r3, [sp, #16]
 80080c0:	dc02      	bgt.n	80080c8 <_dtoa_r+0xa80>
 80080c2:	d1e0      	bne.n	8008086 <_dtoa_r+0xa3e>
 80080c4:	07da      	lsls	r2, r3, #31
 80080c6:	d5de      	bpl.n	8008086 <_dtoa_r+0xa3e>
 80080c8:	2b39      	cmp	r3, #57	@ 0x39
 80080ca:	d1da      	bne.n	8008082 <_dtoa_r+0xa3a>
 80080cc:	2339      	movs	r3, #57	@ 0x39
 80080ce:	f88b 3000 	strb.w	r3, [fp]
 80080d2:	4633      	mov	r3, r6
 80080d4:	461e      	mov	r6, r3
 80080d6:	f816 2c01 	ldrb.w	r2, [r6, #-1]
 80080da:	3b01      	subs	r3, #1
 80080dc:	2a39      	cmp	r2, #57	@ 0x39
 80080de:	d04e      	beq.n	800817e <_dtoa_r+0xb36>
 80080e0:	3201      	adds	r2, #1
 80080e2:	701a      	strb	r2, [r3, #0]
 80080e4:	e501      	b.n	8007aea <_dtoa_r+0x4a2>
 80080e6:	2a00      	cmp	r2, #0
 80080e8:	dd03      	ble.n	80080f2 <_dtoa_r+0xaaa>
 80080ea:	2b39      	cmp	r3, #57	@ 0x39
 80080ec:	d0ee      	beq.n	80080cc <_dtoa_r+0xa84>
 80080ee:	3301      	adds	r3, #1
 80080f0:	e7c9      	b.n	8008086 <_dtoa_r+0xa3e>
 80080f2:	9a04      	ldr	r2, [sp, #16]
 80080f4:	990a      	ldr	r1, [sp, #40]	@ 0x28
 80080f6:	f802 3c01 	strb.w	r3, [r2, #-1]
 80080fa:	428a      	cmp	r2, r1
 80080fc:	d028      	beq.n	8008150 <_dtoa_r+0xb08>
 80080fe:	2300      	movs	r3, #0
 8008100:	220a      	movs	r2, #10
 8008102:	9903      	ldr	r1, [sp, #12]
 8008104:	4648      	mov	r0, r9
 8008106:	f000 f9d3 	bl	80084b0 <__multadd>
 800810a:	42af      	cmp	r7, r5
 800810c:	9003      	str	r0, [sp, #12]
 800810e:	f04f 0300 	mov.w	r3, #0
 8008112:	f04f 020a 	mov.w	r2, #10
 8008116:	4639      	mov	r1, r7
 8008118:	4648      	mov	r0, r9
 800811a:	d107      	bne.n	800812c <_dtoa_r+0xae4>
 800811c:	f000 f9c8 	bl	80084b0 <__multadd>
 8008120:	4607      	mov	r7, r0
 8008122:	4605      	mov	r5, r0
 8008124:	9b04      	ldr	r3, [sp, #16]
 8008126:	3301      	adds	r3, #1
 8008128:	9304      	str	r3, [sp, #16]
 800812a:	e777      	b.n	800801c <_dtoa_r+0x9d4>
 800812c:	f000 f9c0 	bl	80084b0 <__multadd>
 8008130:	4629      	mov	r1, r5
 8008132:	4607      	mov	r7, r0
 8008134:	2300      	movs	r3, #0
 8008136:	220a      	movs	r2, #10
 8008138:	4648      	mov	r0, r9
 800813a:	f000 f9b9 	bl	80084b0 <__multadd>
 800813e:	4605      	mov	r5, r0
 8008140:	e7f0      	b.n	8008124 <_dtoa_r+0xadc>
 8008142:	f1bb 0f00 	cmp.w	fp, #0
 8008146:	bfcc      	ite	gt
 8008148:	465e      	movgt	r6, fp
 800814a:	2601      	movle	r6, #1
 800814c:	2700      	movs	r7, #0
 800814e:	4456      	add	r6, sl
 8008150:	2201      	movs	r2, #1
 8008152:	9903      	ldr	r1, [sp, #12]
 8008154:	4648      	mov	r0, r9
 8008156:	9304      	str	r3, [sp, #16]
 8008158:	f000 fb4e 	bl	80087f8 <__lshift>
 800815c:	4621      	mov	r1, r4
 800815e:	9003      	str	r0, [sp, #12]
 8008160:	f000 fbb6 	bl	80088d0 <__mcmp>
 8008164:	2800      	cmp	r0, #0
 8008166:	dcb4      	bgt.n	80080d2 <_dtoa_r+0xa8a>
 8008168:	d102      	bne.n	8008170 <_dtoa_r+0xb28>
 800816a:	9b04      	ldr	r3, [sp, #16]
 800816c:	07db      	lsls	r3, r3, #31
 800816e:	d4b0      	bmi.n	80080d2 <_dtoa_r+0xa8a>
 8008170:	4633      	mov	r3, r6
 8008172:	461e      	mov	r6, r3
 8008174:	f813 2d01 	ldrb.w	r2, [r3, #-1]!
 8008178:	2a30      	cmp	r2, #48	@ 0x30
 800817a:	d0fa      	beq.n	8008172 <_dtoa_r+0xb2a>
 800817c:	e4b5      	b.n	8007aea <_dtoa_r+0x4a2>
 800817e:	459a      	cmp	sl, r3
 8008180:	d1a8      	bne.n	80080d4 <_dtoa_r+0xa8c>
 8008182:	2331      	movs	r3, #49	@ 0x31
 8008184:	f108 0801 	add.w	r8, r8, #1
 8008188:	f88a 3000 	strb.w	r3, [sl]
 800818c:	e4ad      	b.n	8007aea <_dtoa_r+0x4a2>
 800818e:	9b24      	ldr	r3, [sp, #144]	@ 0x90
 8008190:	f8df a058 	ldr.w	sl, [pc, #88]	@ 80081ec <_dtoa_r+0xba4>
 8008194:	b11b      	cbz	r3, 800819e <_dtoa_r+0xb56>
 8008196:	f10a 0308 	add.w	r3, sl, #8
 800819a:	9a24      	ldr	r2, [sp, #144]	@ 0x90
 800819c:	6013      	str	r3, [r2, #0]
 800819e:	4650      	mov	r0, sl
 80081a0:	b017      	add	sp, #92	@ 0x5c
 80081a2:	e8bd 8ff0 	ldmia.w	sp!, {r4, r5, r6, r7, r8, r9, sl, fp, pc}
 80081a6:	9b20      	ldr	r3, [sp, #128]	@ 0x80
 80081a8:	2b01      	cmp	r3, #1
 80081aa:	f77f ae2e 	ble.w	8007e0a <_dtoa_r+0x7c2>
 80081ae:	9b0e      	ldr	r3, [sp, #56]	@ 0x38
 80081b0:	930a      	str	r3, [sp, #40]	@ 0x28
 80081b2:	2001      	movs	r0, #1
 80081b4:	e64d      	b.n	8007e52 <_dtoa_r+0x80a>
 80081b6:	f1bb 0f00 	cmp.w	fp, #0
 80081ba:	f77f aed9 	ble.w	8007f70 <_dtoa_r+0x928>
 80081be:	4656      	mov	r6, sl
 80081c0:	4621      	mov	r1, r4
 80081c2:	9803      	ldr	r0, [sp, #12]
 80081c4:	f7ff f9b5 	bl	8007532 <quorem>
 80081c8:	f100 0330 	add.w	r3, r0, #48	@ 0x30
 80081cc:	f806 3b01 	strb.w	r3, [r6], #1
 80081d0:	eba6 020a 	sub.w	r2, r6, sl
 80081d4:	4593      	cmp	fp, r2
 80081d6:	ddb4      	ble.n	8008142 <_dtoa_r+0xafa>
 80081d8:	2300      	movs	r3, #0
 80081da:	220a      	movs	r2, #10
 80081dc:	4648      	mov	r0, r9
 80081de:	9903      	ldr	r1, [sp, #12]
 80081e0:	f000 f966 	bl	80084b0 <__multadd>
 80081e4:	9003      	str	r0, [sp, #12]
 80081e6:	e7eb      	b.n	80081c0 <_dtoa_r+0xb78>
 80081e8:	08009c9c 	.word	0x08009c9c
 80081ec:	08009c20 	.word	0x08009c20

080081f0 <_free_r>:
 80081f0:	b538      	push	{r3, r4, r5, lr}
 80081f2:	4605      	mov	r5, r0
 80081f4:	2900      	cmp	r1, #0
 80081f6:	d040      	beq.n	800827a <_free_r+0x8a>
 80081f8:	f851 3c04 	ldr.w	r3, [r1, #-4]
 80081fc:	1f0c      	subs	r4, r1, #4
 80081fe:	2b00      	cmp	r3, #0
 8008200:	bfb8      	it	lt
 8008202:	18e4      	addlt	r4, r4, r3
 8008204:	f000 f8e6 	bl	80083d4 <__malloc_lock>
 8008208:	4a1c      	ldr	r2, [pc, #112]	@ (800827c <_free_r+0x8c>)
 800820a:	6813      	ldr	r3, [r2, #0]
 800820c:	b933      	cbnz	r3, 800821c <_free_r+0x2c>
 800820e:	6063      	str	r3, [r4, #4]
 8008210:	6014      	str	r4, [r2, #0]
 8008212:	4628      	mov	r0, r5
 8008214:	e8bd 4038 	ldmia.w	sp!, {r3, r4, r5, lr}
 8008218:	f000 b8e2 	b.w	80083e0 <__malloc_unlock>
 800821c:	42a3      	cmp	r3, r4
 800821e:	d908      	bls.n	8008232 <_free_r+0x42>
 8008220:	6820      	ldr	r0, [r4, #0]
 8008222:	1821      	adds	r1, r4, r0
 8008224:	428b      	cmp	r3, r1
 8008226:	bf01      	itttt	eq
 8008228:	6819      	ldreq	r1, [r3, #0]
 800822a:	685b      	ldreq	r3, [r3, #4]
 800822c:	1809      	addeq	r1, r1, r0
 800822e:	6021      	streq	r1, [r4, #0]
 8008230:	e7ed      	b.n	800820e <_free_r+0x1e>
 8008232:	461a      	mov	r2, r3
 8008234:	685b      	ldr	r3, [r3, #4]
 8008236:	b10b      	cbz	r3, 800823c <_free_r+0x4c>
 8008238:	42a3      	cmp	r3, r4
 800823a:	d9fa      	bls.n	8008232 <_free_r+0x42>
 800823c:	6811      	ldr	r1, [r2, #0]
 800823e:	1850      	adds	r0, r2, r1
 8008240:	42a0      	cmp	r0, r4
 8008242:	d10b      	bne.n	800825c <_free_r+0x6c>
 8008244:	6820      	ldr	r0, [r4, #0]
 8008246:	4401      	add	r1, r0
 8008248:	1850      	adds	r0, r2, r1
 800824a:	4283      	cmp	r3, r0
 800824c:	6011      	str	r1, [r2, #0]
 800824e:	d1e0      	bne.n	8008212 <_free_r+0x22>
 8008250:	6818      	ldr	r0, [r3, #0]
 8008252:	685b      	ldr	r3, [r3, #4]
 8008254:	4408      	add	r0, r1
 8008256:	6010      	str	r0, [r2, #0]
 8008258:	6053      	str	r3, [r2, #4]
 800825a:	e7da      	b.n	8008212 <_free_r+0x22>
 800825c:	d902      	bls.n	8008264 <_free_r+0x74>
 800825e:	230c      	movs	r3, #12
 8008260:	602b      	str	r3, [r5, #0]
 8008262:	e7d6      	b.n	8008212 <_free_r+0x22>
 8008264:	6820      	ldr	r0, [r4, #0]
 8008266:	1821      	adds	r1, r4, r0
 8008268:	428b      	cmp	r3, r1
 800826a:	bf01      	itttt	eq
 800826c:	6819      	ldreq	r1, [r3, #0]
 800826e:	685b      	ldreq	r3, [r3, #4]
 8008270:	1809      	addeq	r1, r1, r0
 8008272:	6021      	streq	r1, [r4, #0]
 8008274:	6063      	str	r3, [r4, #4]
 8008276:	6054      	str	r4, [r2, #4]
 8008278:	e7cb      	b.n	8008212 <_free_r+0x22>
 800827a:	bd38      	pop	{r3, r4, r5, pc}
 800827c:	20000f8c 	.word	0x20000f8c

08008280 <malloc>:
 8008280:	4b02      	ldr	r3, [pc, #8]	@ (800828c <malloc+0xc>)
 8008282:	4601      	mov	r1, r0
 8008284:	6818      	ldr	r0, [r3, #0]
 8008286:	f000 b825 	b.w	80082d4 <_malloc_r>
 800828a:	bf00      	nop
 800828c:	20000070 	.word	0x20000070

08008290 <sbrk_aligned>:
 8008290:	b570      	push	{r4, r5, r6, lr}
 8008292:	4e0f      	ldr	r6, [pc, #60]	@ (80082d0 <sbrk_aligned+0x40>)
 8008294:	460c      	mov	r4, r1
 8008296:	6831      	ldr	r1, [r6, #0]
 8008298:	4605      	mov	r5, r0
 800829a:	b911      	cbnz	r1, 80082a2 <sbrk_aligned+0x12>
 800829c:	f000 fe3a 	bl	8008f14 <_sbrk_r>
 80082a0:	6030      	str	r0, [r6, #0]
 80082a2:	4621      	mov	r1, r4
 80082a4:	4628      	mov	r0, r5
 80082a6:	f000 fe35 	bl	8008f14 <_sbrk_r>
 80082aa:	1c43      	adds	r3, r0, #1
 80082ac:	d103      	bne.n	80082b6 <sbrk_aligned+0x26>
 80082ae:	f04f 34ff 	mov.w	r4, #4294967295
 80082b2:	4620      	mov	r0, r4
 80082b4:	bd70      	pop	{r4, r5, r6, pc}
 80082b6:	1cc4      	adds	r4, r0, #3
 80082b8:	f024 0403 	bic.w	r4, r4, #3
 80082bc:	42a0      	cmp	r0, r4
 80082be:	d0f8      	beq.n	80082b2 <sbrk_aligned+0x22>
 80082c0:	1a21      	subs	r1, r4, r0
 80082c2:	4628      	mov	r0, r5
 80082c4:	f000 fe26 	bl	8008f14 <_sbrk_r>
 80082c8:	3001      	adds	r0, #1
 80082ca:	d1f2      	bne.n	80082b2 <sbrk_aligned+0x22>
 80082cc:	e7ef      	b.n	80082ae <sbrk_aligned+0x1e>
 80082ce:	bf00      	nop
 80082d0:	20000f88 	.word	0x20000f88

080082d4 <_malloc_r>:
 80082d4:	e92d 43f8 	stmdb	sp!, {r3, r4, r5, r6, r7, r8, r9, lr}
 80082d8:	1ccd      	adds	r5, r1, #3
 80082da:	f025 0503 	bic.w	r5, r5, #3
 80082de:	3508      	adds	r5, #8
 80082e0:	2d0c      	cmp	r5, #12
 80082e2:	bf38      	it	cc
 80082e4:	250c      	movcc	r5, #12
 80082e6:	2d00      	cmp	r5, #0
 80082e8:	4606      	mov	r6, r0
 80082ea:	db01      	blt.n	80082f0 <_malloc_r+0x1c>
 80082ec:	42a9      	cmp	r1, r5
 80082ee:	d904      	bls.n	80082fa <_malloc_r+0x26>
 80082f0:	230c      	movs	r3, #12
 80082f2:	6033      	str	r3, [r6, #0]
 80082f4:	2000      	movs	r0, #0
 80082f6:	e8bd 83f8 	ldmia.w	sp!, {r3, r4, r5, r6, r7, r8, r9, pc}
 80082fa:	f8df 80d4 	ldr.w	r8, [pc, #212]	@ 80083d0 <_malloc_r+0xfc>
 80082fe:	f000 f869 	bl	80083d4 <__malloc_lock>
 8008302:	f8d8 3000 	ldr.w	r3, [r8]
 8008306:	461c      	mov	r4, r3
 8008308:	bb44      	cbnz	r4, 800835c <_malloc_r+0x88>
 800830a:	4629      	mov	r1, r5
 800830c:	4630      	mov	r0, r6
 800830e:	f7ff ffbf 	bl	8008290 <sbrk_aligned>
 8008312:	1c43      	adds	r3, r0, #1
 8008314:	4604      	mov	r4, r0
 8008316:	d158      	bne.n	80083ca <_malloc_r+0xf6>
 8008318:	f8d8 4000 	ldr.w	r4, [r8]
 800831c:	4627      	mov	r7, r4
 800831e:	2f00      	cmp	r7, #0
 8008320:	d143      	bne.n	80083aa <_malloc_r+0xd6>
 8008322:	2c00      	cmp	r4, #0
 8008324:	d04b      	beq.n	80083be <_malloc_r+0xea>
 8008326:	6823      	ldr	r3, [r4, #0]
 8008328:	4639      	mov	r1, r7
 800832a:	4630      	mov	r0, r6
 800832c:	eb04 0903 	add.w	r9, r4, r3
 8008330:	f000 fdf0 	bl	8008f14 <_sbrk_r>
 8008334:	4581      	cmp	r9, r0
 8008336:	d142      	bne.n	80083be <_malloc_r+0xea>
 8008338:	6821      	ldr	r1, [r4, #0]
 800833a:	4630      	mov	r0, r6
 800833c:	1a6d      	subs	r5, r5, r1
 800833e:	4629      	mov	r1, r5
 8008340:	f7ff ffa6 	bl	8008290 <sbrk_aligned>
 8008344:	3001      	adds	r0, #1
 8008346:	d03a      	beq.n	80083be <_malloc_r+0xea>
 8008348:	6823      	ldr	r3, [r4, #0]
 800834a:	442b      	add	r3, r5
 800834c:	6023      	str	r3, [r4, #0]
 800834e:	f8d8 3000 	ldr.w	r3, [r8]
 8008352:	685a      	ldr	r2, [r3, #4]
 8008354:	bb62      	cbnz	r2, 80083b0 <_malloc_r+0xdc>
 8008356:	f8c8 7000 	str.w	r7, [r8]
 800835a:	e00f      	b.n	800837c <_malloc_r+0xa8>
 800835c:	6822      	ldr	r2, [r4, #0]
 800835e:	1b52      	subs	r2, r2, r5
 8008360:	d420      	bmi.n	80083a4 <_malloc_r+0xd0>
 8008362:	2a0b      	cmp	r2, #11
 8008364:	d917      	bls.n	8008396 <_malloc_r+0xc2>
 8008366:	1961      	adds	r1, r4, r5
 8008368:	42a3      	cmp	r3, r4
 800836a:	6025      	str	r5, [r4, #0]
 800836c:	bf18      	it	ne
 800836e:	6059      	strne	r1, [r3, #4]
 8008370:	6863      	ldr	r3, [r4, #4]
 8008372:	bf08      	it	eq
 8008374:	f8c8 1000 	streq.w	r1, [r8]
 8008378:	5162      	str	r2, [r4, r5]
 800837a:	604b      	str	r3, [r1, #4]
 800837c:	4630      	mov	r0, r6
 800837e:	f000 f82f 	bl	80083e0 <__malloc_unlock>
 8008382:	f104 000b 	add.w	r0, r4, #11
 8008386:	1d23      	adds	r3, r4, #4
 8008388:	f020 0007 	bic.w	r0, r0, #7
 800838c:	1ac2      	subs	r2, r0, r3
 800838e:	bf1c      	itt	ne
 8008390:	1a1b      	subne	r3, r3, r0
 8008392:	50a3      	strne	r3, [r4, r2]
 8008394:	e7af      	b.n	80082f6 <_malloc_r+0x22>
 8008396:	6862      	ldr	r2, [r4, #4]
 8008398:	42a3      	cmp	r3, r4
 800839a:	bf0c      	ite	eq
 800839c:	f8c8 2000 	streq.w	r2, [r8]
 80083a0:	605a      	strne	r2, [r3, #4]
 80083a2:	e7eb      	b.n	800837c <_malloc_r+0xa8>
 80083a4:	4623      	mov	r3, r4
 80083a6:	6864      	ldr	r4, [r4, #4]
 80083a8:	e7ae      	b.n	8008308 <_malloc_r+0x34>
 80083aa:	463c      	mov	r4, r7
 80083ac:	687f      	ldr	r7, [r7, #4]
 80083ae:	e7b6      	b.n	800831e <_malloc_r+0x4a>
 80083b0:	461a      	mov	r2, r3
 80083b2:	685b      	ldr	r3, [r3, #4]
 80083b4:	42a3      	cmp	r3, r4
 80083b6:	d1fb      	bne.n	80083b0 <_malloc_r+0xdc>
 80083b8:	2300      	movs	r3, #0
 80083ba:	6053      	str	r3, [r2, #4]
 80083bc:	e7de      	b.n	800837c <_malloc_r+0xa8>
 80083be:	230c      	movs	r3, #12
 80083c0:	4630      	mov	r0, r6
 80083c2:	6033      	str	r3, [r6, #0]
 80083c4:	f000 f80c 	bl	80083e0 <__malloc_unlock>
 80083c8:	e794      	b.n	80082f4 <_malloc_r+0x20>
 80083ca:	6005      	str	r5, [r0, #0]
 80083cc:	e7d6      	b.n	800837c <_malloc_r+0xa8>
 80083ce:	bf00      	nop
 80083d0:	20000f8c 	.word	0x20000f8c

080083d4 <__malloc_lock>:
 80083d4:	4801      	ldr	r0, [pc, #4]	@ (80083dc <__malloc_lock+0x8>)
 80083d6:	f7ff b886 	b.w	80074e6 <__retarget_lock_acquire_recursive>
 80083da:	bf00      	nop
 80083dc:	20000f84 	.word	0x20000f84

080083e0 <__malloc_unlock>:
 80083e0:	4801      	ldr	r0, [pc, #4]	@ (80083e8 <__malloc_unlock+0x8>)
 80083e2:	f7ff b881 	b.w	80074e8 <__retarget_lock_release_recursive>
 80083e6:	bf00      	nop
 80083e8:	20000f84 	.word	0x20000f84

080083ec <_Balloc>:
 80083ec:	b570      	push	{r4, r5, r6, lr}
 80083ee:	69c6      	ldr	r6, [r0, #28]
 80083f0:	4604      	mov	r4, r0
 80083f2:	460d      	mov	r5, r1
 80083f4:	b976      	cbnz	r6, 8008414 <_Balloc+0x28>
 80083f6:	2010      	movs	r0, #16
 80083f8:	f7ff ff42 	bl	8008280 <malloc>
 80083fc:	4602      	mov	r2, r0
 80083fe:	61e0      	str	r0, [r4, #28]
 8008400:	b920      	cbnz	r0, 800840c <_Balloc+0x20>
 8008402:	216b      	movs	r1, #107	@ 0x6b
 8008404:	4b17      	ldr	r3, [pc, #92]	@ (8008464 <_Balloc+0x78>)
 8008406:	4818      	ldr	r0, [pc, #96]	@ (8008468 <_Balloc+0x7c>)
 8008408:	f000 fd94 	bl	8008f34 <__assert_func>
 800840c:	e9c0 6601 	strd	r6, r6, [r0, #4]
 8008410:	6006      	str	r6, [r0, #0]
 8008412:	60c6      	str	r6, [r0, #12]
 8008414:	69e6      	ldr	r6, [r4, #28]
 8008416:	68f3      	ldr	r3, [r6, #12]
 8008418:	b183      	cbz	r3, 800843c <_Balloc+0x50>
 800841a:	69e3      	ldr	r3, [r4, #28]
 800841c:	68db      	ldr	r3, [r3, #12]
 800841e:	f853 0025 	ldr.w	r0, [r3, r5, lsl #2]
 8008422:	b9b8      	cbnz	r0, 8008454 <_Balloc+0x68>
 8008424:	2101      	movs	r1, #1
 8008426:	fa01 f605 	lsl.w	r6, r1, r5
 800842a:	1d72      	adds	r2, r6, #5
 800842c:	4620      	mov	r0, r4
 800842e:	0092      	lsls	r2, r2, #2
 8008430:	f000 fd9e 	bl	8008f70 <_calloc_r>
 8008434:	b160      	cbz	r0, 8008450 <_Balloc+0x64>
 8008436:	e9c0 5601 	strd	r5, r6, [r0, #4]
 800843a:	e00e      	b.n	800845a <_Balloc+0x6e>
 800843c:	2221      	movs	r2, #33	@ 0x21
 800843e:	2104      	movs	r1, #4
 8008440:	4620      	mov	r0, r4
 8008442:	f000 fd95 	bl	8008f70 <_calloc_r>
 8008446:	69e3      	ldr	r3, [r4, #28]
 8008448:	60f0      	str	r0, [r6, #12]
 800844a:	68db      	ldr	r3, [r3, #12]
 800844c:	2b00      	cmp	r3, #0
 800844e:	d1e4      	bne.n	800841a <_Balloc+0x2e>
 8008450:	2000      	movs	r0, #0
 8008452:	bd70      	pop	{r4, r5, r6, pc}
 8008454:	6802      	ldr	r2, [r0, #0]
 8008456:	f843 2025 	str.w	r2, [r3, r5, lsl #2]
 800845a:	2300      	movs	r3, #0
 800845c:	e9c0 3303 	strd	r3, r3, [r0, #12]
 8008460:	e7f7      	b.n	8008452 <_Balloc+0x66>
 8008462:	bf00      	nop
 8008464:	08009c2d 	.word	0x08009c2d
 8008468:	08009cad 	.word	0x08009cad

0800846c <_Bfree>:
 800846c:	b570      	push	{r4, r5, r6, lr}
 800846e:	69c6      	ldr	r6, [r0, #28]
 8008470:	4605      	mov	r5, r0
 8008472:	460c      	mov	r4, r1
 8008474:	b976      	cbnz	r6, 8008494 <_Bfree+0x28>
 8008476:	2010      	movs	r0, #16
 8008478:	f7ff ff02 	bl	8008280 <malloc>
 800847c:	4602      	mov	r2, r0
 800847e:	61e8      	str	r0, [r5, #28]
 8008480:	b920      	cbnz	r0, 800848c <_Bfree+0x20>
 8008482:	218f      	movs	r1, #143	@ 0x8f
 8008484:	4b08      	ldr	r3, [pc, #32]	@ (80084a8 <_Bfree+0x3c>)
 8008486:	4809      	ldr	r0, [pc, #36]	@ (80084ac <_Bfree+0x40>)
 8008488:	f000 fd54 	bl	8008f34 <__assert_func>
 800848c:	e9c0 6601 	strd	r6, r6, [r0, #4]
 8008490:	6006      	str	r6, [r0, #0]
 8008492:	60c6      	str	r6, [r0, #12]
 8008494:	b13c      	cbz	r4, 80084a6 <_Bfree+0x3a>
 8008496:	69eb      	ldr	r3, [r5, #28]
 8008498:	6862      	ldr	r2, [r4, #4]
 800849a:	68db      	ldr	r3, [r3, #12]
 800849c:	f853 1022 	ldr.w	r1, [r3, r2, lsl #2]
 80084a0:	6021      	str	r1, [r4, #0]
 80084a2:	f843 4022 	str.w	r4, [r3, r2, lsl #2]
 80084a6:	bd70      	pop	{r4, r5, r6, pc}
 80084a8:	08009c2d 	.word	0x08009c2d
 80084ac:	08009cad 	.word	0x08009cad

080084b0 <__multadd>:
 80084b0:	e92d 41f0 	stmdb	sp!, {r4, r5, r6, r7, r8, lr}
 80084b4:	4607      	mov	r7, r0
 80084b6:	460c      	mov	r4, r1
 80084b8:	461e      	mov	r6, r3
 80084ba:	2000      	movs	r0, #0
 80084bc:	690d      	ldr	r5, [r1, #16]
 80084be:	f101 0c14 	add.w	ip, r1, #20
 80084c2:	f8dc 3000 	ldr.w	r3, [ip]
 80084c6:	3001      	adds	r0, #1
 80084c8:	b299      	uxth	r1, r3
 80084ca:	fb02 6101 	mla	r1, r2, r1, r6
 80084ce:	0c1e      	lsrs	r6, r3, #16
 80084d0:	0c0b      	lsrs	r3, r1, #16
 80084d2:	fb02 3306 	mla	r3, r2, r6, r3
 80084d6:	b289      	uxth	r1, r1
 80084d8:	eb01 4103 	add.w	r1, r1, r3, lsl #16
 80084dc:	4285      	cmp	r5, r0
 80084de:	ea4f 4613 	mov.w	r6, r3, lsr #16
 80084e2:	f84c 1b04 	str.w	r1, [ip], #4
 80084e6:	dcec      	bgt.n	80084c2 <__multadd+0x12>
 80084e8:	b30e      	cbz	r6, 800852e <__multadd+0x7e>
 80084ea:	68a3      	ldr	r3, [r4, #8]
 80084ec:	42ab      	cmp	r3, r5
 80084ee:	dc19      	bgt.n	8008524 <__multadd+0x74>
 80084f0:	6861      	ldr	r1, [r4, #4]
 80084f2:	4638      	mov	r0, r7
 80084f4:	3101      	adds	r1, #1
 80084f6:	f7ff ff79 	bl	80083ec <_Balloc>
 80084fa:	4680      	mov	r8, r0
 80084fc:	b928      	cbnz	r0, 800850a <__multadd+0x5a>
 80084fe:	4602      	mov	r2, r0
 8008500:	21ba      	movs	r1, #186	@ 0xba
 8008502:	4b0c      	ldr	r3, [pc, #48]	@ (8008534 <__multadd+0x84>)
 8008504:	480c      	ldr	r0, [pc, #48]	@ (8008538 <__multadd+0x88>)
 8008506:	f000 fd15 	bl	8008f34 <__assert_func>
 800850a:	6922      	ldr	r2, [r4, #16]
 800850c:	f104 010c 	add.w	r1, r4, #12
 8008510:	3202      	adds	r2, #2
 8008512:	0092      	lsls	r2, r2, #2
 8008514:	300c      	adds	r0, #12
 8008516:	f7fe fffe 	bl	8007516 <memcpy>
 800851a:	4621      	mov	r1, r4
 800851c:	4638      	mov	r0, r7
 800851e:	f7ff ffa5 	bl	800846c <_Bfree>
 8008522:	4644      	mov	r4, r8
 8008524:	eb04 0385 	add.w	r3, r4, r5, lsl #2
 8008528:	3501      	adds	r5, #1
 800852a:	615e      	str	r6, [r3, #20]
 800852c:	6125      	str	r5, [r4, #16]
 800852e:	4620      	mov	r0, r4
 8008530:	e8bd 81f0 	ldmia.w	sp!, {r4, r5, r6, r7, r8, pc}
 8008534:	08009c9c 	.word	0x08009c9c
 8008538:	08009cad 	.word	0x08009cad

0800853c <__hi0bits>:
 800853c:	4603      	mov	r3, r0
 800853e:	f5b0 3f80 	cmp.w	r0, #65536	@ 0x10000
 8008542:	bf3a      	itte	cc
 8008544:	0403      	lslcc	r3, r0, #16
 8008546:	2010      	movcc	r0, #16
 8008548:	2000      	movcs	r0, #0
 800854a:	f1b3 7f80 	cmp.w	r3, #16777216	@ 0x1000000
 800854e:	bf3c      	itt	cc
 8008550:	021b      	lslcc	r3, r3, #8
 8008552:	3008      	addcc	r0, #8
 8008554:	f1b3 5f80 	cmp.w	r3, #268435456	@ 0x10000000
 8008558:	bf3c      	itt	cc
 800855a:	011b      	lslcc	r3, r3, #4
 800855c:	3004      	addcc	r0, #4
 800855e:	f1b3 4f80 	cmp.w	r3, #1073741824	@ 0x40000000
 8008562:	bf3c      	itt	cc
 8008564:	009b      	lslcc	r3, r3, #2
 8008566:	3002      	addcc	r0, #2
 8008568:	2b00      	cmp	r3, #0
 800856a:	db05      	blt.n	8008578 <__hi0bits+0x3c>
 800856c:	f013 4f80 	tst.w	r3, #1073741824	@ 0x40000000
 8008570:	f100 0001 	add.w	r0, r0, #1
 8008574:	bf08      	it	eq
 8008576:	2020      	moveq	r0, #32
 8008578:	4770      	bx	lr

0800857a <__lo0bits>:
 800857a:	6803      	ldr	r3, [r0, #0]
 800857c:	4602      	mov	r2, r0
 800857e:	f013 0007 	ands.w	r0, r3, #7
 8008582:	d00b      	beq.n	800859c <__lo0bits+0x22>
 8008584:	07d9      	lsls	r1, r3, #31
 8008586:	d421      	bmi.n	80085cc <__lo0bits+0x52>
 8008588:	0798      	lsls	r0, r3, #30
 800858a:	bf49      	itett	mi
 800858c:	085b      	lsrmi	r3, r3, #1
 800858e:	089b      	lsrpl	r3, r3, #2
 8008590:	2001      	movmi	r0, #1
 8008592:	6013      	strmi	r3, [r2, #0]
 8008594:	bf5c      	itt	pl
 8008596:	2002      	movpl	r0, #2
 8008598:	6013      	strpl	r3, [r2, #0]
 800859a:	4770      	bx	lr
 800859c:	b299      	uxth	r1, r3
 800859e:	b909      	cbnz	r1, 80085a4 <__lo0bits+0x2a>
 80085a0:	2010      	movs	r0, #16
 80085a2:	0c1b      	lsrs	r3, r3, #16
 80085a4:	b2d9      	uxtb	r1, r3
 80085a6:	b909      	cbnz	r1, 80085ac <__lo0bits+0x32>
 80085a8:	3008      	adds	r0, #8
 80085aa:	0a1b      	lsrs	r3, r3, #8
 80085ac:	0719      	lsls	r1, r3, #28
 80085ae:	bf04      	itt	eq
 80085b0:	091b      	lsreq	r3, r3, #4
 80085b2:	3004      	addeq	r0, #4
 80085b4:	0799      	lsls	r1, r3, #30
 80085b6:	bf04      	itt	eq
 80085b8:	089b      	lsreq	r3, r3, #2
 80085ba:	3002      	addeq	r0, #2
 80085bc:	07d9      	lsls	r1, r3, #31
 80085be:	d403      	bmi.n	80085c8 <__lo0bits+0x4e>
 80085c0:	085b      	lsrs	r3, r3, #1
 80085c2:	f100 0001 	add.w	r0, r0, #1
 80085c6:	d003      	beq.n	80085d0 <__lo0bits+0x56>
 80085c8:	6013      	str	r3, [r2, #0]
 80085ca:	4770      	bx	lr
 80085cc:	2000      	movs	r0, #0
 80085ce:	4770      	bx	lr
 80085d0:	2020      	movs	r0, #32
 80085d2:	4770      	bx	lr

080085d4 <__i2b>:
 80085d4:	b510      	push	{r4, lr}
 80085d6:	460c      	mov	r4, r1
 80085d8:	2101      	movs	r1, #1
 80085da:	f7ff ff07 	bl	80083ec <_Balloc>
 80085de:	4602      	mov	r2, r0
 80085e0:	b928      	cbnz	r0, 80085ee <__i2b+0x1a>
 80085e2:	f240 1145 	movw	r1, #325	@ 0x145
 80085e6:	4b04      	ldr	r3, [pc, #16]	@ (80085f8 <__i2b+0x24>)
 80085e8:	4804      	ldr	r0, [pc, #16]	@ (80085fc <__i2b+0x28>)
 80085ea:	f000 fca3 	bl	8008f34 <__assert_func>
 80085ee:	2301      	movs	r3, #1
 80085f0:	6144      	str	r4, [r0, #20]
 80085f2:	6103      	str	r3, [r0, #16]
 80085f4:	bd10      	pop	{r4, pc}
 80085f6:	bf00      	nop
 80085f8:	08009c9c 	.word	0x08009c9c
 80085fc:	08009cad 	.word	0x08009cad

08008600 <__multiply>:
 8008600:	e92d 4ff0 	stmdb	sp!, {r4, r5, r6, r7, r8, r9, sl, fp, lr}
 8008604:	4617      	mov	r7, r2
 8008606:	690a      	ldr	r2, [r1, #16]
 8008608:	693b      	ldr	r3, [r7, #16]
 800860a:	4689      	mov	r9, r1
 800860c:	429a      	cmp	r2, r3
 800860e:	bfa2      	ittt	ge
 8008610:	463b      	movge	r3, r7
 8008612:	460f      	movge	r7, r1
 8008614:	4699      	movge	r9, r3
 8008616:	693d      	ldr	r5, [r7, #16]
 8008618:	f8d9 a010 	ldr.w	sl, [r9, #16]
 800861c:	68bb      	ldr	r3, [r7, #8]
 800861e:	6879      	ldr	r1, [r7, #4]
 8008620:	eb05 060a 	add.w	r6, r5, sl
 8008624:	42b3      	cmp	r3, r6
 8008626:	b085      	sub	sp, #20
 8008628:	bfb8      	it	lt
 800862a:	3101      	addlt	r1, #1
 800862c:	f7ff fede 	bl	80083ec <_Balloc>
 8008630:	b930      	cbnz	r0, 8008640 <__multiply+0x40>
 8008632:	4602      	mov	r2, r0
 8008634:	f44f 71b1 	mov.w	r1, #354	@ 0x162
 8008638:	4b40      	ldr	r3, [pc, #256]	@ (800873c <__multiply+0x13c>)
 800863a:	4841      	ldr	r0, [pc, #260]	@ (8008740 <__multiply+0x140>)
 800863c:	f000 fc7a 	bl	8008f34 <__assert_func>
 8008640:	f100 0414 	add.w	r4, r0, #20
 8008644:	4623      	mov	r3, r4
 8008646:	2200      	movs	r2, #0
 8008648:	eb04 0e86 	add.w	lr, r4, r6, lsl #2
 800864c:	4573      	cmp	r3, lr
 800864e:	d320      	bcc.n	8008692 <__multiply+0x92>
 8008650:	f107 0814 	add.w	r8, r7, #20
 8008654:	f109 0114 	add.w	r1, r9, #20
 8008658:	eb08 0585 	add.w	r5, r8, r5, lsl #2
 800865c:	eb01 038a 	add.w	r3, r1, sl, lsl #2
 8008660:	9302      	str	r3, [sp, #8]
 8008662:	1beb      	subs	r3, r5, r7
 8008664:	3b15      	subs	r3, #21
 8008666:	f023 0303 	bic.w	r3, r3, #3
 800866a:	3304      	adds	r3, #4
 800866c:	3715      	adds	r7, #21
 800866e:	42bd      	cmp	r5, r7
 8008670:	bf38      	it	cc
 8008672:	2304      	movcc	r3, #4
 8008674:	9301      	str	r3, [sp, #4]
 8008676:	9b02      	ldr	r3, [sp, #8]
 8008678:	9103      	str	r1, [sp, #12]
 800867a:	428b      	cmp	r3, r1
 800867c:	d80c      	bhi.n	8008698 <__multiply+0x98>
 800867e:	2e00      	cmp	r6, #0
 8008680:	dd03      	ble.n	800868a <__multiply+0x8a>
 8008682:	f85e 3d04 	ldr.w	r3, [lr, #-4]!
 8008686:	2b00      	cmp	r3, #0
 8008688:	d055      	beq.n	8008736 <__multiply+0x136>
 800868a:	6106      	str	r6, [r0, #16]
 800868c:	b005      	add	sp, #20
 800868e:	e8bd 8ff0 	ldmia.w	sp!, {r4, r5, r6, r7, r8, r9, sl, fp, pc}
 8008692:	f843 2b04 	str.w	r2, [r3], #4
 8008696:	e7d9      	b.n	800864c <__multiply+0x4c>
 8008698:	f8b1 a000 	ldrh.w	sl, [r1]
 800869c:	f1ba 0f00 	cmp.w	sl, #0
 80086a0:	d01f      	beq.n	80086e2 <__multiply+0xe2>
 80086a2:	46c4      	mov	ip, r8
 80086a4:	46a1      	mov	r9, r4
 80086a6:	2700      	movs	r7, #0
 80086a8:	f85c 2b04 	ldr.w	r2, [ip], #4
 80086ac:	f8d9 3000 	ldr.w	r3, [r9]
 80086b0:	fa1f fb82 	uxth.w	fp, r2
 80086b4:	b29b      	uxth	r3, r3
 80086b6:	fb0a 330b 	mla	r3, sl, fp, r3
 80086ba:	443b      	add	r3, r7
 80086bc:	f8d9 7000 	ldr.w	r7, [r9]
 80086c0:	0c12      	lsrs	r2, r2, #16
 80086c2:	0c3f      	lsrs	r7, r7, #16
 80086c4:	fb0a 7202 	mla	r2, sl, r2, r7
 80086c8:	eb02 4213 	add.w	r2, r2, r3, lsr #16
 80086cc:	b29b      	uxth	r3, r3
 80086ce:	ea43 4302 	orr.w	r3, r3, r2, lsl #16
 80086d2:	4565      	cmp	r5, ip
 80086d4:	ea4f 4712 	mov.w	r7, r2, lsr #16
 80086d8:	f849 3b04 	str.w	r3, [r9], #4
 80086dc:	d8e4      	bhi.n	80086a8 <__multiply+0xa8>
 80086de:	9b01      	ldr	r3, [sp, #4]
 80086e0:	50e7      	str	r7, [r4, r3]
 80086e2:	9b03      	ldr	r3, [sp, #12]
 80086e4:	3104      	adds	r1, #4
 80086e6:	f8b3 9002 	ldrh.w	r9, [r3, #2]
 80086ea:	f1b9 0f00 	cmp.w	r9, #0
 80086ee:	d020      	beq.n	8008732 <__multiply+0x132>
 80086f0:	4647      	mov	r7, r8
 80086f2:	46a4      	mov	ip, r4
 80086f4:	f04f 0a00 	mov.w	sl, #0
 80086f8:	6823      	ldr	r3, [r4, #0]
 80086fa:	f8b7 b000 	ldrh.w	fp, [r7]
 80086fe:	f8bc 2002 	ldrh.w	r2, [ip, #2]
 8008702:	b29b      	uxth	r3, r3
 8008704:	fb09 220b 	mla	r2, r9, fp, r2
 8008708:	4452      	add	r2, sl
 800870a:	ea43 4302 	orr.w	r3, r3, r2, lsl #16
 800870e:	f84c 3b04 	str.w	r3, [ip], #4
 8008712:	f857 3b04 	ldr.w	r3, [r7], #4
 8008716:	ea4f 4a13 	mov.w	sl, r3, lsr #16
 800871a:	f8bc 3000 	ldrh.w	r3, [ip]
 800871e:	42bd      	cmp	r5, r7
 8008720:	fb09 330a 	mla	r3, r9, sl, r3
 8008724:	eb03 4312 	add.w	r3, r3, r2, lsr #16
 8008728:	ea4f 4a13 	mov.w	sl, r3, lsr #16
 800872c:	d8e5      	bhi.n	80086fa <__multiply+0xfa>
 800872e:	9a01      	ldr	r2, [sp, #4]
 8008730:	50a3      	str	r3, [r4, r2]
 8008732:	3404      	adds	r4, #4
 8008734:	e79f      	b.n	8008676 <__multiply+0x76>
 8008736:	3e01      	subs	r6, #1
 8008738:	e7a1      	b.n	800867e <__multiply+0x7e>
 800873a:	bf00      	nop
 800873c:	08009c9c 	.word	0x08009c9c
 8008740:	08009cad 	.word	0x08009cad

08008744 <__pow5mult>:
 8008744:	e92d 43f8 	stmdb	sp!, {r3, r4, r5, r6, r7, r8, r9, lr}
 8008748:	4615      	mov	r5, r2
 800874a:	f012 0203 	ands.w	r2, r2, #3
 800874e:	4607      	mov	r7, r0
 8008750:	460e      	mov	r6, r1
 8008752:	d007      	beq.n	8008764 <__pow5mult+0x20>
 8008754:	4c25      	ldr	r4, [pc, #148]	@ (80087ec <__pow5mult+0xa8>)
 8008756:	3a01      	subs	r2, #1
 8008758:	2300      	movs	r3, #0
 800875a:	f854 2022 	ldr.w	r2, [r4, r2, lsl #2]
 800875e:	f7ff fea7 	bl	80084b0 <__multadd>
 8008762:	4606      	mov	r6, r0
 8008764:	10ad      	asrs	r5, r5, #2
 8008766:	d03d      	beq.n	80087e4 <__pow5mult+0xa0>
 8008768:	69fc      	ldr	r4, [r7, #28]
 800876a:	b97c      	cbnz	r4, 800878c <__pow5mult+0x48>
 800876c:	2010      	movs	r0, #16
 800876e:	f7ff fd87 	bl	8008280 <malloc>
 8008772:	4602      	mov	r2, r0
 8008774:	61f8      	str	r0, [r7, #28]
 8008776:	b928      	cbnz	r0, 8008784 <__pow5mult+0x40>
 8008778:	f240 11b3 	movw	r1, #435	@ 0x1b3
 800877c:	4b1c      	ldr	r3, [pc, #112]	@ (80087f0 <__pow5mult+0xac>)
 800877e:	481d      	ldr	r0, [pc, #116]	@ (80087f4 <__pow5mult+0xb0>)
 8008780:	f000 fbd8 	bl	8008f34 <__assert_func>
 8008784:	e9c0 4401 	strd	r4, r4, [r0, #4]
 8008788:	6004      	str	r4, [r0, #0]
 800878a:	60c4      	str	r4, [r0, #12]
 800878c:	f8d7 801c 	ldr.w	r8, [r7, #28]
 8008790:	f8d8 4008 	ldr.w	r4, [r8, #8]
 8008794:	b94c      	cbnz	r4, 80087aa <__pow5mult+0x66>
 8008796:	f240 2171 	movw	r1, #625	@ 0x271
 800879a:	4638      	mov	r0, r7
 800879c:	f7ff ff1a 	bl	80085d4 <__i2b>
 80087a0:	2300      	movs	r3, #0
 80087a2:	4604      	mov	r4, r0
 80087a4:	f8c8 0008 	str.w	r0, [r8, #8]
 80087a8:	6003      	str	r3, [r0, #0]
 80087aa:	f04f 0900 	mov.w	r9, #0
 80087ae:	07eb      	lsls	r3, r5, #31
 80087b0:	d50a      	bpl.n	80087c8 <__pow5mult+0x84>
 80087b2:	4631      	mov	r1, r6
 80087b4:	4622      	mov	r2, r4
 80087b6:	4638      	mov	r0, r7
 80087b8:	f7ff ff22 	bl	8008600 <__multiply>
 80087bc:	4680      	mov	r8, r0
 80087be:	4631      	mov	r1, r6
 80087c0:	4638      	mov	r0, r7
 80087c2:	f7ff fe53 	bl	800846c <_Bfree>
 80087c6:	4646      	mov	r6, r8
 80087c8:	106d      	asrs	r5, r5, #1
 80087ca:	d00b      	beq.n	80087e4 <__pow5mult+0xa0>
 80087cc:	6820      	ldr	r0, [r4, #0]
 80087ce:	b938      	cbnz	r0, 80087e0 <__pow5mult+0x9c>
 80087d0:	4622      	mov	r2, r4
 80087d2:	4621      	mov	r1, r4
 80087d4:	4638      	mov	r0, r7
 80087d6:	f7ff ff13 	bl	8008600 <__multiply>
 80087da:	6020      	str	r0, [r4, #0]
 80087dc:	f8c0 9000 	str.w	r9, [r0]
 80087e0:	4604      	mov	r4, r0
 80087e2:	e7e4      	b.n	80087ae <__pow5mult+0x6a>
 80087e4:	4630      	mov	r0, r6
 80087e6:	e8bd 83f8 	ldmia.w	sp!, {r3, r4, r5, r6, r7, r8, r9, pc}
 80087ea:	bf00      	nop
 80087ec:	08009e84 	.word	0x08009e84
 80087f0:	08009c2d 	.word	0x08009c2d
 80087f4:	08009cad 	.word	0x08009cad

080087f8 <__lshift>:
 80087f8:	e92d 47f0 	stmdb	sp!, {r4, r5, r6, r7, r8, r9, sl, lr}
 80087fc:	460c      	mov	r4, r1
 80087fe:	4607      	mov	r7, r0
 8008800:	4691      	mov	r9, r2
 8008802:	6923      	ldr	r3, [r4, #16]
 8008804:	6849      	ldr	r1, [r1, #4]
 8008806:	eb03 1862 	add.w	r8, r3, r2, asr #5
 800880a:	68a3      	ldr	r3, [r4, #8]
 800880c:	ea4f 1a62 	mov.w	sl, r2, asr #5
 8008810:	f108 0601 	add.w	r6, r8, #1
 8008814:	42b3      	cmp	r3, r6
 8008816:	db0b      	blt.n	8008830 <__lshift+0x38>
 8008818:	4638      	mov	r0, r7
 800881a:	f7ff fde7 	bl	80083ec <_Balloc>
 800881e:	4605      	mov	r5, r0
 8008820:	b948      	cbnz	r0, 8008836 <__lshift+0x3e>
 8008822:	4602      	mov	r2, r0
 8008824:	f44f 71ef 	mov.w	r1, #478	@ 0x1de
 8008828:	4b27      	ldr	r3, [pc, #156]	@ (80088c8 <__lshift+0xd0>)
 800882a:	4828      	ldr	r0, [pc, #160]	@ (80088cc <__lshift+0xd4>)
 800882c:	f000 fb82 	bl	8008f34 <__assert_func>
 8008830:	3101      	adds	r1, #1
 8008832:	005b      	lsls	r3, r3, #1
 8008834:	e7ee      	b.n	8008814 <__lshift+0x1c>
 8008836:	2300      	movs	r3, #0
 8008838:	f100 0114 	add.w	r1, r0, #20
 800883c:	f100 0210 	add.w	r2, r0, #16
 8008840:	4618      	mov	r0, r3
 8008842:	4553      	cmp	r3, sl
 8008844:	db33      	blt.n	80088ae <__lshift+0xb6>
 8008846:	6920      	ldr	r0, [r4, #16]
 8008848:	ea2a 7aea 	bic.w	sl, sl, sl, asr #31
 800884c:	f104 0314 	add.w	r3, r4, #20
 8008850:	f019 091f 	ands.w	r9, r9, #31
 8008854:	eb01 018a 	add.w	r1, r1, sl, lsl #2
 8008858:	eb03 0c80 	add.w	ip, r3, r0, lsl #2
 800885c:	d02b      	beq.n	80088b6 <__lshift+0xbe>
 800885e:	468a      	mov	sl, r1
 8008860:	2200      	movs	r2, #0
 8008862:	f1c9 0e20 	rsb	lr, r9, #32
 8008866:	6818      	ldr	r0, [r3, #0]
 8008868:	fa00 f009 	lsl.w	r0, r0, r9
 800886c:	4310      	orrs	r0, r2
 800886e:	f84a 0b04 	str.w	r0, [sl], #4
 8008872:	f853 2b04 	ldr.w	r2, [r3], #4
 8008876:	459c      	cmp	ip, r3
 8008878:	fa22 f20e 	lsr.w	r2, r2, lr
 800887c:	d8f3      	bhi.n	8008866 <__lshift+0x6e>
 800887e:	ebac 0304 	sub.w	r3, ip, r4
 8008882:	3b15      	subs	r3, #21
 8008884:	f023 0303 	bic.w	r3, r3, #3
 8008888:	3304      	adds	r3, #4
 800888a:	f104 0015 	add.w	r0, r4, #21
 800888e:	4560      	cmp	r0, ip
 8008890:	bf88      	it	hi
 8008892:	2304      	movhi	r3, #4
 8008894:	50ca      	str	r2, [r1, r3]
 8008896:	b10a      	cbz	r2, 800889c <__lshift+0xa4>
 8008898:	f108 0602 	add.w	r6, r8, #2
 800889c:	3e01      	subs	r6, #1
 800889e:	4638      	mov	r0, r7
 80088a0:	4621      	mov	r1, r4
 80088a2:	612e      	str	r6, [r5, #16]
 80088a4:	f7ff fde2 	bl	800846c <_Bfree>
 80088a8:	4628      	mov	r0, r5
 80088aa:	e8bd 87f0 	ldmia.w	sp!, {r4, r5, r6, r7, r8, r9, sl, pc}
 80088ae:	f842 0f04 	str.w	r0, [r2, #4]!
 80088b2:	3301      	adds	r3, #1
 80088b4:	e7c5      	b.n	8008842 <__lshift+0x4a>
 80088b6:	3904      	subs	r1, #4
 80088b8:	f853 2b04 	ldr.w	r2, [r3], #4
 80088bc:	459c      	cmp	ip, r3
 80088be:	f841 2f04 	str.w	r2, [r1, #4]!
 80088c2:	d8f9      	bhi.n	80088b8 <__lshift+0xc0>
 80088c4:	e7ea      	b.n	800889c <__lshift+0xa4>
 80088c6:	bf00      	nop
 80088c8:	08009c9c 	.word	0x08009c9c
 80088cc:	08009cad 	.word	0x08009cad

080088d0 <__mcmp>:
 80088d0:	4603      	mov	r3, r0
 80088d2:	690a      	ldr	r2, [r1, #16]
 80088d4:	6900      	ldr	r0, [r0, #16]
 80088d6:	b530      	push	{r4, r5, lr}
 80088d8:	1a80      	subs	r0, r0, r2
 80088da:	d10e      	bne.n	80088fa <__mcmp+0x2a>
 80088dc:	3314      	adds	r3, #20
 80088de:	3114      	adds	r1, #20
 80088e0:	eb03 0482 	add.w	r4, r3, r2, lsl #2
 80088e4:	eb01 0182 	add.w	r1, r1, r2, lsl #2
 80088e8:	f854 5d04 	ldr.w	r5, [r4, #-4]!
 80088ec:	f851 2d04 	ldr.w	r2, [r1, #-4]!
 80088f0:	4295      	cmp	r5, r2
 80088f2:	d003      	beq.n	80088fc <__mcmp+0x2c>
 80088f4:	d205      	bcs.n	8008902 <__mcmp+0x32>
 80088f6:	f04f 30ff 	mov.w	r0, #4294967295
 80088fa:	bd30      	pop	{r4, r5, pc}
 80088fc:	42a3      	cmp	r3, r4
 80088fe:	d3f3      	bcc.n	80088e8 <__mcmp+0x18>
 8008900:	e7fb      	b.n	80088fa <__mcmp+0x2a>
 8008902:	2001      	movs	r0, #1
 8008904:	e7f9      	b.n	80088fa <__mcmp+0x2a>
	...

08008908 <__mdiff>:
 8008908:	e92d 4ff7 	stmdb	sp!, {r0, r1, r2, r4, r5, r6, r7, r8, r9, sl, fp, lr}
 800890c:	4689      	mov	r9, r1
 800890e:	4606      	mov	r6, r0
 8008910:	4611      	mov	r1, r2
 8008912:	4648      	mov	r0, r9
 8008914:	4614      	mov	r4, r2
 8008916:	f7ff ffdb 	bl	80088d0 <__mcmp>
 800891a:	1e05      	subs	r5, r0, #0
 800891c:	d112      	bne.n	8008944 <__mdiff+0x3c>
 800891e:	4629      	mov	r1, r5
 8008920:	4630      	mov	r0, r6
 8008922:	f7ff fd63 	bl	80083ec <_Balloc>
 8008926:	4602      	mov	r2, r0
 8008928:	b928      	cbnz	r0, 8008936 <__mdiff+0x2e>
 800892a:	f240 2137 	movw	r1, #567	@ 0x237
 800892e:	4b3e      	ldr	r3, [pc, #248]	@ (8008a28 <__mdiff+0x120>)
 8008930:	483e      	ldr	r0, [pc, #248]	@ (8008a2c <__mdiff+0x124>)
 8008932:	f000 faff 	bl	8008f34 <__assert_func>
 8008936:	2301      	movs	r3, #1
 8008938:	e9c0 3504 	strd	r3, r5, [r0, #16]
 800893c:	4610      	mov	r0, r2
 800893e:	b003      	add	sp, #12
 8008940:	e8bd 8ff0 	ldmia.w	sp!, {r4, r5, r6, r7, r8, r9, sl, fp, pc}
 8008944:	bfbc      	itt	lt
 8008946:	464b      	movlt	r3, r9
 8008948:	46a1      	movlt	r9, r4
 800894a:	4630      	mov	r0, r6
 800894c:	f8d9 1004 	ldr.w	r1, [r9, #4]
 8008950:	bfba      	itte	lt
 8008952:	461c      	movlt	r4, r3
 8008954:	2501      	movlt	r5, #1
 8008956:	2500      	movge	r5, #0
 8008958:	f7ff fd48 	bl	80083ec <_Balloc>
 800895c:	4602      	mov	r2, r0
 800895e:	b918      	cbnz	r0, 8008968 <__mdiff+0x60>
 8008960:	f240 2145 	movw	r1, #581	@ 0x245
 8008964:	4b30      	ldr	r3, [pc, #192]	@ (8008a28 <__mdiff+0x120>)
 8008966:	e7e3      	b.n	8008930 <__mdiff+0x28>
 8008968:	f100 0b14 	add.w	fp, r0, #20
 800896c:	f8d9 7010 	ldr.w	r7, [r9, #16]
 8008970:	f109 0310 	add.w	r3, r9, #16
 8008974:	60c5      	str	r5, [r0, #12]
 8008976:	f04f 0c00 	mov.w	ip, #0
 800897a:	f109 0514 	add.w	r5, r9, #20
 800897e:	46d9      	mov	r9, fp
 8008980:	6926      	ldr	r6, [r4, #16]
 8008982:	f104 0e14 	add.w	lr, r4, #20
 8008986:	eb05 0887 	add.w	r8, r5, r7, lsl #2
 800898a:	eb0e 0686 	add.w	r6, lr, r6, lsl #2
 800898e:	9301      	str	r3, [sp, #4]
 8008990:	9b01      	ldr	r3, [sp, #4]
 8008992:	f85e 0b04 	ldr.w	r0, [lr], #4
 8008996:	f853 af04 	ldr.w	sl, [r3, #4]!
 800899a:	b281      	uxth	r1, r0
 800899c:	9301      	str	r3, [sp, #4]
 800899e:	fa1f f38a 	uxth.w	r3, sl
 80089a2:	1a5b      	subs	r3, r3, r1
 80089a4:	0c00      	lsrs	r0, r0, #16
 80089a6:	4463      	add	r3, ip
 80089a8:	ebc0 401a 	rsb	r0, r0, sl, lsr #16
 80089ac:	eb00 4023 	add.w	r0, r0, r3, asr #16
 80089b0:	b29b      	uxth	r3, r3
 80089b2:	ea43 4300 	orr.w	r3, r3, r0, lsl #16
 80089b6:	4576      	cmp	r6, lr
 80089b8:	ea4f 4c20 	mov.w	ip, r0, asr #16
 80089bc:	f849 3b04 	str.w	r3, [r9], #4
 80089c0:	d8e6      	bhi.n	8008990 <__mdiff+0x88>
 80089c2:	1b33      	subs	r3, r6, r4
 80089c4:	3b15      	subs	r3, #21
 80089c6:	f023 0303 	bic.w	r3, r3, #3
 80089ca:	3415      	adds	r4, #21
 80089cc:	3304      	adds	r3, #4
 80089ce:	42a6      	cmp	r6, r4
 80089d0:	bf38      	it	cc
 80089d2:	2304      	movcc	r3, #4
 80089d4:	441d      	add	r5, r3
 80089d6:	445b      	add	r3, fp
 80089d8:	461e      	mov	r6, r3
 80089da:	462c      	mov	r4, r5
 80089dc:	4544      	cmp	r4, r8
 80089de:	d30e      	bcc.n	80089fe <__mdiff+0xf6>
 80089e0:	f108 0103 	add.w	r1, r8, #3
 80089e4:	1b49      	subs	r1, r1, r5
 80089e6:	f021 0103 	bic.w	r1, r1, #3
 80089ea:	3d03      	subs	r5, #3
 80089ec:	45a8      	cmp	r8, r5
 80089ee:	bf38      	it	cc
 80089f0:	2100      	movcc	r1, #0
 80089f2:	440b      	add	r3, r1
 80089f4:	f853 1d04 	ldr.w	r1, [r3, #-4]!
 80089f8:	b199      	cbz	r1, 8008a22 <__mdiff+0x11a>
 80089fa:	6117      	str	r7, [r2, #16]
 80089fc:	e79e      	b.n	800893c <__mdiff+0x34>
 80089fe:	46e6      	mov	lr, ip
 8008a00:	f854 1b04 	ldr.w	r1, [r4], #4
 8008a04:	fa1f fc81 	uxth.w	ip, r1
 8008a08:	44f4      	add	ip, lr
 8008a0a:	0c08      	lsrs	r0, r1, #16
 8008a0c:	4471      	add	r1, lr
 8008a0e:	eb00 402c 	add.w	r0, r0, ip, asr #16
 8008a12:	b289      	uxth	r1, r1
 8008a14:	ea41 4100 	orr.w	r1, r1, r0, lsl #16
 8008a18:	ea4f 4c20 	mov.w	ip, r0, asr #16
 8008a1c:	f846 1b04 	str.w	r1, [r6], #4
 8008a20:	e7dc      	b.n	80089dc <__mdiff+0xd4>
 8008a22:	3f01      	subs	r7, #1
 8008a24:	e7e6      	b.n	80089f4 <__mdiff+0xec>
 8008a26:	bf00      	nop
 8008a28:	08009c9c 	.word	0x08009c9c
 8008a2c:	08009cad 	.word	0x08009cad

08008a30 <__d2b>:
 8008a30:	e92d 4373 	stmdb	sp!, {r0, r1, r4, r5, r6, r8, r9, lr}
 8008a34:	2101      	movs	r1, #1
 8008a36:	4690      	mov	r8, r2
 8008a38:	4699      	mov	r9, r3
 8008a3a:	9e08      	ldr	r6, [sp, #32]
 8008a3c:	f7ff fcd6 	bl	80083ec <_Balloc>
 8008a40:	4604      	mov	r4, r0
 8008a42:	b930      	cbnz	r0, 8008a52 <__d2b+0x22>
 8008a44:	4602      	mov	r2, r0
 8008a46:	f240 310f 	movw	r1, #783	@ 0x30f
 8008a4a:	4b23      	ldr	r3, [pc, #140]	@ (8008ad8 <__d2b+0xa8>)
 8008a4c:	4823      	ldr	r0, [pc, #140]	@ (8008adc <__d2b+0xac>)
 8008a4e:	f000 fa71 	bl	8008f34 <__assert_func>
 8008a52:	f3c9 550a 	ubfx	r5, r9, #20, #11
 8008a56:	f3c9 0313 	ubfx	r3, r9, #0, #20
 8008a5a:	b10d      	cbz	r5, 8008a60 <__d2b+0x30>
 8008a5c:	f443 1380 	orr.w	r3, r3, #1048576	@ 0x100000
 8008a60:	9301      	str	r3, [sp, #4]
 8008a62:	f1b8 0300 	subs.w	r3, r8, #0
 8008a66:	d024      	beq.n	8008ab2 <__d2b+0x82>
 8008a68:	4668      	mov	r0, sp
 8008a6a:	9300      	str	r3, [sp, #0]
 8008a6c:	f7ff fd85 	bl	800857a <__lo0bits>
 8008a70:	e9dd 1200 	ldrd	r1, r2, [sp]
 8008a74:	b1d8      	cbz	r0, 8008aae <__d2b+0x7e>
 8008a76:	f1c0 0320 	rsb	r3, r0, #32
 8008a7a:	fa02 f303 	lsl.w	r3, r2, r3
 8008a7e:	430b      	orrs	r3, r1
 8008a80:	40c2      	lsrs	r2, r0
 8008a82:	6163      	str	r3, [r4, #20]
 8008a84:	9201      	str	r2, [sp, #4]
 8008a86:	9b01      	ldr	r3, [sp, #4]
 8008a88:	2b00      	cmp	r3, #0
 8008a8a:	bf0c      	ite	eq
 8008a8c:	2201      	moveq	r2, #1
 8008a8e:	2202      	movne	r2, #2
 8008a90:	61a3      	str	r3, [r4, #24]
 8008a92:	6122      	str	r2, [r4, #16]
 8008a94:	b1ad      	cbz	r5, 8008ac2 <__d2b+0x92>
 8008a96:	f2a5 4533 	subw	r5, r5, #1075	@ 0x433
 8008a9a:	4405      	add	r5, r0
 8008a9c:	6035      	str	r5, [r6, #0]
 8008a9e:	f1c0 0035 	rsb	r0, r0, #53	@ 0x35
 8008aa2:	9b09      	ldr	r3, [sp, #36]	@ 0x24
 8008aa4:	6018      	str	r0, [r3, #0]
 8008aa6:	4620      	mov	r0, r4
 8008aa8:	b002      	add	sp, #8
 8008aaa:	e8bd 8370 	ldmia.w	sp!, {r4, r5, r6, r8, r9, pc}
 8008aae:	6161      	str	r1, [r4, #20]
 8008ab0:	e7e9      	b.n	8008a86 <__d2b+0x56>
 8008ab2:	a801      	add	r0, sp, #4
 8008ab4:	f7ff fd61 	bl	800857a <__lo0bits>
 8008ab8:	9b01      	ldr	r3, [sp, #4]
 8008aba:	2201      	movs	r2, #1
 8008abc:	6163      	str	r3, [r4, #20]
 8008abe:	3020      	adds	r0, #32
 8008ac0:	e7e7      	b.n	8008a92 <__d2b+0x62>
 8008ac2:	f2a0 4032 	subw	r0, r0, #1074	@ 0x432
 8008ac6:	eb04 0382 	add.w	r3, r4, r2, lsl #2
 8008aca:	6030      	str	r0, [r6, #0]
 8008acc:	6918      	ldr	r0, [r3, #16]
 8008ace:	f7ff fd35 	bl	800853c <__hi0bits>
 8008ad2:	ebc0 1042 	rsb	r0, r0, r2, lsl #5
 8008ad6:	e7e4      	b.n	8008aa2 <__d2b+0x72>
 8008ad8:	08009c9c 	.word	0x08009c9c
 8008adc:	08009cad 	.word	0x08009cad

08008ae0 <__ssputs_r>:
 8008ae0:	e92d 47f0 	stmdb	sp!, {r4, r5, r6, r7, r8, r9, sl, lr}
 8008ae4:	461f      	mov	r7, r3
 8008ae6:	688e      	ldr	r6, [r1, #8]
 8008ae8:	4682      	mov	sl, r0
 8008aea:	42be      	cmp	r6, r7
 8008aec:	460c      	mov	r4, r1
 8008aee:	4690      	mov	r8, r2
 8008af0:	680b      	ldr	r3, [r1, #0]
 8008af2:	d82d      	bhi.n	8008b50 <__ssputs_r+0x70>
 8008af4:	f9b1 200c 	ldrsh.w	r2, [r1, #12]
 8008af8:	f412 6f90 	tst.w	r2, #1152	@ 0x480
 8008afc:	d026      	beq.n	8008b4c <__ssputs_r+0x6c>
 8008afe:	6965      	ldr	r5, [r4, #20]
 8008b00:	6909      	ldr	r1, [r1, #16]
 8008b02:	eb05 0545 	add.w	r5, r5, r5, lsl #1
 8008b06:	eba3 0901 	sub.w	r9, r3, r1
 8008b0a:	eb05 75d5 	add.w	r5, r5, r5, lsr #31
 8008b0e:	1c7b      	adds	r3, r7, #1
 8008b10:	444b      	add	r3, r9
 8008b12:	106d      	asrs	r5, r5, #1
 8008b14:	429d      	cmp	r5, r3
 8008b16:	bf38      	it	cc
 8008b18:	461d      	movcc	r5, r3
 8008b1a:	0553      	lsls	r3, r2, #21
 8008b1c:	d527      	bpl.n	8008b6e <__ssputs_r+0x8e>
 8008b1e:	4629      	mov	r1, r5
 8008b20:	f7ff fbd8 	bl	80082d4 <_malloc_r>
 8008b24:	4606      	mov	r6, r0
 8008b26:	b360      	cbz	r0, 8008b82 <__ssputs_r+0xa2>
 8008b28:	464a      	mov	r2, r9
 8008b2a:	6921      	ldr	r1, [r4, #16]
 8008b2c:	f7fe fcf3 	bl	8007516 <memcpy>
 8008b30:	89a3      	ldrh	r3, [r4, #12]
 8008b32:	f423 6390 	bic.w	r3, r3, #1152	@ 0x480
 8008b36:	f043 0380 	orr.w	r3, r3, #128	@ 0x80
 8008b3a:	81a3      	strh	r3, [r4, #12]
 8008b3c:	6126      	str	r6, [r4, #16]
 8008b3e:	444e      	add	r6, r9
 8008b40:	6026      	str	r6, [r4, #0]
 8008b42:	463e      	mov	r6, r7
 8008b44:	6165      	str	r5, [r4, #20]
 8008b46:	eba5 0509 	sub.w	r5, r5, r9
 8008b4a:	60a5      	str	r5, [r4, #8]
 8008b4c:	42be      	cmp	r6, r7
 8008b4e:	d900      	bls.n	8008b52 <__ssputs_r+0x72>
 8008b50:	463e      	mov	r6, r7
 8008b52:	4632      	mov	r2, r6
 8008b54:	4641      	mov	r1, r8
 8008b56:	6820      	ldr	r0, [r4, #0]
 8008b58:	f000 f9c2 	bl	8008ee0 <memmove>
 8008b5c:	2000      	movs	r0, #0
 8008b5e:	68a3      	ldr	r3, [r4, #8]
 8008b60:	1b9b      	subs	r3, r3, r6
 8008b62:	60a3      	str	r3, [r4, #8]
 8008b64:	6823      	ldr	r3, [r4, #0]
 8008b66:	4433      	add	r3, r6
 8008b68:	6023      	str	r3, [r4, #0]
 8008b6a:	e8bd 87f0 	ldmia.w	sp!, {r4, r5, r6, r7, r8, r9, sl, pc}
 8008b6e:	462a      	mov	r2, r5
 8008b70:	f000 fa24 	bl	8008fbc <_realloc_r>
 8008b74:	4606      	mov	r6, r0
 8008b76:	2800      	cmp	r0, #0
 8008b78:	d1e0      	bne.n	8008b3c <__ssputs_r+0x5c>
 8008b7a:	4650      	mov	r0, sl
 8008b7c:	6921      	ldr	r1, [r4, #16]
 8008b7e:	f7ff fb37 	bl	80081f0 <_free_r>
 8008b82:	230c      	movs	r3, #12
 8008b84:	f8ca 3000 	str.w	r3, [sl]
 8008b88:	89a3      	ldrh	r3, [r4, #12]
 8008b8a:	f04f 30ff 	mov.w	r0, #4294967295
 8008b8e:	f043 0340 	orr.w	r3, r3, #64	@ 0x40
 8008b92:	81a3      	strh	r3, [r4, #12]
 8008b94:	e7e9      	b.n	8008b6a <__ssputs_r+0x8a>
	...

08008b98 <_svfiprintf_r>:
 8008b98:	e92d 4ff0 	stmdb	sp!, {r4, r5, r6, r7, r8, r9, sl, fp, lr}
 8008b9c:	4698      	mov	r8, r3
 8008b9e:	898b      	ldrh	r3, [r1, #12]
 8008ba0:	4607      	mov	r7, r0
 8008ba2:	061b      	lsls	r3, r3, #24
 8008ba4:	460d      	mov	r5, r1
 8008ba6:	4614      	mov	r4, r2
 8008ba8:	b09d      	sub	sp, #116	@ 0x74
 8008baa:	d510      	bpl.n	8008bce <_svfiprintf_r+0x36>
 8008bac:	690b      	ldr	r3, [r1, #16]
 8008bae:	b973      	cbnz	r3, 8008bce <_svfiprintf_r+0x36>
 8008bb0:	2140      	movs	r1, #64	@ 0x40
 8008bb2:	f7ff fb8f 	bl	80082d4 <_malloc_r>
 8008bb6:	6028      	str	r0, [r5, #0]
 8008bb8:	6128      	str	r0, [r5, #16]
 8008bba:	b930      	cbnz	r0, 8008bca <_svfiprintf_r+0x32>
 8008bbc:	230c      	movs	r3, #12
 8008bbe:	603b      	str	r3, [r7, #0]
 8008bc0:	f04f 30ff 	mov.w	r0, #4294967295
 8008bc4:	b01d      	add	sp, #116	@ 0x74
 8008bc6:	e8bd 8ff0 	ldmia.w	sp!, {r4, r5, r6, r7, r8, r9, sl, fp, pc}
 8008bca:	2340      	movs	r3, #64	@ 0x40
 8008bcc:	616b      	str	r3, [r5, #20]
 8008bce:	2300      	movs	r3, #0
 8008bd0:	9309      	str	r3, [sp, #36]	@ 0x24
 8008bd2:	2320      	movs	r3, #32
 8008bd4:	f88d 3029 	strb.w	r3, [sp, #41]	@ 0x29
 8008bd8:	2330      	movs	r3, #48	@ 0x30
 8008bda:	f04f 0901 	mov.w	r9, #1
 8008bde:	f8cd 800c 	str.w	r8, [sp, #12]
 8008be2:	f8df 8198 	ldr.w	r8, [pc, #408]	@ 8008d7c <_svfiprintf_r+0x1e4>
 8008be6:	f88d 302a 	strb.w	r3, [sp, #42]	@ 0x2a
 8008bea:	4623      	mov	r3, r4
 8008bec:	469a      	mov	sl, r3
 8008bee:	f813 2b01 	ldrb.w	r2, [r3], #1
 8008bf2:	b10a      	cbz	r2, 8008bf8 <_svfiprintf_r+0x60>
 8008bf4:	2a25      	cmp	r2, #37	@ 0x25
 8008bf6:	d1f9      	bne.n	8008bec <_svfiprintf_r+0x54>
 8008bf8:	ebba 0b04 	subs.w	fp, sl, r4
 8008bfc:	d00b      	beq.n	8008c16 <_svfiprintf_r+0x7e>
 8008bfe:	465b      	mov	r3, fp
 8008c00:	4622      	mov	r2, r4
 8008c02:	4629      	mov	r1, r5
 8008c04:	4638      	mov	r0, r7
 8008c06:	f7ff ff6b 	bl	8008ae0 <__ssputs_r>
 8008c0a:	3001      	adds	r0, #1
 8008c0c:	f000 80a7 	beq.w	8008d5e <_svfiprintf_r+0x1c6>
 8008c10:	9a09      	ldr	r2, [sp, #36]	@ 0x24
 8008c12:	445a      	add	r2, fp
 8008c14:	9209      	str	r2, [sp, #36]	@ 0x24
 8008c16:	f89a 3000 	ldrb.w	r3, [sl]
 8008c1a:	2b00      	cmp	r3, #0
 8008c1c:	f000 809f 	beq.w	8008d5e <_svfiprintf_r+0x1c6>
 8008c20:	2300      	movs	r3, #0
 8008c22:	f04f 32ff 	mov.w	r2, #4294967295
 8008c26:	e9cd 2305 	strd	r2, r3, [sp, #20]
 8008c2a:	f10a 0a01 	add.w	sl, sl, #1
 8008c2e:	9304      	str	r3, [sp, #16]
 8008c30:	9307      	str	r3, [sp, #28]
 8008c32:	f88d 3053 	strb.w	r3, [sp, #83]	@ 0x53
 8008c36:	931a      	str	r3, [sp, #104]	@ 0x68
 8008c38:	4654      	mov	r4, sl
 8008c3a:	2205      	movs	r2, #5
 8008c3c:	f814 1b01 	ldrb.w	r1, [r4], #1
 8008c40:	484e      	ldr	r0, [pc, #312]	@ (8008d7c <_svfiprintf_r+0x1e4>)
 8008c42:	f7fe fc5a 	bl	80074fa <memchr>
 8008c46:	9a04      	ldr	r2, [sp, #16]
 8008c48:	b9d8      	cbnz	r0, 8008c82 <_svfiprintf_r+0xea>
 8008c4a:	06d0      	lsls	r0, r2, #27
 8008c4c:	bf44      	itt	mi
 8008c4e:	2320      	movmi	r3, #32
 8008c50:	f88d 3053 	strbmi.w	r3, [sp, #83]	@ 0x53
 8008c54:	0711      	lsls	r1, r2, #28
 8008c56:	bf44      	itt	mi
 8008c58:	232b      	movmi	r3, #43	@ 0x2b
 8008c5a:	f88d 3053 	strbmi.w	r3, [sp, #83]	@ 0x53
 8008c5e:	f89a 3000 	ldrb.w	r3, [sl]
 8008c62:	2b2a      	cmp	r3, #42	@ 0x2a
 8008c64:	d015      	beq.n	8008c92 <_svfiprintf_r+0xfa>
 8008c66:	4654      	mov	r4, sl
 8008c68:	2000      	movs	r0, #0
 8008c6a:	f04f 0c0a 	mov.w	ip, #10
 8008c6e:	9a07      	ldr	r2, [sp, #28]
 8008c70:	4621      	mov	r1, r4
 8008c72:	f811 3b01 	ldrb.w	r3, [r1], #1
 8008c76:	3b30      	subs	r3, #48	@ 0x30
 8008c78:	2b09      	cmp	r3, #9
 8008c7a:	d94b      	bls.n	8008d14 <_svfiprintf_r+0x17c>
 8008c7c:	b1b0      	cbz	r0, 8008cac <_svfiprintf_r+0x114>
 8008c7e:	9207      	str	r2, [sp, #28]
 8008c80:	e014      	b.n	8008cac <_svfiprintf_r+0x114>
 8008c82:	eba0 0308 	sub.w	r3, r0, r8
 8008c86:	fa09 f303 	lsl.w	r3, r9, r3
 8008c8a:	4313      	orrs	r3, r2
 8008c8c:	46a2      	mov	sl, r4
 8008c8e:	9304      	str	r3, [sp, #16]
 8008c90:	e7d2      	b.n	8008c38 <_svfiprintf_r+0xa0>
 8008c92:	9b03      	ldr	r3, [sp, #12]
 8008c94:	1d19      	adds	r1, r3, #4
 8008c96:	681b      	ldr	r3, [r3, #0]
 8008c98:	9103      	str	r1, [sp, #12]
 8008c9a:	2b00      	cmp	r3, #0
 8008c9c:	bfbb      	ittet	lt
 8008c9e:	425b      	neglt	r3, r3
 8008ca0:	f042 0202 	orrlt.w	r2, r2, #2
 8008ca4:	9307      	strge	r3, [sp, #28]
 8008ca6:	9307      	strlt	r3, [sp, #28]
 8008ca8:	bfb8      	it	lt
 8008caa:	9204      	strlt	r2, [sp, #16]
 8008cac:	7823      	ldrb	r3, [r4, #0]
 8008cae:	2b2e      	cmp	r3, #46	@ 0x2e
 8008cb0:	d10a      	bne.n	8008cc8 <_svfiprintf_r+0x130>
 8008cb2:	7863      	ldrb	r3, [r4, #1]
 8008cb4:	2b2a      	cmp	r3, #42	@ 0x2a
 8008cb6:	d132      	bne.n	8008d1e <_svfiprintf_r+0x186>
 8008cb8:	9b03      	ldr	r3, [sp, #12]
 8008cba:	3402      	adds	r4, #2
 8008cbc:	1d1a      	adds	r2, r3, #4
 8008cbe:	681b      	ldr	r3, [r3, #0]
 8008cc0:	9203      	str	r2, [sp, #12]
 8008cc2:	ea43 73e3 	orr.w	r3, r3, r3, asr #31
 8008cc6:	9305      	str	r3, [sp, #20]
 8008cc8:	f8df a0b4 	ldr.w	sl, [pc, #180]	@ 8008d80 <_svfiprintf_r+0x1e8>
 8008ccc:	2203      	movs	r2, #3
 8008cce:	4650      	mov	r0, sl
 8008cd0:	7821      	ldrb	r1, [r4, #0]
 8008cd2:	f7fe fc12 	bl	80074fa <memchr>
 8008cd6:	b138      	cbz	r0, 8008ce8 <_svfiprintf_r+0x150>
 8008cd8:	2240      	movs	r2, #64	@ 0x40
 8008cda:	9b04      	ldr	r3, [sp, #16]
 8008cdc:	eba0 000a 	sub.w	r0, r0, sl
 8008ce0:	4082      	lsls	r2, r0
 8008ce2:	4313      	orrs	r3, r2
 8008ce4:	3401      	adds	r4, #1
 8008ce6:	9304      	str	r3, [sp, #16]
 8008ce8:	f814 1b01 	ldrb.w	r1, [r4], #1
 8008cec:	2206      	movs	r2, #6
 8008cee:	4825      	ldr	r0, [pc, #148]	@ (8008d84 <_svfiprintf_r+0x1ec>)
 8008cf0:	f88d 1028 	strb.w	r1, [sp, #40]	@ 0x28
 8008cf4:	f7fe fc01 	bl	80074fa <memchr>
 8008cf8:	2800      	cmp	r0, #0
 8008cfa:	d036      	beq.n	8008d6a <_svfiprintf_r+0x1d2>
 8008cfc:	4b22      	ldr	r3, [pc, #136]	@ (8008d88 <_svfiprintf_r+0x1f0>)
 8008cfe:	bb1b      	cbnz	r3, 8008d48 <_svfiprintf_r+0x1b0>
 8008d00:	9b03      	ldr	r3, [sp, #12]
 8008d02:	3307      	adds	r3, #7
 8008d04:	f023 0307 	bic.w	r3, r3, #7
 8008d08:	3308      	adds	r3, #8
 8008d0a:	9303      	str	r3, [sp, #12]
 8008d0c:	9b09      	ldr	r3, [sp, #36]	@ 0x24
 8008d0e:	4433      	add	r3, r6
 8008d10:	9309      	str	r3, [sp, #36]	@ 0x24
 8008d12:	e76a      	b.n	8008bea <_svfiprintf_r+0x52>
 8008d14:	460c      	mov	r4, r1
 8008d16:	2001      	movs	r0, #1
 8008d18:	fb0c 3202 	mla	r2, ip, r2, r3
 8008d1c:	e7a8      	b.n	8008c70 <_svfiprintf_r+0xd8>
 8008d1e:	2300      	movs	r3, #0
 8008d20:	f04f 0c0a 	mov.w	ip, #10
 8008d24:	4619      	mov	r1, r3
 8008d26:	3401      	adds	r4, #1
 8008d28:	9305      	str	r3, [sp, #20]
 8008d2a:	4620      	mov	r0, r4
 8008d2c:	f810 2b01 	ldrb.w	r2, [r0], #1
 8008d30:	3a30      	subs	r2, #48	@ 0x30
 8008d32:	2a09      	cmp	r2, #9
 8008d34:	d903      	bls.n	8008d3e <_svfiprintf_r+0x1a6>
 8008d36:	2b00      	cmp	r3, #0
 8008d38:	d0c6      	beq.n	8008cc8 <_svfiprintf_r+0x130>
 8008d3a:	9105      	str	r1, [sp, #20]
 8008d3c:	e7c4      	b.n	8008cc8 <_svfiprintf_r+0x130>
 8008d3e:	4604      	mov	r4, r0
 8008d40:	2301      	movs	r3, #1
 8008d42:	fb0c 2101 	mla	r1, ip, r1, r2
 8008d46:	e7f0      	b.n	8008d2a <_svfiprintf_r+0x192>
 8008d48:	ab03      	add	r3, sp, #12
 8008d4a:	9300      	str	r3, [sp, #0]
 8008d4c:	462a      	mov	r2, r5
 8008d4e:	4638      	mov	r0, r7
 8008d50:	4b0e      	ldr	r3, [pc, #56]	@ (8008d8c <_svfiprintf_r+0x1f4>)
 8008d52:	a904      	add	r1, sp, #16
 8008d54:	f7fd fe1a 	bl	800698c <_printf_float>
 8008d58:	1c42      	adds	r2, r0, #1
 8008d5a:	4606      	mov	r6, r0
 8008d5c:	d1d6      	bne.n	8008d0c <_svfiprintf_r+0x174>
 8008d5e:	89ab      	ldrh	r3, [r5, #12]
 8008d60:	065b      	lsls	r3, r3, #25
 8008d62:	f53f af2d 	bmi.w	8008bc0 <_svfiprintf_r+0x28>
 8008d66:	9809      	ldr	r0, [sp, #36]	@ 0x24
 8008d68:	e72c      	b.n	8008bc4 <_svfiprintf_r+0x2c>
 8008d6a:	ab03      	add	r3, sp, #12
 8008d6c:	9300      	str	r3, [sp, #0]
 8008d6e:	462a      	mov	r2, r5
 8008d70:	4638      	mov	r0, r7
 8008d72:	4b06      	ldr	r3, [pc, #24]	@ (8008d8c <_svfiprintf_r+0x1f4>)
 8008d74:	a904      	add	r1, sp, #16
 8008d76:	f7fe f8a7 	bl	8006ec8 <_printf_i>
 8008d7a:	e7ed      	b.n	8008d58 <_svfiprintf_r+0x1c0>
 8008d7c:	08009d06 	.word	0x08009d06
 8008d80:	08009d0c 	.word	0x08009d0c
 8008d84:	08009d10 	.word	0x08009d10
 8008d88:	0800698d 	.word	0x0800698d
 8008d8c:	08008ae1 	.word	0x08008ae1

08008d90 <__sflush_r>:
 8008d90:	f9b1 200c 	ldrsh.w	r2, [r1, #12]
 8008d94:	b5f8      	push	{r3, r4, r5, r6, r7, lr}
 8008d96:	0716      	lsls	r6, r2, #28
 8008d98:	4605      	mov	r5, r0
 8008d9a:	460c      	mov	r4, r1
 8008d9c:	d454      	bmi.n	8008e48 <__sflush_r+0xb8>
 8008d9e:	684b      	ldr	r3, [r1, #4]
 8008da0:	2b00      	cmp	r3, #0
 8008da2:	dc02      	bgt.n	8008daa <__sflush_r+0x1a>
 8008da4:	6c0b      	ldr	r3, [r1, #64]	@ 0x40
 8008da6:	2b00      	cmp	r3, #0
 8008da8:	dd48      	ble.n	8008e3c <__sflush_r+0xac>
 8008daa:	6ae6      	ldr	r6, [r4, #44]	@ 0x2c
 8008dac:	2e00      	cmp	r6, #0
 8008dae:	d045      	beq.n	8008e3c <__sflush_r+0xac>
 8008db0:	2300      	movs	r3, #0
 8008db2:	f412 5280 	ands.w	r2, r2, #4096	@ 0x1000
 8008db6:	682f      	ldr	r7, [r5, #0]
 8008db8:	6a21      	ldr	r1, [r4, #32]
 8008dba:	602b      	str	r3, [r5, #0]
 8008dbc:	d030      	beq.n	8008e20 <__sflush_r+0x90>
 8008dbe:	6d62      	ldr	r2, [r4, #84]	@ 0x54
 8008dc0:	89a3      	ldrh	r3, [r4, #12]
 8008dc2:	0759      	lsls	r1, r3, #29
 8008dc4:	d505      	bpl.n	8008dd2 <__sflush_r+0x42>
 8008dc6:	6863      	ldr	r3, [r4, #4]
 8008dc8:	1ad2      	subs	r2, r2, r3
 8008dca:	6b63      	ldr	r3, [r4, #52]	@ 0x34
 8008dcc:	b10b      	cbz	r3, 8008dd2 <__sflush_r+0x42>
 8008dce:	6c23      	ldr	r3, [r4, #64]	@ 0x40
 8008dd0:	1ad2      	subs	r2, r2, r3
 8008dd2:	2300      	movs	r3, #0
 8008dd4:	4628      	mov	r0, r5
 8008dd6:	6ae6      	ldr	r6, [r4, #44]	@ 0x2c
 8008dd8:	6a21      	ldr	r1, [r4, #32]
 8008dda:	47b0      	blx	r6
 8008ddc:	1c43      	adds	r3, r0, #1
 8008dde:	89a3      	ldrh	r3, [r4, #12]
 8008de0:	d106      	bne.n	8008df0 <__sflush_r+0x60>
 8008de2:	6829      	ldr	r1, [r5, #0]
 8008de4:	291d      	cmp	r1, #29
 8008de6:	d82b      	bhi.n	8008e40 <__sflush_r+0xb0>
 8008de8:	4a28      	ldr	r2, [pc, #160]	@ (8008e8c <__sflush_r+0xfc>)
 8008dea:	40ca      	lsrs	r2, r1
 8008dec:	07d6      	lsls	r6, r2, #31
 8008dee:	d527      	bpl.n	8008e40 <__sflush_r+0xb0>
 8008df0:	2200      	movs	r2, #0
 8008df2:	6062      	str	r2, [r4, #4]
 8008df4:	6922      	ldr	r2, [r4, #16]
 8008df6:	04d9      	lsls	r1, r3, #19
 8008df8:	6022      	str	r2, [r4, #0]
 8008dfa:	d504      	bpl.n	8008e06 <__sflush_r+0x76>
 8008dfc:	1c42      	adds	r2, r0, #1
 8008dfe:	d101      	bne.n	8008e04 <__sflush_r+0x74>
 8008e00:	682b      	ldr	r3, [r5, #0]
 8008e02:	b903      	cbnz	r3, 8008e06 <__sflush_r+0x76>
 8008e04:	6560      	str	r0, [r4, #84]	@ 0x54
 8008e06:	6b61      	ldr	r1, [r4, #52]	@ 0x34
 8008e08:	602f      	str	r7, [r5, #0]
 8008e0a:	b1b9      	cbz	r1, 8008e3c <__sflush_r+0xac>
 8008e0c:	f104 0344 	add.w	r3, r4, #68	@ 0x44
 8008e10:	4299      	cmp	r1, r3
 8008e12:	d002      	beq.n	8008e1a <__sflush_r+0x8a>
 8008e14:	4628      	mov	r0, r5
 8008e16:	f7ff f9eb 	bl	80081f0 <_free_r>
 8008e1a:	2300      	movs	r3, #0
 8008e1c:	6363      	str	r3, [r4, #52]	@ 0x34
 8008e1e:	e00d      	b.n	8008e3c <__sflush_r+0xac>
 8008e20:	2301      	movs	r3, #1
 8008e22:	4628      	mov	r0, r5
 8008e24:	47b0      	blx	r6
 8008e26:	4602      	mov	r2, r0
 8008e28:	1c50      	adds	r0, r2, #1
 8008e2a:	d1c9      	bne.n	8008dc0 <__sflush_r+0x30>
 8008e2c:	682b      	ldr	r3, [r5, #0]
 8008e2e:	2b00      	cmp	r3, #0
 8008e30:	d0c6      	beq.n	8008dc0 <__sflush_r+0x30>
 8008e32:	2b1d      	cmp	r3, #29
 8008e34:	d001      	beq.n	8008e3a <__sflush_r+0xaa>
 8008e36:	2b16      	cmp	r3, #22
 8008e38:	d11d      	bne.n	8008e76 <__sflush_r+0xe6>
 8008e3a:	602f      	str	r7, [r5, #0]
 8008e3c:	2000      	movs	r0, #0
 8008e3e:	e021      	b.n	8008e84 <__sflush_r+0xf4>
 8008e40:	f043 0340 	orr.w	r3, r3, #64	@ 0x40
 8008e44:	b21b      	sxth	r3, r3
 8008e46:	e01a      	b.n	8008e7e <__sflush_r+0xee>
 8008e48:	690f      	ldr	r7, [r1, #16]
 8008e4a:	2f00      	cmp	r7, #0
 8008e4c:	d0f6      	beq.n	8008e3c <__sflush_r+0xac>
 8008e4e:	0793      	lsls	r3, r2, #30
 8008e50:	bf18      	it	ne
 8008e52:	2300      	movne	r3, #0
 8008e54:	680e      	ldr	r6, [r1, #0]
 8008e56:	bf08      	it	eq
 8008e58:	694b      	ldreq	r3, [r1, #20]
 8008e5a:	1bf6      	subs	r6, r6, r7
 8008e5c:	600f      	str	r7, [r1, #0]
 8008e5e:	608b      	str	r3, [r1, #8]
 8008e60:	2e00      	cmp	r6, #0
 8008e62:	ddeb      	ble.n	8008e3c <__sflush_r+0xac>
 8008e64:	4633      	mov	r3, r6
 8008e66:	463a      	mov	r2, r7
 8008e68:	4628      	mov	r0, r5
 8008e6a:	6a21      	ldr	r1, [r4, #32]
 8008e6c:	f8d4 c028 	ldr.w	ip, [r4, #40]	@ 0x28
 8008e70:	47e0      	blx	ip
 8008e72:	2800      	cmp	r0, #0
 8008e74:	dc07      	bgt.n	8008e86 <__sflush_r+0xf6>
 8008e76:	f9b4 300c 	ldrsh.w	r3, [r4, #12]
 8008e7a:	f043 0340 	orr.w	r3, r3, #64	@ 0x40
 8008e7e:	f04f 30ff 	mov.w	r0, #4294967295
 8008e82:	81a3      	strh	r3, [r4, #12]
 8008e84:	bdf8      	pop	{r3, r4, r5, r6, r7, pc}
 8008e86:	4407      	add	r7, r0
 8008e88:	1a36      	subs	r6, r6, r0
 8008e8a:	e7e9      	b.n	8008e60 <__sflush_r+0xd0>
 8008e8c:	20400001 	.word	0x20400001

08008e90 <_fflush_r>:
 8008e90:	b538      	push	{r3, r4, r5, lr}
 8008e92:	690b      	ldr	r3, [r1, #16]
 8008e94:	4605      	mov	r5, r0
 8008e96:	460c      	mov	r4, r1
 8008e98:	b913      	cbnz	r3, 8008ea0 <_fflush_r+0x10>
 8008e9a:	2500      	movs	r5, #0
 8008e9c:	4628      	mov	r0, r5
 8008e9e:	bd38      	pop	{r3, r4, r5, pc}
 8008ea0:	b118      	cbz	r0, 8008eaa <_fflush_r+0x1a>
 8008ea2:	6a03      	ldr	r3, [r0, #32]
 8008ea4:	b90b      	cbnz	r3, 8008eaa <_fflush_r+0x1a>
 8008ea6:	f7fe f9b9 	bl	800721c <__sinit>
 8008eaa:	f9b4 300c 	ldrsh.w	r3, [r4, #12]
 8008eae:	2b00      	cmp	r3, #0
 8008eb0:	d0f3      	beq.n	8008e9a <_fflush_r+0xa>
 8008eb2:	6e62      	ldr	r2, [r4, #100]	@ 0x64
 8008eb4:	07d0      	lsls	r0, r2, #31
 8008eb6:	d404      	bmi.n	8008ec2 <_fflush_r+0x32>
 8008eb8:	0599      	lsls	r1, r3, #22
 8008eba:	d402      	bmi.n	8008ec2 <_fflush_r+0x32>
 8008ebc:	6da0      	ldr	r0, [r4, #88]	@ 0x58
 8008ebe:	f7fe fb12 	bl	80074e6 <__retarget_lock_acquire_recursive>
 8008ec2:	4628      	mov	r0, r5
 8008ec4:	4621      	mov	r1, r4
 8008ec6:	f7ff ff63 	bl	8008d90 <__sflush_r>
 8008eca:	6e63      	ldr	r3, [r4, #100]	@ 0x64
 8008ecc:	4605      	mov	r5, r0
 8008ece:	07da      	lsls	r2, r3, #31
 8008ed0:	d4e4      	bmi.n	8008e9c <_fflush_r+0xc>
 8008ed2:	89a3      	ldrh	r3, [r4, #12]
 8008ed4:	059b      	lsls	r3, r3, #22
 8008ed6:	d4e1      	bmi.n	8008e9c <_fflush_r+0xc>
 8008ed8:	6da0      	ldr	r0, [r4, #88]	@ 0x58
 8008eda:	f7fe fb05 	bl	80074e8 <__retarget_lock_release_recursive>
 8008ede:	e7dd      	b.n	8008e9c <_fflush_r+0xc>

08008ee0 <memmove>:
 8008ee0:	4288      	cmp	r0, r1
 8008ee2:	b510      	push	{r4, lr}
 8008ee4:	eb01 0402 	add.w	r4, r1, r2
 8008ee8:	d902      	bls.n	8008ef0 <memmove+0x10>
 8008eea:	4284      	cmp	r4, r0
 8008eec:	4623      	mov	r3, r4
 8008eee:	d807      	bhi.n	8008f00 <memmove+0x20>
 8008ef0:	1e43      	subs	r3, r0, #1
 8008ef2:	42a1      	cmp	r1, r4
 8008ef4:	d008      	beq.n	8008f08 <memmove+0x28>
 8008ef6:	f811 2b01 	ldrb.w	r2, [r1], #1
 8008efa:	f803 2f01 	strb.w	r2, [r3, #1]!
 8008efe:	e7f8      	b.n	8008ef2 <memmove+0x12>
 8008f00:	4601      	mov	r1, r0
 8008f02:	4402      	add	r2, r0
 8008f04:	428a      	cmp	r2, r1
 8008f06:	d100      	bne.n	8008f0a <memmove+0x2a>
 8008f08:	bd10      	pop	{r4, pc}
 8008f0a:	f813 4d01 	ldrb.w	r4, [r3, #-1]!
 8008f0e:	f802 4d01 	strb.w	r4, [r2, #-1]!
 8008f12:	e7f7      	b.n	8008f04 <memmove+0x24>

08008f14 <_sbrk_r>:
 8008f14:	b538      	push	{r3, r4, r5, lr}
 8008f16:	2300      	movs	r3, #0
 8008f18:	4d05      	ldr	r5, [pc, #20]	@ (8008f30 <_sbrk_r+0x1c>)
 8008f1a:	4604      	mov	r4, r0
 8008f1c:	4608      	mov	r0, r1
 8008f1e:	602b      	str	r3, [r5, #0]
 8008f20:	f7fa fdb6 	bl	8003a90 <_sbrk>
 8008f24:	1c43      	adds	r3, r0, #1
 8008f26:	d102      	bne.n	8008f2e <_sbrk_r+0x1a>
 8008f28:	682b      	ldr	r3, [r5, #0]
 8008f2a:	b103      	cbz	r3, 8008f2e <_sbrk_r+0x1a>
 8008f2c:	6023      	str	r3, [r4, #0]
 8008f2e:	bd38      	pop	{r3, r4, r5, pc}
 8008f30:	20000f80 	.word	0x20000f80

08008f34 <__assert_func>:
 8008f34:	b51f      	push	{r0, r1, r2, r3, r4, lr}
 8008f36:	4614      	mov	r4, r2
 8008f38:	461a      	mov	r2, r3
 8008f3a:	4b09      	ldr	r3, [pc, #36]	@ (8008f60 <__assert_func+0x2c>)
 8008f3c:	4605      	mov	r5, r0
 8008f3e:	681b      	ldr	r3, [r3, #0]
 8008f40:	68d8      	ldr	r0, [r3, #12]
 8008f42:	b14c      	cbz	r4, 8008f58 <__assert_func+0x24>
 8008f44:	4b07      	ldr	r3, [pc, #28]	@ (8008f64 <__assert_func+0x30>)
 8008f46:	e9cd 3401 	strd	r3, r4, [sp, #4]
 8008f4a:	9100      	str	r1, [sp, #0]
 8008f4c:	462b      	mov	r3, r5
 8008f4e:	4906      	ldr	r1, [pc, #24]	@ (8008f68 <__assert_func+0x34>)
 8008f50:	f000 f870 	bl	8009034 <fiprintf>
 8008f54:	f000 f880 	bl	8009058 <abort>
 8008f58:	4b04      	ldr	r3, [pc, #16]	@ (8008f6c <__assert_func+0x38>)
 8008f5a:	461c      	mov	r4, r3
 8008f5c:	e7f3      	b.n	8008f46 <__assert_func+0x12>
 8008f5e:	bf00      	nop
 8008f60:	20000070 	.word	0x20000070
 8008f64:	08009d21 	.word	0x08009d21
 8008f68:	08009d2e 	.word	0x08009d2e
 8008f6c:	08009d5c 	.word	0x08009d5c

08008f70 <_calloc_r>:
 8008f70:	b570      	push	{r4, r5, r6, lr}
 8008f72:	fba1 5402 	umull	r5, r4, r1, r2
 8008f76:	b934      	cbnz	r4, 8008f86 <_calloc_r+0x16>
 8008f78:	4629      	mov	r1, r5
 8008f7a:	f7ff f9ab 	bl	80082d4 <_malloc_r>
 8008f7e:	4606      	mov	r6, r0
 8008f80:	b928      	cbnz	r0, 8008f8e <_calloc_r+0x1e>
 8008f82:	4630      	mov	r0, r6
 8008f84:	bd70      	pop	{r4, r5, r6, pc}
 8008f86:	220c      	movs	r2, #12
 8008f88:	2600      	movs	r6, #0
 8008f8a:	6002      	str	r2, [r0, #0]
 8008f8c:	e7f9      	b.n	8008f82 <_calloc_r+0x12>
 8008f8e:	462a      	mov	r2, r5
 8008f90:	4621      	mov	r1, r4
 8008f92:	f7fe f9f2 	bl	800737a <memset>
 8008f96:	e7f4      	b.n	8008f82 <_calloc_r+0x12>

08008f98 <__ascii_mbtowc>:
 8008f98:	b082      	sub	sp, #8
 8008f9a:	b901      	cbnz	r1, 8008f9e <__ascii_mbtowc+0x6>
 8008f9c:	a901      	add	r1, sp, #4
 8008f9e:	b142      	cbz	r2, 8008fb2 <__ascii_mbtowc+0x1a>
 8008fa0:	b14b      	cbz	r3, 8008fb6 <__ascii_mbtowc+0x1e>
 8008fa2:	7813      	ldrb	r3, [r2, #0]
 8008fa4:	600b      	str	r3, [r1, #0]
 8008fa6:	7812      	ldrb	r2, [r2, #0]
 8008fa8:	1e10      	subs	r0, r2, #0
 8008faa:	bf18      	it	ne
 8008fac:	2001      	movne	r0, #1
 8008fae:	b002      	add	sp, #8
 8008fb0:	4770      	bx	lr
 8008fb2:	4610      	mov	r0, r2
 8008fb4:	e7fb      	b.n	8008fae <__ascii_mbtowc+0x16>
 8008fb6:	f06f 0001 	mvn.w	r0, #1
 8008fba:	e7f8      	b.n	8008fae <__ascii_mbtowc+0x16>

08008fbc <_realloc_r>:
 8008fbc:	e92d 41f0 	stmdb	sp!, {r4, r5, r6, r7, r8, lr}
 8008fc0:	4607      	mov	r7, r0
 8008fc2:	4614      	mov	r4, r2
 8008fc4:	460d      	mov	r5, r1
 8008fc6:	b921      	cbnz	r1, 8008fd2 <_realloc_r+0x16>
 8008fc8:	4611      	mov	r1, r2
 8008fca:	e8bd 41f0 	ldmia.w	sp!, {r4, r5, r6, r7, r8, lr}
 8008fce:	f7ff b981 	b.w	80082d4 <_malloc_r>
 8008fd2:	b92a      	cbnz	r2, 8008fe0 <_realloc_r+0x24>
 8008fd4:	f7ff f90c 	bl	80081f0 <_free_r>
 8008fd8:	4625      	mov	r5, r4
 8008fda:	4628      	mov	r0, r5
 8008fdc:	e8bd 81f0 	ldmia.w	sp!, {r4, r5, r6, r7, r8, pc}
 8008fe0:	f000 f841 	bl	8009066 <_malloc_usable_size_r>
 8008fe4:	4284      	cmp	r4, r0
 8008fe6:	4606      	mov	r6, r0
 8008fe8:	d802      	bhi.n	8008ff0 <_realloc_r+0x34>
 8008fea:	ebb4 0f50 	cmp.w	r4, r0, lsr #1
 8008fee:	d8f4      	bhi.n	8008fda <_realloc_r+0x1e>
 8008ff0:	4621      	mov	r1, r4
 8008ff2:	4638      	mov	r0, r7
 8008ff4:	f7ff f96e 	bl	80082d4 <_malloc_r>
 8008ff8:	4680      	mov	r8, r0
 8008ffa:	b908      	cbnz	r0, 8009000 <_realloc_r+0x44>
 8008ffc:	4645      	mov	r5, r8
 8008ffe:	e7ec      	b.n	8008fda <_realloc_r+0x1e>
 8009000:	42b4      	cmp	r4, r6
 8009002:	4622      	mov	r2, r4
 8009004:	4629      	mov	r1, r5
 8009006:	bf28      	it	cs
 8009008:	4632      	movcs	r2, r6
 800900a:	f7fe fa84 	bl	8007516 <memcpy>
 800900e:	4629      	mov	r1, r5
 8009010:	4638      	mov	r0, r7
 8009012:	f7ff f8ed 	bl	80081f0 <_free_r>
 8009016:	e7f1      	b.n	8008ffc <_realloc_r+0x40>

08009018 <__ascii_wctomb>:
 8009018:	4603      	mov	r3, r0
 800901a:	4608      	mov	r0, r1
 800901c:	b141      	cbz	r1, 8009030 <__ascii_wctomb+0x18>
 800901e:	2aff      	cmp	r2, #255	@ 0xff
 8009020:	d904      	bls.n	800902c <__ascii_wctomb+0x14>
 8009022:	228a      	movs	r2, #138	@ 0x8a
 8009024:	f04f 30ff 	mov.w	r0, #4294967295
 8009028:	601a      	str	r2, [r3, #0]
 800902a:	4770      	bx	lr
 800902c:	2001      	movs	r0, #1
 800902e:	700a      	strb	r2, [r1, #0]
 8009030:	4770      	bx	lr
	...

08009034 <fiprintf>:
 8009034:	b40e      	push	{r1, r2, r3}
 8009036:	b503      	push	{r0, r1, lr}
 8009038:	4601      	mov	r1, r0
 800903a:	ab03      	add	r3, sp, #12
 800903c:	4805      	ldr	r0, [pc, #20]	@ (8009054 <fiprintf+0x20>)
 800903e:	f853 2b04 	ldr.w	r2, [r3], #4
 8009042:	6800      	ldr	r0, [r0, #0]
 8009044:	9301      	str	r3, [sp, #4]
 8009046:	f000 f83d 	bl	80090c4 <_vfiprintf_r>
 800904a:	b002      	add	sp, #8
 800904c:	f85d eb04 	ldr.w	lr, [sp], #4
 8009050:	b003      	add	sp, #12
 8009052:	4770      	bx	lr
 8009054:	20000070 	.word	0x20000070

08009058 <abort>:
 8009058:	2006      	movs	r0, #6
 800905a:	b508      	push	{r3, lr}
 800905c:	f000 fa06 	bl	800946c <raise>
 8009060:	2001      	movs	r0, #1
 8009062:	f7fa fce7 	bl	8003a34 <_exit>

08009066 <_malloc_usable_size_r>:
 8009066:	f851 3c04 	ldr.w	r3, [r1, #-4]
 800906a:	1f18      	subs	r0, r3, #4
 800906c:	2b00      	cmp	r3, #0
 800906e:	bfbc      	itt	lt
 8009070:	580b      	ldrlt	r3, [r1, r0]
 8009072:	18c0      	addlt	r0, r0, r3
 8009074:	4770      	bx	lr

08009076 <__sfputc_r>:
 8009076:	6893      	ldr	r3, [r2, #8]
 8009078:	b410      	push	{r4}
 800907a:	3b01      	subs	r3, #1
 800907c:	2b00      	cmp	r3, #0
 800907e:	6093      	str	r3, [r2, #8]
 8009080:	da07      	bge.n	8009092 <__sfputc_r+0x1c>
 8009082:	6994      	ldr	r4, [r2, #24]
 8009084:	42a3      	cmp	r3, r4
 8009086:	db01      	blt.n	800908c <__sfputc_r+0x16>
 8009088:	290a      	cmp	r1, #10
 800908a:	d102      	bne.n	8009092 <__sfputc_r+0x1c>
 800908c:	bc10      	pop	{r4}
 800908e:	f000 b931 	b.w	80092f4 <__swbuf_r>
 8009092:	6813      	ldr	r3, [r2, #0]
 8009094:	1c58      	adds	r0, r3, #1
 8009096:	6010      	str	r0, [r2, #0]
 8009098:	7019      	strb	r1, [r3, #0]
 800909a:	4608      	mov	r0, r1
 800909c:	bc10      	pop	{r4}
 800909e:	4770      	bx	lr

080090a0 <__sfputs_r>:
 80090a0:	b5f8      	push	{r3, r4, r5, r6, r7, lr}
 80090a2:	4606      	mov	r6, r0
 80090a4:	460f      	mov	r7, r1
 80090a6:	4614      	mov	r4, r2
 80090a8:	18d5      	adds	r5, r2, r3
 80090aa:	42ac      	cmp	r4, r5
 80090ac:	d101      	bne.n	80090b2 <__sfputs_r+0x12>
 80090ae:	2000      	movs	r0, #0
 80090b0:	e007      	b.n	80090c2 <__sfputs_r+0x22>
 80090b2:	463a      	mov	r2, r7
 80090b4:	4630      	mov	r0, r6
 80090b6:	f814 1b01 	ldrb.w	r1, [r4], #1
 80090ba:	f7ff ffdc 	bl	8009076 <__sfputc_r>
 80090be:	1c43      	adds	r3, r0, #1
 80090c0:	d1f3      	bne.n	80090aa <__sfputs_r+0xa>
 80090c2:	bdf8      	pop	{r3, r4, r5, r6, r7, pc}

080090c4 <_vfiprintf_r>:
 80090c4:	e92d 4ff0 	stmdb	sp!, {r4, r5, r6, r7, r8, r9, sl, fp, lr}
 80090c8:	460d      	mov	r5, r1
 80090ca:	4614      	mov	r4, r2
 80090cc:	4698      	mov	r8, r3
 80090ce:	4606      	mov	r6, r0
 80090d0:	b09d      	sub	sp, #116	@ 0x74
 80090d2:	b118      	cbz	r0, 80090dc <_vfiprintf_r+0x18>
 80090d4:	6a03      	ldr	r3, [r0, #32]
 80090d6:	b90b      	cbnz	r3, 80090dc <_vfiprintf_r+0x18>
 80090d8:	f7fe f8a0 	bl	800721c <__sinit>
 80090dc:	6e6b      	ldr	r3, [r5, #100]	@ 0x64
 80090de:	07d9      	lsls	r1, r3, #31
 80090e0:	d405      	bmi.n	80090ee <_vfiprintf_r+0x2a>
 80090e2:	89ab      	ldrh	r3, [r5, #12]
 80090e4:	059a      	lsls	r2, r3, #22
 80090e6:	d402      	bmi.n	80090ee <_vfiprintf_r+0x2a>
 80090e8:	6da8      	ldr	r0, [r5, #88]	@ 0x58
 80090ea:	f7fe f9fc 	bl	80074e6 <__retarget_lock_acquire_recursive>
 80090ee:	89ab      	ldrh	r3, [r5, #12]
 80090f0:	071b      	lsls	r3, r3, #28
 80090f2:	d501      	bpl.n	80090f8 <_vfiprintf_r+0x34>
 80090f4:	692b      	ldr	r3, [r5, #16]
 80090f6:	b99b      	cbnz	r3, 8009120 <_vfiprintf_r+0x5c>
 80090f8:	4629      	mov	r1, r5
 80090fa:	4630      	mov	r0, r6
 80090fc:	f000 f938 	bl	8009370 <__swsetup_r>
 8009100:	b170      	cbz	r0, 8009120 <_vfiprintf_r+0x5c>
 8009102:	6e6b      	ldr	r3, [r5, #100]	@ 0x64
 8009104:	07dc      	lsls	r4, r3, #31
 8009106:	d504      	bpl.n	8009112 <_vfiprintf_r+0x4e>
 8009108:	f04f 30ff 	mov.w	r0, #4294967295
 800910c:	b01d      	add	sp, #116	@ 0x74
 800910e:	e8bd 8ff0 	ldmia.w	sp!, {r4, r5, r6, r7, r8, r9, sl, fp, pc}
 8009112:	89ab      	ldrh	r3, [r5, #12]
 8009114:	0598      	lsls	r0, r3, #22
 8009116:	d4f7      	bmi.n	8009108 <_vfiprintf_r+0x44>
 8009118:	6da8      	ldr	r0, [r5, #88]	@ 0x58
 800911a:	f7fe f9e5 	bl	80074e8 <__retarget_lock_release_recursive>
 800911e:	e7f3      	b.n	8009108 <_vfiprintf_r+0x44>
 8009120:	2300      	movs	r3, #0
 8009122:	9309      	str	r3, [sp, #36]	@ 0x24
 8009124:	2320      	movs	r3, #32
 8009126:	f88d 3029 	strb.w	r3, [sp, #41]	@ 0x29
 800912a:	2330      	movs	r3, #48	@ 0x30
 800912c:	f04f 0901 	mov.w	r9, #1
 8009130:	f8cd 800c 	str.w	r8, [sp, #12]
 8009134:	f8df 81a8 	ldr.w	r8, [pc, #424]	@ 80092e0 <_vfiprintf_r+0x21c>
 8009138:	f88d 302a 	strb.w	r3, [sp, #42]	@ 0x2a
 800913c:	4623      	mov	r3, r4
 800913e:	469a      	mov	sl, r3
 8009140:	f813 2b01 	ldrb.w	r2, [r3], #1
 8009144:	b10a      	cbz	r2, 800914a <_vfiprintf_r+0x86>
 8009146:	2a25      	cmp	r2, #37	@ 0x25
 8009148:	d1f9      	bne.n	800913e <_vfiprintf_r+0x7a>
 800914a:	ebba 0b04 	subs.w	fp, sl, r4
 800914e:	d00b      	beq.n	8009168 <_vfiprintf_r+0xa4>
 8009150:	465b      	mov	r3, fp
 8009152:	4622      	mov	r2, r4
 8009154:	4629      	mov	r1, r5
 8009156:	4630      	mov	r0, r6
 8009158:	f7ff ffa2 	bl	80090a0 <__sfputs_r>
 800915c:	3001      	adds	r0, #1
 800915e:	f000 80a7 	beq.w	80092b0 <_vfiprintf_r+0x1ec>
 8009162:	9a09      	ldr	r2, [sp, #36]	@ 0x24
 8009164:	445a      	add	r2, fp
 8009166:	9209      	str	r2, [sp, #36]	@ 0x24
 8009168:	f89a 3000 	ldrb.w	r3, [sl]
 800916c:	2b00      	cmp	r3, #0
 800916e:	f000 809f 	beq.w	80092b0 <_vfiprintf_r+0x1ec>
 8009172:	2300      	movs	r3, #0
 8009174:	f04f 32ff 	mov.w	r2, #4294967295
 8009178:	e9cd 2305 	strd	r2, r3, [sp, #20]
 800917c:	f10a 0a01 	add.w	sl, sl, #1
 8009180:	9304      	str	r3, [sp, #16]
 8009182:	9307      	str	r3, [sp, #28]
 8009184:	f88d 3053 	strb.w	r3, [sp, #83]	@ 0x53
 8009188:	931a      	str	r3, [sp, #104]	@ 0x68
 800918a:	4654      	mov	r4, sl
 800918c:	2205      	movs	r2, #5
 800918e:	f814 1b01 	ldrb.w	r1, [r4], #1
 8009192:	4853      	ldr	r0, [pc, #332]	@ (80092e0 <_vfiprintf_r+0x21c>)
 8009194:	f7fe f9b1 	bl	80074fa <memchr>
 8009198:	9a04      	ldr	r2, [sp, #16]
 800919a:	b9d8      	cbnz	r0, 80091d4 <_vfiprintf_r+0x110>
 800919c:	06d1      	lsls	r1, r2, #27
 800919e:	bf44      	itt	mi
 80091a0:	2320      	movmi	r3, #32
 80091a2:	f88d 3053 	strbmi.w	r3, [sp, #83]	@ 0x53
 80091a6:	0713      	lsls	r3, r2, #28
 80091a8:	bf44      	itt	mi
 80091aa:	232b      	movmi	r3, #43	@ 0x2b
 80091ac:	f88d 3053 	strbmi.w	r3, [sp, #83]	@ 0x53
 80091b0:	f89a 3000 	ldrb.w	r3, [sl]
 80091b4:	2b2a      	cmp	r3, #42	@ 0x2a
 80091b6:	d015      	beq.n	80091e4 <_vfiprintf_r+0x120>
 80091b8:	4654      	mov	r4, sl
 80091ba:	2000      	movs	r0, #0
 80091bc:	f04f 0c0a 	mov.w	ip, #10
 80091c0:	9a07      	ldr	r2, [sp, #28]
 80091c2:	4621      	mov	r1, r4
 80091c4:	f811 3b01 	ldrb.w	r3, [r1], #1
 80091c8:	3b30      	subs	r3, #48	@ 0x30
 80091ca:	2b09      	cmp	r3, #9
 80091cc:	d94b      	bls.n	8009266 <_vfiprintf_r+0x1a2>
 80091ce:	b1b0      	cbz	r0, 80091fe <_vfiprintf_r+0x13a>
 80091d0:	9207      	str	r2, [sp, #28]
 80091d2:	e014      	b.n	80091fe <_vfiprintf_r+0x13a>
 80091d4:	eba0 0308 	sub.w	r3, r0, r8
 80091d8:	fa09 f303 	lsl.w	r3, r9, r3
 80091dc:	4313      	orrs	r3, r2
 80091de:	46a2      	mov	sl, r4
 80091e0:	9304      	str	r3, [sp, #16]
 80091e2:	e7d2      	b.n	800918a <_vfiprintf_r+0xc6>
 80091e4:	9b03      	ldr	r3, [sp, #12]
 80091e6:	1d19      	adds	r1, r3, #4
 80091e8:	681b      	ldr	r3, [r3, #0]
 80091ea:	9103      	str	r1, [sp, #12]
 80091ec:	2b00      	cmp	r3, #0
 80091ee:	bfbb      	ittet	lt
 80091f0:	425b      	neglt	r3, r3
 80091f2:	f042 0202 	orrlt.w	r2, r2, #2
 80091f6:	9307      	strge	r3, [sp, #28]
 80091f8:	9307      	strlt	r3, [sp, #28]
 80091fa:	bfb8      	it	lt
 80091fc:	9204      	strlt	r2, [sp, #16]
 80091fe:	7823      	ldrb	r3, [r4, #0]
 8009200:	2b2e      	cmp	r3, #46	@ 0x2e
 8009202:	d10a      	bne.n	800921a <_vfiprintf_r+0x156>
 8009204:	7863      	ldrb	r3, [r4, #1]
 8009206:	2b2a      	cmp	r3, #42	@ 0x2a
 8009208:	d132      	bne.n	8009270 <_vfiprintf_r+0x1ac>
 800920a:	9b03      	ldr	r3, [sp, #12]
 800920c:	3402      	adds	r4, #2
 800920e:	1d1a      	adds	r2, r3, #4
 8009210:	681b      	ldr	r3, [r3, #0]
 8009212:	9203      	str	r2, [sp, #12]
 8009214:	ea43 73e3 	orr.w	r3, r3, r3, asr #31
 8009218:	9305      	str	r3, [sp, #20]
 800921a:	f8df a0c8 	ldr.w	sl, [pc, #200]	@ 80092e4 <_vfiprintf_r+0x220>
 800921e:	2203      	movs	r2, #3
 8009220:	4650      	mov	r0, sl
 8009222:	7821      	ldrb	r1, [r4, #0]
 8009224:	f7fe f969 	bl	80074fa <memchr>
 8009228:	b138      	cbz	r0, 800923a <_vfiprintf_r+0x176>
 800922a:	2240      	movs	r2, #64	@ 0x40
 800922c:	9b04      	ldr	r3, [sp, #16]
 800922e:	eba0 000a 	sub.w	r0, r0, sl
 8009232:	4082      	lsls	r2, r0
 8009234:	4313      	orrs	r3, r2
 8009236:	3401      	adds	r4, #1
 8009238:	9304      	str	r3, [sp, #16]
 800923a:	f814 1b01 	ldrb.w	r1, [r4], #1
 800923e:	2206      	movs	r2, #6
 8009240:	4829      	ldr	r0, [pc, #164]	@ (80092e8 <_vfiprintf_r+0x224>)
 8009242:	f88d 1028 	strb.w	r1, [sp, #40]	@ 0x28
 8009246:	f7fe f958 	bl	80074fa <memchr>
 800924a:	2800      	cmp	r0, #0
 800924c:	d03f      	beq.n	80092ce <_vfiprintf_r+0x20a>
 800924e:	4b27      	ldr	r3, [pc, #156]	@ (80092ec <_vfiprintf_r+0x228>)
 8009250:	bb1b      	cbnz	r3, 800929a <_vfiprintf_r+0x1d6>
 8009252:	9b03      	ldr	r3, [sp, #12]
 8009254:	3307      	adds	r3, #7
 8009256:	f023 0307 	bic.w	r3, r3, #7
 800925a:	3308      	adds	r3, #8
 800925c:	9303      	str	r3, [sp, #12]
 800925e:	9b09      	ldr	r3, [sp, #36]	@ 0x24
 8009260:	443b      	add	r3, r7
 8009262:	9309      	str	r3, [sp, #36]	@ 0x24
 8009264:	e76a      	b.n	800913c <_vfiprintf_r+0x78>
 8009266:	460c      	mov	r4, r1
 8009268:	2001      	movs	r0, #1
 800926a:	fb0c 3202 	mla	r2, ip, r2, r3
 800926e:	e7a8      	b.n	80091c2 <_vfiprintf_r+0xfe>
 8009270:	2300      	movs	r3, #0
 8009272:	f04f 0c0a 	mov.w	ip, #10
 8009276:	4619      	mov	r1, r3
 8009278:	3401      	adds	r4, #1
 800927a:	9305      	str	r3, [sp, #20]
 800927c:	4620      	mov	r0, r4
 800927e:	f810 2b01 	ldrb.w	r2, [r0], #1
 8009282:	3a30      	subs	r2, #48	@ 0x30
 8009284:	2a09      	cmp	r2, #9
 8009286:	d903      	bls.n	8009290 <_vfiprintf_r+0x1cc>
 8009288:	2b00      	cmp	r3, #0
 800928a:	d0c6      	beq.n	800921a <_vfiprintf_r+0x156>
 800928c:	9105      	str	r1, [sp, #20]
 800928e:	e7c4      	b.n	800921a <_vfiprintf_r+0x156>
 8009290:	4604      	mov	r4, r0
 8009292:	2301      	movs	r3, #1
 8009294:	fb0c 2101 	mla	r1, ip, r1, r2
 8009298:	e7f0      	b.n	800927c <_vfiprintf_r+0x1b8>
 800929a:	ab03      	add	r3, sp, #12
 800929c:	9300      	str	r3, [sp, #0]
 800929e:	462a      	mov	r2, r5
 80092a0:	4630      	mov	r0, r6
 80092a2:	4b13      	ldr	r3, [pc, #76]	@ (80092f0 <_vfiprintf_r+0x22c>)
 80092a4:	a904      	add	r1, sp, #16
 80092a6:	f7fd fb71 	bl	800698c <_printf_float>
 80092aa:	4607      	mov	r7, r0
 80092ac:	1c78      	adds	r0, r7, #1
 80092ae:	d1d6      	bne.n	800925e <_vfiprintf_r+0x19a>
 80092b0:	6e6b      	ldr	r3, [r5, #100]	@ 0x64
 80092b2:	07d9      	lsls	r1, r3, #31
 80092b4:	d405      	bmi.n	80092c2 <_vfiprintf_r+0x1fe>
 80092b6:	89ab      	ldrh	r3, [r5, #12]
 80092b8:	059a      	lsls	r2, r3, #22
 80092ba:	d402      	bmi.n	80092c2 <_vfiprintf_r+0x1fe>
 80092bc:	6da8      	ldr	r0, [r5, #88]	@ 0x58
 80092be:	f7fe f913 	bl	80074e8 <__retarget_lock_release_recursive>
 80092c2:	89ab      	ldrh	r3, [r5, #12]
 80092c4:	065b      	lsls	r3, r3, #25
 80092c6:	f53f af1f 	bmi.w	8009108 <_vfiprintf_r+0x44>
 80092ca:	9809      	ldr	r0, [sp, #36]	@ 0x24
 80092cc:	e71e      	b.n	800910c <_vfiprintf_r+0x48>
 80092ce:	ab03      	add	r3, sp, #12
 80092d0:	9300      	str	r3, [sp, #0]
 80092d2:	462a      	mov	r2, r5
 80092d4:	4630      	mov	r0, r6
 80092d6:	4b06      	ldr	r3, [pc, #24]	@ (80092f0 <_vfiprintf_r+0x22c>)
 80092d8:	a904      	add	r1, sp, #16
 80092da:	f7fd fdf5 	bl	8006ec8 <_printf_i>
 80092de:	e7e4      	b.n	80092aa <_vfiprintf_r+0x1e6>
 80092e0:	08009d06 	.word	0x08009d06
 80092e4:	08009d0c 	.word	0x08009d0c
 80092e8:	08009d10 	.word	0x08009d10
 80092ec:	0800698d 	.word	0x0800698d
 80092f0:	080090a1 	.word	0x080090a1

080092f4 <__swbuf_r>:
 80092f4:	b5f8      	push	{r3, r4, r5, r6, r7, lr}
 80092f6:	460e      	mov	r6, r1
 80092f8:	4614      	mov	r4, r2
 80092fa:	4605      	mov	r5, r0
 80092fc:	b118      	cbz	r0, 8009306 <__swbuf_r+0x12>
 80092fe:	6a03      	ldr	r3, [r0, #32]
 8009300:	b90b      	cbnz	r3, 8009306 <__swbuf_r+0x12>
 8009302:	f7fd ff8b 	bl	800721c <__sinit>
 8009306:	69a3      	ldr	r3, [r4, #24]
 8009308:	60a3      	str	r3, [r4, #8]
 800930a:	89a3      	ldrh	r3, [r4, #12]
 800930c:	071a      	lsls	r2, r3, #28
 800930e:	d501      	bpl.n	8009314 <__swbuf_r+0x20>
 8009310:	6923      	ldr	r3, [r4, #16]
 8009312:	b943      	cbnz	r3, 8009326 <__swbuf_r+0x32>
 8009314:	4621      	mov	r1, r4
 8009316:	4628      	mov	r0, r5
 8009318:	f000 f82a 	bl	8009370 <__swsetup_r>
 800931c:	b118      	cbz	r0, 8009326 <__swbuf_r+0x32>
 800931e:	f04f 37ff 	mov.w	r7, #4294967295
 8009322:	4638      	mov	r0, r7
 8009324:	bdf8      	pop	{r3, r4, r5, r6, r7, pc}
 8009326:	6823      	ldr	r3, [r4, #0]
 8009328:	6922      	ldr	r2, [r4, #16]
 800932a:	b2f6      	uxtb	r6, r6
 800932c:	1a98      	subs	r0, r3, r2
 800932e:	6963      	ldr	r3, [r4, #20]
 8009330:	4637      	mov	r7, r6
 8009332:	4283      	cmp	r3, r0
 8009334:	dc05      	bgt.n	8009342 <__swbuf_r+0x4e>
 8009336:	4621      	mov	r1, r4
 8009338:	4628      	mov	r0, r5
 800933a:	f7ff fda9 	bl	8008e90 <_fflush_r>
 800933e:	2800      	cmp	r0, #0
 8009340:	d1ed      	bne.n	800931e <__swbuf_r+0x2a>
 8009342:	68a3      	ldr	r3, [r4, #8]
 8009344:	3b01      	subs	r3, #1
 8009346:	60a3      	str	r3, [r4, #8]
 8009348:	6823      	ldr	r3, [r4, #0]
 800934a:	1c5a      	adds	r2, r3, #1
 800934c:	6022      	str	r2, [r4, #0]
 800934e:	701e      	strb	r6, [r3, #0]
 8009350:	6962      	ldr	r2, [r4, #20]
 8009352:	1c43      	adds	r3, r0, #1
 8009354:	429a      	cmp	r2, r3
 8009356:	d004      	beq.n	8009362 <__swbuf_r+0x6e>
 8009358:	89a3      	ldrh	r3, [r4, #12]
 800935a:	07db      	lsls	r3, r3, #31
 800935c:	d5e1      	bpl.n	8009322 <__swbuf_r+0x2e>
 800935e:	2e0a      	cmp	r6, #10
 8009360:	d1df      	bne.n	8009322 <__swbuf_r+0x2e>
 8009362:	4621      	mov	r1, r4
 8009364:	4628      	mov	r0, r5
 8009366:	f7ff fd93 	bl	8008e90 <_fflush_r>
 800936a:	2800      	cmp	r0, #0
 800936c:	d0d9      	beq.n	8009322 <__swbuf_r+0x2e>
 800936e:	e7d6      	b.n	800931e <__swbuf_r+0x2a>

08009370 <__swsetup_r>:
 8009370:	b538      	push	{r3, r4, r5, lr}
 8009372:	4b29      	ldr	r3, [pc, #164]	@ (8009418 <__swsetup_r+0xa8>)
 8009374:	4605      	mov	r5, r0
 8009376:	6818      	ldr	r0, [r3, #0]
 8009378:	460c      	mov	r4, r1
 800937a:	b118      	cbz	r0, 8009384 <__swsetup_r+0x14>
 800937c:	6a03      	ldr	r3, [r0, #32]
 800937e:	b90b      	cbnz	r3, 8009384 <__swsetup_r+0x14>
 8009380:	f7fd ff4c 	bl	800721c <__sinit>
 8009384:	f9b4 300c 	ldrsh.w	r3, [r4, #12]
 8009388:	0719      	lsls	r1, r3, #28
 800938a:	d422      	bmi.n	80093d2 <__swsetup_r+0x62>
 800938c:	06da      	lsls	r2, r3, #27
 800938e:	d407      	bmi.n	80093a0 <__swsetup_r+0x30>
 8009390:	2209      	movs	r2, #9
 8009392:	602a      	str	r2, [r5, #0]
 8009394:	f043 0340 	orr.w	r3, r3, #64	@ 0x40
 8009398:	f04f 30ff 	mov.w	r0, #4294967295
 800939c:	81a3      	strh	r3, [r4, #12]
 800939e:	e033      	b.n	8009408 <__swsetup_r+0x98>
 80093a0:	0758      	lsls	r0, r3, #29
 80093a2:	d512      	bpl.n	80093ca <__swsetup_r+0x5a>
 80093a4:	6b61      	ldr	r1, [r4, #52]	@ 0x34
 80093a6:	b141      	cbz	r1, 80093ba <__swsetup_r+0x4a>
 80093a8:	f104 0344 	add.w	r3, r4, #68	@ 0x44
 80093ac:	4299      	cmp	r1, r3
 80093ae:	d002      	beq.n	80093b6 <__swsetup_r+0x46>
 80093b0:	4628      	mov	r0, r5
 80093b2:	f7fe ff1d 	bl	80081f0 <_free_r>
 80093b6:	2300      	movs	r3, #0
 80093b8:	6363      	str	r3, [r4, #52]	@ 0x34
 80093ba:	89a3      	ldrh	r3, [r4, #12]
 80093bc:	f023 0324 	bic.w	r3, r3, #36	@ 0x24
 80093c0:	81a3      	strh	r3, [r4, #12]
 80093c2:	2300      	movs	r3, #0
 80093c4:	6063      	str	r3, [r4, #4]
 80093c6:	6923      	ldr	r3, [r4, #16]
 80093c8:	6023      	str	r3, [r4, #0]
 80093ca:	89a3      	ldrh	r3, [r4, #12]
 80093cc:	f043 0308 	orr.w	r3, r3, #8
 80093d0:	81a3      	strh	r3, [r4, #12]
 80093d2:	6923      	ldr	r3, [r4, #16]
 80093d4:	b94b      	cbnz	r3, 80093ea <__swsetup_r+0x7a>
 80093d6:	89a3      	ldrh	r3, [r4, #12]
 80093d8:	f403 7320 	and.w	r3, r3, #640	@ 0x280
 80093dc:	f5b3 7f00 	cmp.w	r3, #512	@ 0x200
 80093e0:	d003      	beq.n	80093ea <__swsetup_r+0x7a>
 80093e2:	4621      	mov	r1, r4
 80093e4:	4628      	mov	r0, r5
 80093e6:	f000 f882 	bl	80094ee <__smakebuf_r>
 80093ea:	f9b4 300c 	ldrsh.w	r3, [r4, #12]
 80093ee:	f013 0201 	ands.w	r2, r3, #1
 80093f2:	d00a      	beq.n	800940a <__swsetup_r+0x9a>
 80093f4:	2200      	movs	r2, #0
 80093f6:	60a2      	str	r2, [r4, #8]
 80093f8:	6962      	ldr	r2, [r4, #20]
 80093fa:	4252      	negs	r2, r2
 80093fc:	61a2      	str	r2, [r4, #24]
 80093fe:	6922      	ldr	r2, [r4, #16]
 8009400:	b942      	cbnz	r2, 8009414 <__swsetup_r+0xa4>
 8009402:	f013 0080 	ands.w	r0, r3, #128	@ 0x80
 8009406:	d1c5      	bne.n	8009394 <__swsetup_r+0x24>
 8009408:	bd38      	pop	{r3, r4, r5, pc}
 800940a:	0799      	lsls	r1, r3, #30
 800940c:	bf58      	it	pl
 800940e:	6962      	ldrpl	r2, [r4, #20]
 8009410:	60a2      	str	r2, [r4, #8]
 8009412:	e7f4      	b.n	80093fe <__swsetup_r+0x8e>
 8009414:	2000      	movs	r0, #0
 8009416:	e7f7      	b.n	8009408 <__swsetup_r+0x98>
 8009418:	20000070 	.word	0x20000070

0800941c <_raise_r>:
 800941c:	291f      	cmp	r1, #31
 800941e:	b538      	push	{r3, r4, r5, lr}
 8009420:	4605      	mov	r5, r0
 8009422:	460c      	mov	r4, r1
 8009424:	d904      	bls.n	8009430 <_raise_r+0x14>
 8009426:	2316      	movs	r3, #22
 8009428:	6003      	str	r3, [r0, #0]
 800942a:	f04f 30ff 	mov.w	r0, #4294967295
 800942e:	bd38      	pop	{r3, r4, r5, pc}
 8009430:	6bc2      	ldr	r2, [r0, #60]	@ 0x3c
 8009432:	b112      	cbz	r2, 800943a <_raise_r+0x1e>
 8009434:	f852 3021 	ldr.w	r3, [r2, r1, lsl #2]
 8009438:	b94b      	cbnz	r3, 800944e <_raise_r+0x32>
 800943a:	4628      	mov	r0, r5
 800943c:	f000 f830 	bl	80094a0 <_getpid_r>
 8009440:	4622      	mov	r2, r4
 8009442:	4601      	mov	r1, r0
 8009444:	4628      	mov	r0, r5
 8009446:	e8bd 4038 	ldmia.w	sp!, {r3, r4, r5, lr}
 800944a:	f000 b817 	b.w	800947c <_kill_r>
 800944e:	2b01      	cmp	r3, #1
 8009450:	d00a      	beq.n	8009468 <_raise_r+0x4c>
 8009452:	1c59      	adds	r1, r3, #1
 8009454:	d103      	bne.n	800945e <_raise_r+0x42>
 8009456:	2316      	movs	r3, #22
 8009458:	6003      	str	r3, [r0, #0]
 800945a:	2001      	movs	r0, #1
 800945c:	e7e7      	b.n	800942e <_raise_r+0x12>
 800945e:	2100      	movs	r1, #0
 8009460:	4620      	mov	r0, r4
 8009462:	f842 1024 	str.w	r1, [r2, r4, lsl #2]
 8009466:	4798      	blx	r3
 8009468:	2000      	movs	r0, #0
 800946a:	e7e0      	b.n	800942e <_raise_r+0x12>

0800946c <raise>:
 800946c:	4b02      	ldr	r3, [pc, #8]	@ (8009478 <raise+0xc>)
 800946e:	4601      	mov	r1, r0
 8009470:	6818      	ldr	r0, [r3, #0]
 8009472:	f7ff bfd3 	b.w	800941c <_raise_r>
 8009476:	bf00      	nop
 8009478:	20000070 	.word	0x20000070

0800947c <_kill_r>:
 800947c:	b538      	push	{r3, r4, r5, lr}
 800947e:	2300      	movs	r3, #0
 8009480:	4d06      	ldr	r5, [pc, #24]	@ (800949c <_kill_r+0x20>)
 8009482:	4604      	mov	r4, r0
 8009484:	4608      	mov	r0, r1
 8009486:	4611      	mov	r1, r2
 8009488:	602b      	str	r3, [r5, #0]
 800948a:	f7fa facb 	bl	8003a24 <_kill>
 800948e:	1c43      	adds	r3, r0, #1
 8009490:	d102      	bne.n	8009498 <_kill_r+0x1c>
 8009492:	682b      	ldr	r3, [r5, #0]
 8009494:	b103      	cbz	r3, 8009498 <_kill_r+0x1c>
 8009496:	6023      	str	r3, [r4, #0]
 8009498:	bd38      	pop	{r3, r4, r5, pc}
 800949a:	bf00      	nop
 800949c:	20000f80 	.word	0x20000f80

080094a0 <_getpid_r>:
 80094a0:	f7fa babe 	b.w	8003a20 <_getpid>

080094a4 <__swhatbuf_r>:
 80094a4:	b570      	push	{r4, r5, r6, lr}
 80094a6:	460c      	mov	r4, r1
 80094a8:	f9b1 100e 	ldrsh.w	r1, [r1, #14]
 80094ac:	4615      	mov	r5, r2
 80094ae:	2900      	cmp	r1, #0
 80094b0:	461e      	mov	r6, r3
 80094b2:	b096      	sub	sp, #88	@ 0x58
 80094b4:	da0c      	bge.n	80094d0 <__swhatbuf_r+0x2c>
 80094b6:	89a3      	ldrh	r3, [r4, #12]
 80094b8:	2100      	movs	r1, #0
 80094ba:	f013 0f80 	tst.w	r3, #128	@ 0x80
 80094be:	bf14      	ite	ne
 80094c0:	2340      	movne	r3, #64	@ 0x40
 80094c2:	f44f 6380 	moveq.w	r3, #1024	@ 0x400
 80094c6:	2000      	movs	r0, #0
 80094c8:	6031      	str	r1, [r6, #0]
 80094ca:	602b      	str	r3, [r5, #0]
 80094cc:	b016      	add	sp, #88	@ 0x58
 80094ce:	bd70      	pop	{r4, r5, r6, pc}
 80094d0:	466a      	mov	r2, sp
 80094d2:	f000 f849 	bl	8009568 <_fstat_r>
 80094d6:	2800      	cmp	r0, #0
 80094d8:	dbed      	blt.n	80094b6 <__swhatbuf_r+0x12>
 80094da:	9901      	ldr	r1, [sp, #4]
 80094dc:	f401 4170 	and.w	r1, r1, #61440	@ 0xf000
 80094e0:	f5a1 5300 	sub.w	r3, r1, #8192	@ 0x2000
 80094e4:	4259      	negs	r1, r3
 80094e6:	4159      	adcs	r1, r3
 80094e8:	f44f 6380 	mov.w	r3, #1024	@ 0x400
 80094ec:	e7eb      	b.n	80094c6 <__swhatbuf_r+0x22>

080094ee <__smakebuf_r>:
 80094ee:	898b      	ldrh	r3, [r1, #12]
 80094f0:	b5f7      	push	{r0, r1, r2, r4, r5, r6, r7, lr}
 80094f2:	079d      	lsls	r5, r3, #30
 80094f4:	4606      	mov	r6, r0
 80094f6:	460c      	mov	r4, r1
 80094f8:	d507      	bpl.n	800950a <__smakebuf_r+0x1c>
 80094fa:	f104 0347 	add.w	r3, r4, #71	@ 0x47
 80094fe:	6023      	str	r3, [r4, #0]
 8009500:	6123      	str	r3, [r4, #16]
 8009502:	2301      	movs	r3, #1
 8009504:	6163      	str	r3, [r4, #20]
 8009506:	b003      	add	sp, #12
 8009508:	bdf0      	pop	{r4, r5, r6, r7, pc}
 800950a:	466a      	mov	r2, sp
 800950c:	ab01      	add	r3, sp, #4
 800950e:	f7ff ffc9 	bl	80094a4 <__swhatbuf_r>
 8009512:	9f00      	ldr	r7, [sp, #0]
 8009514:	4605      	mov	r5, r0
 8009516:	4639      	mov	r1, r7
 8009518:	4630      	mov	r0, r6
 800951a:	f7fe fedb 	bl	80082d4 <_malloc_r>
 800951e:	b948      	cbnz	r0, 8009534 <__smakebuf_r+0x46>
 8009520:	f9b4 300c 	ldrsh.w	r3, [r4, #12]
 8009524:	059a      	lsls	r2, r3, #22
 8009526:	d4ee      	bmi.n	8009506 <__smakebuf_r+0x18>
 8009528:	f023 0303 	bic.w	r3, r3, #3
 800952c:	f043 0302 	orr.w	r3, r3, #2
 8009530:	81a3      	strh	r3, [r4, #12]
 8009532:	e7e2      	b.n	80094fa <__smakebuf_r+0xc>
 8009534:	89a3      	ldrh	r3, [r4, #12]
 8009536:	e9c4 0704 	strd	r0, r7, [r4, #16]
 800953a:	f043 0380 	orr.w	r3, r3, #128	@ 0x80
 800953e:	81a3      	strh	r3, [r4, #12]
 8009540:	9b01      	ldr	r3, [sp, #4]
 8009542:	6020      	str	r0, [r4, #0]
 8009544:	b15b      	cbz	r3, 800955e <__smakebuf_r+0x70>
 8009546:	4630      	mov	r0, r6
 8009548:	f9b4 100e 	ldrsh.w	r1, [r4, #14]
 800954c:	f000 f81e 	bl	800958c <_isatty_r>
 8009550:	b128      	cbz	r0, 800955e <__smakebuf_r+0x70>
 8009552:	89a3      	ldrh	r3, [r4, #12]
 8009554:	f023 0303 	bic.w	r3, r3, #3
 8009558:	f043 0301 	orr.w	r3, r3, #1
 800955c:	81a3      	strh	r3, [r4, #12]
 800955e:	89a3      	ldrh	r3, [r4, #12]
 8009560:	431d      	orrs	r5, r3
 8009562:	81a5      	strh	r5, [r4, #12]
 8009564:	e7cf      	b.n	8009506 <__smakebuf_r+0x18>
	...

08009568 <_fstat_r>:
 8009568:	b538      	push	{r3, r4, r5, lr}
 800956a:	2300      	movs	r3, #0
 800956c:	4d06      	ldr	r5, [pc, #24]	@ (8009588 <_fstat_r+0x20>)
 800956e:	4604      	mov	r4, r0
 8009570:	4608      	mov	r0, r1
 8009572:	4611      	mov	r1, r2
 8009574:	602b      	str	r3, [r5, #0]
 8009576:	f7fa fa82 	bl	8003a7e <_fstat>
 800957a:	1c43      	adds	r3, r0, #1
 800957c:	d102      	bne.n	8009584 <_fstat_r+0x1c>
 800957e:	682b      	ldr	r3, [r5, #0]
 8009580:	b103      	cbz	r3, 8009584 <_fstat_r+0x1c>
 8009582:	6023      	str	r3, [r4, #0]
 8009584:	bd38      	pop	{r3, r4, r5, pc}
 8009586:	bf00      	nop
 8009588:	20000f80 	.word	0x20000f80

0800958c <_isatty_r>:
 800958c:	b538      	push	{r3, r4, r5, lr}
 800958e:	2300      	movs	r3, #0
 8009590:	4d05      	ldr	r5, [pc, #20]	@ (80095a8 <_isatty_r+0x1c>)
 8009592:	4604      	mov	r4, r0
 8009594:	4608      	mov	r0, r1
 8009596:	602b      	str	r3, [r5, #0]
 8009598:	f7fa fa76 	bl	8003a88 <_isatty>
 800959c:	1c43      	adds	r3, r0, #1
 800959e:	d102      	bne.n	80095a6 <_isatty_r+0x1a>
 80095a0:	682b      	ldr	r3, [r5, #0]
 80095a2:	b103      	cbz	r3, 80095a6 <_isatty_r+0x1a>
 80095a4:	6023      	str	r3, [r4, #0]
 80095a6:	bd38      	pop	{r3, r4, r5, pc}
 80095a8:	20000f80 	.word	0x20000f80

080095ac <_init>:
 80095ac:	b5f8      	push	{r3, r4, r5, r6, r7, lr}
 80095ae:	bf00      	nop
 80095b0:	bcf8      	pop	{r3, r4, r5, r6, r7}
 80095b2:	bc08      	pop	{r3}
 80095b4:	469e      	mov	lr, r3
 80095b6:	4770      	bx	lr

080095b8 <_fini>:
 80095b8:	b5f8      	push	{r3, r4, r5, r6, r7, lr}
 80095ba:	bf00      	nop
 80095bc:	bcf8      	pop	{r3, r4, r5, r6, r7}
 80095be:	bc08      	pop	{r3}
 80095c0:	469e      	mov	lr, r3
 80095c2:	4770      	bx	lr
